
BombHonor2.elf:     file format elf32-littlearm

Sections:
Idx Name          Size      VMA       LMA       File off  Algn
  0 .isr_vector   000000c0  08000000  08000000  00010000  2**0
                  CONTENTS, ALLOC, LOAD, READONLY, DATA
  1 .text         00001998  080000c0  080000c0  000100c0  2**2
                  CONTENTS, ALLOC, LOAD, READONLY, CODE
  2 .rodata       0000001c  08001a58  08001a58  00011a58  2**2
                  CONTENTS, ALLOC, LOAD, READONLY, DATA
  3 .ARM.extab    00000000  08001a74  08001a74  00020004  2**0
                  CONTENTS
  4 .ARM          00000000  08001a74  08001a74  00020004  2**0
                  CONTENTS
  5 .preinit_array 00000000  08001a74  08001a74  00020004  2**0
                  CONTENTS, ALLOC, LOAD, DATA
  6 .init_array   00000004  08001a74  08001a74  00011a74  2**2
                  CONTENTS, ALLOC, LOAD, DATA
  7 .fini_array   00000004  08001a78  08001a78  00011a78  2**2
                  CONTENTS, ALLOC, LOAD, DATA
  8 .data         00000004  20000000  08001a7c  00020000  2**2
                  CONTENTS, ALLOC, LOAD, DATA
  9 .bss          00000020  20000004  08001a80  00020004  2**2
                  ALLOC
 10 ._user_heap_stack 00000604  20000024  08001a80  00020024  2**0
                  ALLOC
 11 .ARM.attributes 00000028  00000000  00000000  00020004  2**0
                  CONTENTS, READONLY
 12 .debug_info   00003559  00000000  00000000  0002002c  2**0
                  CONTENTS, READONLY, DEBUGGING
 13 .debug_abbrev 00000f2d  00000000  00000000  00023585  2**0
                  CONTENTS, READONLY, DEBUGGING
 14 .debug_aranges 000004b0  00000000  00000000  000244b8  2**3
                  CONTENTS, READONLY, DEBUGGING
 15 .debug_ranges 00000408  00000000  00000000  00024968  2**3
                  CONTENTS, READONLY, DEBUGGING
 16 .debug_macro  0000f186  00000000  00000000  00024d70  2**0
                  CONTENTS, READONLY, DEBUGGING
 17 .debug_line   00004cc2  00000000  00000000  00033ef6  2**0
                  CONTENTS, READONLY, DEBUGGING
 18 .debug_str    0005a8b9  00000000  00000000  00038bb8  2**0
                  CONTENTS, READONLY, DEBUGGING
 19 .comment      0000007b  00000000  00000000  00093471  2**0
                  CONTENTS, READONLY
 20 .debug_frame  00000e98  00000000  00000000  000934ec  2**2
                  CONTENTS, READONLY, DEBUGGING

Disassembly of section .text:

080000c0 <__do_global_dtors_aux>:
 80000c0:	b510      	push	{r4, lr}
 80000c2:	4c06      	ldr	r4, [pc, #24]	; (80000dc <__do_global_dtors_aux+0x1c>)
 80000c4:	7823      	ldrb	r3, [r4, #0]
 80000c6:	2b00      	cmp	r3, #0
 80000c8:	d107      	bne.n	80000da <__do_global_dtors_aux+0x1a>
 80000ca:	4b05      	ldr	r3, [pc, #20]	; (80000e0 <__do_global_dtors_aux+0x20>)
 80000cc:	2b00      	cmp	r3, #0
 80000ce:	d002      	beq.n	80000d6 <__do_global_dtors_aux+0x16>
 80000d0:	4804      	ldr	r0, [pc, #16]	; (80000e4 <__do_global_dtors_aux+0x24>)
 80000d2:	e000      	b.n	80000d6 <__do_global_dtors_aux+0x16>
 80000d4:	bf00      	nop
 80000d6:	2301      	movs	r3, #1
 80000d8:	7023      	strb	r3, [r4, #0]
 80000da:	bd10      	pop	{r4, pc}
 80000dc:	20000004 	.word	0x20000004
 80000e0:	00000000 	.word	0x00000000
 80000e4:	08001a40 	.word	0x08001a40

080000e8 <frame_dummy>:
 80000e8:	4b04      	ldr	r3, [pc, #16]	; (80000fc <frame_dummy+0x14>)
 80000ea:	b510      	push	{r4, lr}
 80000ec:	2b00      	cmp	r3, #0
 80000ee:	d003      	beq.n	80000f8 <frame_dummy+0x10>
 80000f0:	4903      	ldr	r1, [pc, #12]	; (8000100 <frame_dummy+0x18>)
 80000f2:	4804      	ldr	r0, [pc, #16]	; (8000104 <frame_dummy+0x1c>)
 80000f4:	e000      	b.n	80000f8 <frame_dummy+0x10>
 80000f6:	bf00      	nop
 80000f8:	bd10      	pop	{r4, pc}
 80000fa:	46c0      	nop			; (mov r8, r8)
 80000fc:	00000000 	.word	0x00000000
 8000100:	20000008 	.word	0x20000008
 8000104:	08001a40 	.word	0x08001a40

08000108 <__udivsi3>:
 8000108:	2200      	movs	r2, #0
 800010a:	0843      	lsrs	r3, r0, #1
 800010c:	428b      	cmp	r3, r1
 800010e:	d374      	bcc.n	80001fa <__udivsi3+0xf2>
 8000110:	0903      	lsrs	r3, r0, #4
 8000112:	428b      	cmp	r3, r1
 8000114:	d35f      	bcc.n	80001d6 <__udivsi3+0xce>
 8000116:	0a03      	lsrs	r3, r0, #8
 8000118:	428b      	cmp	r3, r1
 800011a:	d344      	bcc.n	80001a6 <__udivsi3+0x9e>
 800011c:	0b03      	lsrs	r3, r0, #12
 800011e:	428b      	cmp	r3, r1
 8000120:	d328      	bcc.n	8000174 <__udivsi3+0x6c>
 8000122:	0c03      	lsrs	r3, r0, #16
 8000124:	428b      	cmp	r3, r1
 8000126:	d30d      	bcc.n	8000144 <__udivsi3+0x3c>
 8000128:	22ff      	movs	r2, #255	; 0xff
 800012a:	0209      	lsls	r1, r1, #8
 800012c:	ba12      	rev	r2, r2
 800012e:	0c03      	lsrs	r3, r0, #16
 8000130:	428b      	cmp	r3, r1
 8000132:	d302      	bcc.n	800013a <__udivsi3+0x32>
 8000134:	1212      	asrs	r2, r2, #8
 8000136:	0209      	lsls	r1, r1, #8
 8000138:	d065      	beq.n	8000206 <__udivsi3+0xfe>
 800013a:	0b03      	lsrs	r3, r0, #12
 800013c:	428b      	cmp	r3, r1
 800013e:	d319      	bcc.n	8000174 <__udivsi3+0x6c>
 8000140:	e000      	b.n	8000144 <__udivsi3+0x3c>
 8000142:	0a09      	lsrs	r1, r1, #8
 8000144:	0bc3      	lsrs	r3, r0, #15
 8000146:	428b      	cmp	r3, r1
 8000148:	d301      	bcc.n	800014e <__udivsi3+0x46>
 800014a:	03cb      	lsls	r3, r1, #15
 800014c:	1ac0      	subs	r0, r0, r3
 800014e:	4152      	adcs	r2, r2
 8000150:	0b83      	lsrs	r3, r0, #14
 8000152:	428b      	cmp	r3, r1
 8000154:	d301      	bcc.n	800015a <__udivsi3+0x52>
 8000156:	038b      	lsls	r3, r1, #14
 8000158:	1ac0      	subs	r0, r0, r3
 800015a:	4152      	adcs	r2, r2
 800015c:	0b43      	lsrs	r3, r0, #13
 800015e:	428b      	cmp	r3, r1
 8000160:	d301      	bcc.n	8000166 <__udivsi3+0x5e>
 8000162:	034b      	lsls	r3, r1, #13
 8000164:	1ac0      	subs	r0, r0, r3
 8000166:	4152      	adcs	r2, r2
 8000168:	0b03      	lsrs	r3, r0, #12
 800016a:	428b      	cmp	r3, r1
 800016c:	d301      	bcc.n	8000172 <__udivsi3+0x6a>
 800016e:	030b      	lsls	r3, r1, #12
 8000170:	1ac0      	subs	r0, r0, r3
 8000172:	4152      	adcs	r2, r2
 8000174:	0ac3      	lsrs	r3, r0, #11
 8000176:	428b      	cmp	r3, r1
 8000178:	d301      	bcc.n	800017e <__udivsi3+0x76>
 800017a:	02cb      	lsls	r3, r1, #11
 800017c:	1ac0      	subs	r0, r0, r3
 800017e:	4152      	adcs	r2, r2
 8000180:	0a83      	lsrs	r3, r0, #10
 8000182:	428b      	cmp	r3, r1
 8000184:	d301      	bcc.n	800018a <__udivsi3+0x82>
 8000186:	028b      	lsls	r3, r1, #10
 8000188:	1ac0      	subs	r0, r0, r3
 800018a:	4152      	adcs	r2, r2
 800018c:	0a43      	lsrs	r3, r0, #9
 800018e:	428b      	cmp	r3, r1
 8000190:	d301      	bcc.n	8000196 <__udivsi3+0x8e>
 8000192:	024b      	lsls	r3, r1, #9
 8000194:	1ac0      	subs	r0, r0, r3
 8000196:	4152      	adcs	r2, r2
 8000198:	0a03      	lsrs	r3, r0, #8
 800019a:	428b      	cmp	r3, r1
 800019c:	d301      	bcc.n	80001a2 <__udivsi3+0x9a>
 800019e:	020b      	lsls	r3, r1, #8
 80001a0:	1ac0      	subs	r0, r0, r3
 80001a2:	4152      	adcs	r2, r2
 80001a4:	d2cd      	bcs.n	8000142 <__udivsi3+0x3a>
 80001a6:	09c3      	lsrs	r3, r0, #7
 80001a8:	428b      	cmp	r3, r1
 80001aa:	d301      	bcc.n	80001b0 <__udivsi3+0xa8>
 80001ac:	01cb      	lsls	r3, r1, #7
 80001ae:	1ac0      	subs	r0, r0, r3
 80001b0:	4152      	adcs	r2, r2
 80001b2:	0983      	lsrs	r3, r0, #6
 80001b4:	428b      	cmp	r3, r1
 80001b6:	d301      	bcc.n	80001bc <__udivsi3+0xb4>
 80001b8:	018b      	lsls	r3, r1, #6
 80001ba:	1ac0      	subs	r0, r0, r3
 80001bc:	4152      	adcs	r2, r2
 80001be:	0943      	lsrs	r3, r0, #5
 80001c0:	428b      	cmp	r3, r1
 80001c2:	d301      	bcc.n	80001c8 <__udivsi3+0xc0>
 80001c4:	014b      	lsls	r3, r1, #5
 80001c6:	1ac0      	subs	r0, r0, r3
 80001c8:	4152      	adcs	r2, r2
 80001ca:	0903      	lsrs	r3, r0, #4
 80001cc:	428b      	cmp	r3, r1
 80001ce:	d301      	bcc.n	80001d4 <__udivsi3+0xcc>
 80001d0:	010b      	lsls	r3, r1, #4
 80001d2:	1ac0      	subs	r0, r0, r3
 80001d4:	4152      	adcs	r2, r2
 80001d6:	08c3      	lsrs	r3, r0, #3
 80001d8:	428b      	cmp	r3, r1
 80001da:	d301      	bcc.n	80001e0 <__udivsi3+0xd8>
 80001dc:	00cb      	lsls	r3, r1, #3
 80001de:	1ac0      	subs	r0, r0, r3
 80001e0:	4152      	adcs	r2, r2
 80001e2:	0883      	lsrs	r3, r0, #2
 80001e4:	428b      	cmp	r3, r1
 80001e6:	d301      	bcc.n	80001ec <__udivsi3+0xe4>
 80001e8:	008b      	lsls	r3, r1, #2
 80001ea:	1ac0      	subs	r0, r0, r3
 80001ec:	4152      	adcs	r2, r2
 80001ee:	0843      	lsrs	r3, r0, #1
 80001f0:	428b      	cmp	r3, r1
 80001f2:	d301      	bcc.n	80001f8 <__udivsi3+0xf0>
 80001f4:	004b      	lsls	r3, r1, #1
 80001f6:	1ac0      	subs	r0, r0, r3
 80001f8:	4152      	adcs	r2, r2
 80001fa:	1a41      	subs	r1, r0, r1
 80001fc:	d200      	bcs.n	8000200 <__udivsi3+0xf8>
 80001fe:	4601      	mov	r1, r0
 8000200:	4152      	adcs	r2, r2
 8000202:	4610      	mov	r0, r2
 8000204:	4770      	bx	lr
 8000206:	e7ff      	b.n	8000208 <__udivsi3+0x100>
 8000208:	b501      	push	{r0, lr}
 800020a:	2000      	movs	r0, #0
 800020c:	f000 f806 	bl	800021c <__aeabi_idiv0>
 8000210:	bd02      	pop	{r1, pc}
 8000212:	46c0      	nop			; (mov r8, r8)

08000214 <__aeabi_uidivmod>:
 8000214:	2900      	cmp	r1, #0
 8000216:	d0f7      	beq.n	8000208 <__udivsi3+0x100>
 8000218:	e776      	b.n	8000108 <__udivsi3>
 800021a:	4770      	bx	lr

0800021c <__aeabi_idiv0>:
 800021c:	4770      	bx	lr
 800021e:	46c0      	nop			; (mov r8, r8)

08000220 <main>:
/**
  * @brief  The application entry point.
  * @retval int
  */
int main(void)
{
 8000220:	b580      	push	{r7, lr}
 8000222:	b082      	sub	sp, #8
 8000224:	af00      	add	r7, sp, #0
  

  /* MCU Configuration--------------------------------------------------------*/

  /* Reset of all peripherals, Initializes the Flash interface and the Systick. */
  HAL_Init();
 8000226:	f000 fbad 	bl	8000984 <HAL_Init>
  /* USER CODE BEGIN Init */

  /* USER CODE END Init */

  /* Configure the system clock */
  SystemClock_Config();
 800022a:	f000 f85b 	bl	80002e4 <SystemClock_Config>

  /* USER CODE BEGIN SysInit */
  /* USER CODE END SysInit */

  /* Initialize all configured peripherals */
  MX_GPIO_Init();
 800022e:	f000 f8b5 	bl	800039c <MX_GPIO_Init>
  /* USER CODE BEGIN 2 */
  __HAL_RCC_PWR_CLK_ENABLE();
 8000232:	4b2b      	ldr	r3, [pc, #172]	; (80002e0 <main+0xc0>)
 8000234:	6b9a      	ldr	r2, [r3, #56]	; 0x38
 8000236:	4b2a      	ldr	r3, [pc, #168]	; (80002e0 <main+0xc0>)
 8000238:	2180      	movs	r1, #128	; 0x80
 800023a:	0549      	lsls	r1, r1, #21
 800023c:	430a      	orrs	r2, r1
 800023e:	639a      	str	r2, [r3, #56]	; 0x38
  while (1)
  {
    /* USER CODE END WHILE */

    /* USER CODE BEGIN 3 */
  	uint32_t delay1=50, delay2=600;
 8000240:	2332      	movs	r3, #50	; 0x32
 8000242:	607b      	str	r3, [r7, #4]
 8000244:	2396      	movs	r3, #150	; 0x96
 8000246:	009b      	lsls	r3, r3, #2
 8000248:	603b      	str	r3, [r7, #0]
  	wheel_cw(delay1);
 800024a:	687b      	ldr	r3, [r7, #4]
 800024c:	0018      	movs	r0, r3
 800024e:	f000 f986 	bl	800055e <wheel_cw>
  	wheel_cw(delay1);
 8000252:	687b      	ldr	r3, [r7, #4]
 8000254:	0018      	movs	r0, r3
 8000256:	f000 f982 	bl	800055e <wheel_cw>
  	wheel_cw(delay1);
 800025a:	687b      	ldr	r3, [r7, #4]
 800025c:	0018      	movs	r0, r3
 800025e:	f000 f97e 	bl	800055e <wheel_cw>
  	wheel_cw(delay1);
 8000262:	687b      	ldr	r3, [r7, #4]
 8000264:	0018      	movs	r0, r3
 8000266:	f000 f97a 	bl	800055e <wheel_cw>
  	half_wheel_cw(delay1);
 800026a:	687b      	ldr	r3, [r7, #4]
 800026c:	0018      	movs	r0, r3
 800026e:	f000 f9c4 	bl	80005fa <half_wheel_cw>
		delay_onoff(delay2);
 8000272:	683b      	ldr	r3, [r7, #0]
 8000274:	0018      	movs	r0, r3
 8000276:	f000 fa92 	bl	800079e <delay_onoff>
		onoff(delay2);
 800027a:	683b      	ldr	r3, [r7, #0]
 800027c:	0018      	movs	r0, r3
 800027e:	f000 fa60 	bl	8000742 <onoff>
		onoff(delay2);
 8000282:	683b      	ldr	r3, [r7, #0]
 8000284:	0018      	movs	r0, r3
 8000286:	f000 fa5c 	bl	8000742 <onoff>
		HAL_Delay(delay2);
 800028a:	683b      	ldr	r3, [r7, #0]
 800028c:	0018      	movs	r0, r3
 800028e:	f000 fbd9 	bl	8000a44 <HAL_Delay>
		wheel_ccw(delay1);
 8000292:	687b      	ldr	r3, [r7, #4]
 8000294:	0018      	movs	r0, r3
 8000296:	f000 f9db 	bl	8000650 <wheel_ccw>
		wheel_ccw(delay1);
 800029a:	687b      	ldr	r3, [r7, #4]
 800029c:	0018      	movs	r0, r3
 800029e:	f000 f9d7 	bl	8000650 <wheel_ccw>
		wheel_ccw(delay1);
 80002a2:	687b      	ldr	r3, [r7, #4]
 80002a4:	0018      	movs	r0, r3
 80002a6:	f000 f9d3 	bl	8000650 <wheel_ccw>
		wheel_ccw(delay1);
 80002aa:	687b      	ldr	r3, [r7, #4]
 80002ac:	0018      	movs	r0, r3
 80002ae:	f000 f9cf 	bl	8000650 <wheel_ccw>
		half_wheel_ccw(delay1);
 80002b2:	687b      	ldr	r3, [r7, #4]
 80002b4:	0018      	movs	r0, r3
 80002b6:	f000 fa19 	bl	80006ec <half_wheel_ccw>
		delay_onoff(delay2);
 80002ba:	683b      	ldr	r3, [r7, #0]
 80002bc:	0018      	movs	r0, r3
 80002be:	f000 fa6e 	bl	800079e <delay_onoff>
		onoff(delay2);
 80002c2:	683b      	ldr	r3, [r7, #0]
 80002c4:	0018      	movs	r0, r3
 80002c6:	f000 fa3c 	bl	8000742 <onoff>
		onoff(delay2);
 80002ca:	683b      	ldr	r3, [r7, #0]
 80002cc:	0018      	movs	r0, r3
 80002ce:	f000 fa38 	bl	8000742 <onoff>
		HAL_Delay(delay2);
 80002d2:	683b      	ldr	r3, [r7, #0]
 80002d4:	0018      	movs	r0, r3
 80002d6:	f000 fbb5 	bl	8000a44 <HAL_Delay>

		go_to_sleep();
 80002da:	f000 fa7b 	bl	80007d4 <go_to_sleep>
  {
 80002de:	e7af      	b.n	8000240 <main+0x20>
 80002e0:	40021000 	.word	0x40021000

080002e4 <SystemClock_Config>:
/**
  * @brief System Clock Configuration
  * @retval None
  */
void SystemClock_Config(void)
{
 80002e4:	b590      	push	{r4, r7, lr}
 80002e6:	b093      	sub	sp, #76	; 0x4c
 80002e8:	af00      	add	r7, sp, #0
  RCC_OscInitTypeDef RCC_OscInitStruct = {0};
 80002ea:	2414      	movs	r4, #20
 80002ec:	193b      	adds	r3, r7, r4
 80002ee:	0018      	movs	r0, r3
 80002f0:	2334      	movs	r3, #52	; 0x34
 80002f2:	001a      	movs	r2, r3
 80002f4:	2100      	movs	r1, #0
 80002f6:	f001 fb9b 	bl	8001a30 <memset>
  RCC_ClkInitTypeDef RCC_ClkInitStruct = {0};
 80002fa:	003b      	movs	r3, r7
 80002fc:	0018      	movs	r0, r3
 80002fe:	2314      	movs	r3, #20
 8000300:	001a      	movs	r2, r3
 8000302:	2100      	movs	r1, #0
 8000304:	f001 fb94 	bl	8001a30 <memset>

  /** Configure the main internal regulator output voltage 
  */
  __HAL_PWR_VOLTAGESCALING_CONFIG(PWR_REGULATOR_VOLTAGE_SCALE1);
 8000308:	4b22      	ldr	r3, [pc, #136]	; (8000394 <SystemClock_Config+0xb0>)
 800030a:	681b      	ldr	r3, [r3, #0]
 800030c:	4a22      	ldr	r2, [pc, #136]	; (8000398 <SystemClock_Config+0xb4>)
 800030e:	401a      	ands	r2, r3
 8000310:	4b20      	ldr	r3, [pc, #128]	; (8000394 <SystemClock_Config+0xb0>)
 8000312:	2180      	movs	r1, #128	; 0x80
 8000314:	0109      	lsls	r1, r1, #4
 8000316:	430a      	orrs	r2, r1
 8000318:	601a      	str	r2, [r3, #0]
  /** Initializes the CPU, AHB and APB busses clocks 
  */
  RCC_OscInitStruct.OscillatorType = RCC_OSCILLATORTYPE_HSI;
 800031a:	0021      	movs	r1, r4
 800031c:	187b      	adds	r3, r7, r1
 800031e:	2202      	movs	r2, #2
 8000320:	601a      	str	r2, [r3, #0]
  RCC_OscInitStruct.HSIState = RCC_HSI_ON;
 8000322:	187b      	adds	r3, r7, r1
 8000324:	2201      	movs	r2, #1
 8000326:	60da      	str	r2, [r3, #12]
  RCC_OscInitStruct.HSICalibrationValue = RCC_HSICALIBRATION_DEFAULT;
 8000328:	187b      	adds	r3, r7, r1
 800032a:	2210      	movs	r2, #16
 800032c:	611a      	str	r2, [r3, #16]
  RCC_OscInitStruct.PLL.PLLState = RCC_PLL_ON;
 800032e:	187b      	adds	r3, r7, r1
 8000330:	2202      	movs	r2, #2
 8000332:	625a      	str	r2, [r3, #36]	; 0x24
  RCC_OscInitStruct.PLL.PLLSource = RCC_PLLSOURCE_HSI;
 8000334:	187b      	adds	r3, r7, r1
 8000336:	2200      	movs	r2, #0
 8000338:	629a      	str	r2, [r3, #40]	; 0x28
  RCC_OscInitStruct.PLL.PLLMUL = RCC_PLLMUL_4;
 800033a:	187b      	adds	r3, r7, r1
 800033c:	2280      	movs	r2, #128	; 0x80
 800033e:	02d2      	lsls	r2, r2, #11
 8000340:	62da      	str	r2, [r3, #44]	; 0x2c
  RCC_OscInitStruct.PLL.PLLDIV = RCC_PLLDIV_4;
 8000342:	187b      	adds	r3, r7, r1
 8000344:	22c0      	movs	r2, #192	; 0xc0
 8000346:	0412      	lsls	r2, r2, #16
 8000348:	631a      	str	r2, [r3, #48]	; 0x30
  if (HAL_RCC_OscConfig(&RCC_OscInitStruct) != HAL_OK)
 800034a:	187b      	adds	r3, r7, r1
 800034c:	0018      	movs	r0, r3
 800034e:	f000 fe23 	bl	8000f98 <HAL_RCC_OscConfig>
 8000352:	1e03      	subs	r3, r0, #0
 8000354:	d001      	beq.n	800035a <SystemClock_Config+0x76>
  {
    Error_Handler();
 8000356:	f000 fa61 	bl	800081c <Error_Handler>
  }
  /** Initializes the CPU, AHB and APB busses clocks 
  */
  RCC_ClkInitStruct.ClockType = RCC_CLOCKTYPE_HCLK|RCC_CLOCKTYPE_SYSCLK
 800035a:	003b      	movs	r3, r7
 800035c:	220f      	movs	r2, #15
 800035e:	601a      	str	r2, [r3, #0]
                              |RCC_CLOCKTYPE_PCLK1|RCC_CLOCKTYPE_PCLK2;
  RCC_ClkInitStruct.SYSCLKSource = RCC_SYSCLKSOURCE_PLLCLK;
 8000360:	003b      	movs	r3, r7
 8000362:	2203      	movs	r2, #3
 8000364:	605a      	str	r2, [r3, #4]
  RCC_ClkInitStruct.AHBCLKDivider = RCC_SYSCLK_DIV64;
 8000366:	003b      	movs	r3, r7
 8000368:	22c0      	movs	r2, #192	; 0xc0
 800036a:	609a      	str	r2, [r3, #8]
  RCC_ClkInitStruct.APB1CLKDivider = RCC_HCLK_DIV1;
 800036c:	003b      	movs	r3, r7
 800036e:	2200      	movs	r2, #0
 8000370:	60da      	str	r2, [r3, #12]
  RCC_ClkInitStruct.APB2CLKDivider = RCC_HCLK_DIV1;
 8000372:	003b      	movs	r3, r7
 8000374:	2200      	movs	r2, #0
 8000376:	611a      	str	r2, [r3, #16]

  if (HAL_RCC_ClockConfig(&RCC_ClkInitStruct, FLASH_LATENCY_0) != HAL_OK)
 8000378:	003b      	movs	r3, r7
 800037a:	2100      	movs	r1, #0
 800037c:	0018      	movs	r0, r3
 800037e:	f001 f985 	bl	800168c <HAL_RCC_ClockConfig>
 8000382:	1e03      	subs	r3, r0, #0
 8000384:	d001      	beq.n	800038a <SystemClock_Config+0xa6>
  {
    Error_Handler();
 8000386:	f000 fa49 	bl	800081c <Error_Handler>
  }
}
 800038a:	46c0      	nop			; (mov r8, r8)
 800038c:	46bd      	mov	sp, r7
 800038e:	b013      	add	sp, #76	; 0x4c
 8000390:	bd90      	pop	{r4, r7, pc}
 8000392:	46c0      	nop			; (mov r8, r8)
 8000394:	40007000 	.word	0x40007000
 8000398:	ffffe7ff 	.word	0xffffe7ff

0800039c <MX_GPIO_Init>:
  * @brief GPIO Initialization Function
  * @param None
  * @retval None
  */
static void MX_GPIO_Init(void)
{
 800039c:	b590      	push	{r4, r7, lr}
 800039e:	b089      	sub	sp, #36	; 0x24
 80003a0:	af00      	add	r7, sp, #0
  GPIO_InitTypeDef GPIO_InitStruct = {0};
 80003a2:	240c      	movs	r4, #12
 80003a4:	193b      	adds	r3, r7, r4
 80003a6:	0018      	movs	r0, r3
 80003a8:	2314      	movs	r3, #20
 80003aa:	001a      	movs	r2, r3
 80003ac:	2100      	movs	r1, #0
 80003ae:	f001 fb3f 	bl	8001a30 <memset>

  /* GPIO Ports Clock Enable */
  __HAL_RCC_GPIOC_CLK_ENABLE();
 80003b2:	4b39      	ldr	r3, [pc, #228]	; (8000498 <MX_GPIO_Init+0xfc>)
 80003b4:	6ada      	ldr	r2, [r3, #44]	; 0x2c
 80003b6:	4b38      	ldr	r3, [pc, #224]	; (8000498 <MX_GPIO_Init+0xfc>)
 80003b8:	2104      	movs	r1, #4
 80003ba:	430a      	orrs	r2, r1
 80003bc:	62da      	str	r2, [r3, #44]	; 0x2c
 80003be:	4b36      	ldr	r3, [pc, #216]	; (8000498 <MX_GPIO_Init+0xfc>)
 80003c0:	6adb      	ldr	r3, [r3, #44]	; 0x2c
 80003c2:	2204      	movs	r2, #4
 80003c4:	4013      	ands	r3, r2
 80003c6:	60bb      	str	r3, [r7, #8]
 80003c8:	68bb      	ldr	r3, [r7, #8]
  __HAL_RCC_GPIOA_CLK_ENABLE();
 80003ca:	4b33      	ldr	r3, [pc, #204]	; (8000498 <MX_GPIO_Init+0xfc>)
 80003cc:	6ada      	ldr	r2, [r3, #44]	; 0x2c
 80003ce:	4b32      	ldr	r3, [pc, #200]	; (8000498 <MX_GPIO_Init+0xfc>)
 80003d0:	2101      	movs	r1, #1
 80003d2:	430a      	orrs	r2, r1
 80003d4:	62da      	str	r2, [r3, #44]	; 0x2c
 80003d6:	4b30      	ldr	r3, [pc, #192]	; (8000498 <MX_GPIO_Init+0xfc>)
 80003d8:	6adb      	ldr	r3, [r3, #44]	; 0x2c
 80003da:	2201      	movs	r2, #1
 80003dc:	4013      	ands	r3, r2
 80003de:	607b      	str	r3, [r7, #4]
 80003e0:	687b      	ldr	r3, [r7, #4]
  __HAL_RCC_GPIOB_CLK_ENABLE();
 80003e2:	4b2d      	ldr	r3, [pc, #180]	; (8000498 <MX_GPIO_Init+0xfc>)
 80003e4:	6ada      	ldr	r2, [r3, #44]	; 0x2c
 80003e6:	4b2c      	ldr	r3, [pc, #176]	; (8000498 <MX_GPIO_Init+0xfc>)
 80003e8:	2102      	movs	r1, #2
 80003ea:	430a      	orrs	r2, r1
 80003ec:	62da      	str	r2, [r3, #44]	; 0x2c
 80003ee:	4b2a      	ldr	r3, [pc, #168]	; (8000498 <MX_GPIO_Init+0xfc>)
 80003f0:	6adb      	ldr	r3, [r3, #44]	; 0x2c
 80003f2:	2202      	movs	r2, #2
 80003f4:	4013      	ands	r3, r2
 80003f6:	603b      	str	r3, [r7, #0]
 80003f8:	683b      	ldr	r3, [r7, #0]

  /*Configure GPIO pin Output Level */
  HAL_GPIO_WritePin(GPIOA, LED4_Pin|LED3_Pin|LED2_Pin|LED1_Pin 
 80003fa:	4928      	ldr	r1, [pc, #160]	; (800049c <MX_GPIO_Init+0x100>)
 80003fc:	23a0      	movs	r3, #160	; 0xa0
 80003fe:	05db      	lsls	r3, r3, #23
 8000400:	2200      	movs	r2, #0
 8000402:	0018      	movs	r0, r3
 8000404:	f000 fd56 	bl	8000eb4 <HAL_GPIO_WritePin>
                          |LED5_Pin, GPIO_PIN_RESET);

  /*Configure GPIO pins : PC14 PC15 */
  GPIO_InitStruct.Pin = GPIO_PIN_14|GPIO_PIN_15;
 8000408:	193b      	adds	r3, r7, r4
 800040a:	22c0      	movs	r2, #192	; 0xc0
 800040c:	0212      	lsls	r2, r2, #8
 800040e:	601a      	str	r2, [r3, #0]
  GPIO_InitStruct.Mode = GPIO_MODE_ANALOG;
 8000410:	193b      	adds	r3, r7, r4
 8000412:	2203      	movs	r2, #3
 8000414:	605a      	str	r2, [r3, #4]
  GPIO_InitStruct.Pull = GPIO_NOPULL;
 8000416:	193b      	adds	r3, r7, r4
 8000418:	2200      	movs	r2, #0
 800041a:	609a      	str	r2, [r3, #8]
  HAL_GPIO_Init(GPIOC, &GPIO_InitStruct);
 800041c:	193b      	adds	r3, r7, r4
 800041e:	4a20      	ldr	r2, [pc, #128]	; (80004a0 <MX_GPIO_Init+0x104>)
 8000420:	0019      	movs	r1, r3
 8000422:	0010      	movs	r0, r2
 8000424:	f000 fbe0 	bl	8000be8 <HAL_GPIO_Init>

  /*Configure GPIO pins : LED4_Pin LED3_Pin LED2_Pin LED1_Pin 
                           LED5_Pin */
  GPIO_InitStruct.Pin = LED4_Pin|LED3_Pin|LED2_Pin|LED1_Pin 
 8000428:	193b      	adds	r3, r7, r4
 800042a:	4a1c      	ldr	r2, [pc, #112]	; (800049c <MX_GPIO_Init+0x100>)
 800042c:	601a      	str	r2, [r3, #0]
                          |LED5_Pin;
  GPIO_InitStruct.Mode = GPIO_MODE_OUTPUT_PP;
 800042e:	193b      	adds	r3, r7, r4
 8000430:	2201      	movs	r2, #1
 8000432:	605a      	str	r2, [r3, #4]
  GPIO_InitStruct.Pull = GPIO_NOPULL;
 8000434:	193b      	adds	r3, r7, r4
 8000436:	2200      	movs	r2, #0
 8000438:	609a      	str	r2, [r3, #8]
  GPIO_InitStruct.Speed = GPIO_SPEED_FREQ_LOW;
 800043a:	193b      	adds	r3, r7, r4
 800043c:	2200      	movs	r2, #0
 800043e:	60da      	str	r2, [r3, #12]
  HAL_GPIO_Init(GPIOA, &GPIO_InitStruct);
 8000440:	193a      	adds	r2, r7, r4
 8000442:	23a0      	movs	r3, #160	; 0xa0
 8000444:	05db      	lsls	r3, r3, #23
 8000446:	0011      	movs	r1, r2
 8000448:	0018      	movs	r0, r3
 800044a:	f000 fbcd 	bl	8000be8 <HAL_GPIO_Init>

  /*Configure GPIO pins : PA5 PA6 PA7 PA10 */
  GPIO_InitStruct.Pin = GPIO_PIN_5|GPIO_PIN_6|GPIO_PIN_7|GPIO_PIN_10;
 800044e:	193b      	adds	r3, r7, r4
 8000450:	229c      	movs	r2, #156	; 0x9c
 8000452:	00d2      	lsls	r2, r2, #3
 8000454:	601a      	str	r2, [r3, #0]
  GPIO_InitStruct.Mode = GPIO_MODE_ANALOG;
 8000456:	193b      	adds	r3, r7, r4
 8000458:	2203      	movs	r2, #3
 800045a:	605a      	str	r2, [r3, #4]
  GPIO_InitStruct.Pull = GPIO_NOPULL;
 800045c:	193b      	adds	r3, r7, r4
 800045e:	2200      	movs	r2, #0
 8000460:	609a      	str	r2, [r3, #8]
  HAL_GPIO_Init(GPIOA, &GPIO_InitStruct);
 8000462:	193a      	adds	r2, r7, r4
 8000464:	23a0      	movs	r3, #160	; 0xa0
 8000466:	05db      	lsls	r3, r3, #23
 8000468:	0011      	movs	r1, r2
 800046a:	0018      	movs	r0, r3
 800046c:	f000 fbbc 	bl	8000be8 <HAL_GPIO_Init>

  /*Configure GPIO pin : PB1 */
  GPIO_InitStruct.Pin = GPIO_PIN_1;
 8000470:	193b      	adds	r3, r7, r4
 8000472:	2202      	movs	r2, #2
 8000474:	601a      	str	r2, [r3, #0]
  GPIO_InitStruct.Mode = GPIO_MODE_ANALOG;
 8000476:	193b      	adds	r3, r7, r4
 8000478:	2203      	movs	r2, #3
 800047a:	605a      	str	r2, [r3, #4]
  GPIO_InitStruct.Pull = GPIO_NOPULL;
 800047c:	193b      	adds	r3, r7, r4
 800047e:	2200      	movs	r2, #0
 8000480:	609a      	str	r2, [r3, #8]
  HAL_GPIO_Init(GPIOB, &GPIO_InitStruct);
 8000482:	193b      	adds	r3, r7, r4
 8000484:	4a07      	ldr	r2, [pc, #28]	; (80004a4 <MX_GPIO_Init+0x108>)
 8000486:	0019      	movs	r1, r3
 8000488:	0010      	movs	r0, r2
 800048a:	f000 fbad 	bl	8000be8 <HAL_GPIO_Init>

}
 800048e:	46c0      	nop			; (mov r8, r8)
 8000490:	46bd      	mov	sp, r7
 8000492:	b009      	add	sp, #36	; 0x24
 8000494:	bd90      	pop	{r4, r7, pc}
 8000496:	46c0      	nop			; (mov r8, r8)
 8000498:	40021000 	.word	0x40021000
 800049c:	0000021e 	.word	0x0000021e
 80004a0:	50000800 	.word	0x50000800
 80004a4:	50000400 	.word	0x50000400

080004a8 <led1>:

/* USER CODE BEGIN 4 */
void led1(GPIO_PinState state){
 80004a8:	b580      	push	{r7, lr}
 80004aa:	b082      	sub	sp, #8
 80004ac:	af00      	add	r7, sp, #0
 80004ae:	0002      	movs	r2, r0
 80004b0:	1dfb      	adds	r3, r7, #7
 80004b2:	701a      	strb	r2, [r3, #0]
	HAL_GPIO_WritePin(LED1_GPIO_Port,LED1_Pin,state);
 80004b4:	1dfb      	adds	r3, r7, #7
 80004b6:	781a      	ldrb	r2, [r3, #0]
 80004b8:	23a0      	movs	r3, #160	; 0xa0
 80004ba:	05db      	lsls	r3, r3, #23
 80004bc:	2110      	movs	r1, #16
 80004be:	0018      	movs	r0, r3
 80004c0:	f000 fcf8 	bl	8000eb4 <HAL_GPIO_WritePin>
}
 80004c4:	46c0      	nop			; (mov r8, r8)
 80004c6:	46bd      	mov	sp, r7
 80004c8:	b002      	add	sp, #8
 80004ca:	bd80      	pop	{r7, pc}

080004cc <led2>:

void led2(GPIO_PinState state){
 80004cc:	b580      	push	{r7, lr}
 80004ce:	b082      	sub	sp, #8
 80004d0:	af00      	add	r7, sp, #0
 80004d2:	0002      	movs	r2, r0
 80004d4:	1dfb      	adds	r3, r7, #7
 80004d6:	701a      	strb	r2, [r3, #0]
	HAL_GPIO_WritePin(LED2_GPIO_Port,LED2_Pin,state);
 80004d8:	1dfb      	adds	r3, r7, #7
 80004da:	781a      	ldrb	r2, [r3, #0]
 80004dc:	23a0      	movs	r3, #160	; 0xa0
 80004de:	05db      	lsls	r3, r3, #23
 80004e0:	2108      	movs	r1, #8
 80004e2:	0018      	movs	r0, r3
 80004e4:	f000 fce6 	bl	8000eb4 <HAL_GPIO_WritePin>
}
 80004e8:	46c0      	nop			; (mov r8, r8)
 80004ea:	46bd      	mov	sp, r7
 80004ec:	b002      	add	sp, #8
 80004ee:	bd80      	pop	{r7, pc}

080004f0 <led3>:

void led3(GPIO_PinState state){
 80004f0:	b580      	push	{r7, lr}
 80004f2:	b082      	sub	sp, #8
 80004f4:	af00      	add	r7, sp, #0
 80004f6:	0002      	movs	r2, r0
 80004f8:	1dfb      	adds	r3, r7, #7
 80004fa:	701a      	strb	r2, [r3, #0]
	HAL_GPIO_WritePin(LED3_GPIO_Port,LED3_Pin,state);
 80004fc:	1dfb      	adds	r3, r7, #7
 80004fe:	781a      	ldrb	r2, [r3, #0]
 8000500:	23a0      	movs	r3, #160	; 0xa0
 8000502:	05db      	lsls	r3, r3, #23
 8000504:	2104      	movs	r1, #4
 8000506:	0018      	movs	r0, r3
 8000508:	f000 fcd4 	bl	8000eb4 <HAL_GPIO_WritePin>
}
 800050c:	46c0      	nop			; (mov r8, r8)
 800050e:	46bd      	mov	sp, r7
 8000510:	b002      	add	sp, #8
 8000512:	bd80      	pop	{r7, pc}

08000514 <led4>:

void led4(GPIO_PinState state){
 8000514:	b580      	push	{r7, lr}
 8000516:	b082      	sub	sp, #8
 8000518:	af00      	add	r7, sp, #0
 800051a:	0002      	movs	r2, r0
 800051c:	1dfb      	adds	r3, r7, #7
 800051e:	701a      	strb	r2, [r3, #0]
	HAL_GPIO_WritePin(LED4_GPIO_Port,LED4_Pin,state);
 8000520:	1dfb      	adds	r3, r7, #7
 8000522:	781a      	ldrb	r2, [r3, #0]
 8000524:	23a0      	movs	r3, #160	; 0xa0
 8000526:	05db      	lsls	r3, r3, #23
 8000528:	2102      	movs	r1, #2
 800052a:	0018      	movs	r0, r3
 800052c:	f000 fcc2 	bl	8000eb4 <HAL_GPIO_WritePin>
}
 8000530:	46c0      	nop			; (mov r8, r8)
 8000532:	46bd      	mov	sp, r7
 8000534:	b002      	add	sp, #8
 8000536:	bd80      	pop	{r7, pc}

08000538 <led5>:

void led5(GPIO_PinState state){
 8000538:	b580      	push	{r7, lr}
 800053a:	b082      	sub	sp, #8
 800053c:	af00      	add	r7, sp, #0
 800053e:	0002      	movs	r2, r0
 8000540:	1dfb      	adds	r3, r7, #7
 8000542:	701a      	strb	r2, [r3, #0]
	HAL_GPIO_WritePin(LED5_GPIO_Port,LED5_Pin,state);
 8000544:	1dfb      	adds	r3, r7, #7
 8000546:	781a      	ldrb	r2, [r3, #0]
 8000548:	2380      	movs	r3, #128	; 0x80
 800054a:	0099      	lsls	r1, r3, #2
 800054c:	23a0      	movs	r3, #160	; 0xa0
 800054e:	05db      	lsls	r3, r3, #23
 8000550:	0018      	movs	r0, r3
 8000552:	f000 fcaf 	bl	8000eb4 <HAL_GPIO_WritePin>
}
 8000556:	46c0      	nop			; (mov r8, r8)
 8000558:	46bd      	mov	sp, r7
 800055a:	b002      	add	sp, #8
 800055c:	bd80      	pop	{r7, pc}

0800055e <wheel_cw>:

void wheel_cw(uint32_t delay){
 800055e:	b580      	push	{r7, lr}
 8000560:	b082      	sub	sp, #8
 8000562:	af00      	add	r7, sp, #0
 8000564:	6078      	str	r0, [r7, #4]
	led1(1);
 8000566:	2001      	movs	r0, #1
 8000568:	f7ff ff9e 	bl	80004a8 <led1>
	HAL_Delay(delay);
 800056c:	687b      	ldr	r3, [r7, #4]
 800056e:	0018      	movs	r0, r3
 8000570:	f000 fa68 	bl	8000a44 <HAL_Delay>
	led2(1);
 8000574:	2001      	movs	r0, #1
 8000576:	f7ff ffa9 	bl	80004cc <led2>
	HAL_Delay(delay);
 800057a:	687b      	ldr	r3, [r7, #4]
 800057c:	0018      	movs	r0, r3
 800057e:	f000 fa61 	bl	8000a44 <HAL_Delay>
	led3(1);
 8000582:	2001      	movs	r0, #1
 8000584:	f7ff ffb4 	bl	80004f0 <led3>
	HAL_Delay(delay);
 8000588:	687b      	ldr	r3, [r7, #4]
 800058a:	0018      	movs	r0, r3
 800058c:	f000 fa5a 	bl	8000a44 <HAL_Delay>
	led4(1);
 8000590:	2001      	movs	r0, #1
 8000592:	f7ff ffbf 	bl	8000514 <led4>
	HAL_Delay(delay);
 8000596:	687b      	ldr	r3, [r7, #4]
 8000598:	0018      	movs	r0, r3
 800059a:	f000 fa53 	bl	8000a44 <HAL_Delay>
	led5(1);
 800059e:	2001      	movs	r0, #1
 80005a0:	f7ff ffca 	bl	8000538 <led5>
	HAL_Delay(delay);
 80005a4:	687b      	ldr	r3, [r7, #4]
 80005a6:	0018      	movs	r0, r3
 80005a8:	f000 fa4c 	bl	8000a44 <HAL_Delay>
	led1(0);
 80005ac:	2000      	movs	r0, #0
 80005ae:	f7ff ff7b 	bl	80004a8 <led1>
	HAL_Delay(delay);
 80005b2:	687b      	ldr	r3, [r7, #4]
 80005b4:	0018      	movs	r0, r3
 80005b6:	f000 fa45 	bl	8000a44 <HAL_Delay>
	led2(0);
 80005ba:	2000      	movs	r0, #0
 80005bc:	f7ff ff86 	bl	80004cc <led2>
	HAL_Delay(delay);
 80005c0:	687b      	ldr	r3, [r7, #4]
 80005c2:	0018      	movs	r0, r3
 80005c4:	f000 fa3e 	bl	8000a44 <HAL_Delay>
	led3(0);
 80005c8:	2000      	movs	r0, #0
 80005ca:	f7ff ff91 	bl	80004f0 <led3>
	HAL_Delay(delay);
 80005ce:	687b      	ldr	r3, [r7, #4]
 80005d0:	0018      	movs	r0, r3
 80005d2:	f000 fa37 	bl	8000a44 <HAL_Delay>
	led4(0);
 80005d6:	2000      	movs	r0, #0
 80005d8:	f7ff ff9c 	bl	8000514 <led4>
	HAL_Delay(delay);
 80005dc:	687b      	ldr	r3, [r7, #4]
 80005de:	0018      	movs	r0, r3
 80005e0:	f000 fa30 	bl	8000a44 <HAL_Delay>
	led5(0);
 80005e4:	2000      	movs	r0, #0
 80005e6:	f7ff ffa7 	bl	8000538 <led5>
	HAL_Delay(delay);
 80005ea:	687b      	ldr	r3, [r7, #4]
 80005ec:	0018      	movs	r0, r3
 80005ee:	f000 fa29 	bl	8000a44 <HAL_Delay>
}
 80005f2:	46c0      	nop			; (mov r8, r8)
 80005f4:	46bd      	mov	sp, r7
 80005f6:	b002      	add	sp, #8
 80005f8:	bd80      	pop	{r7, pc}

080005fa <half_wheel_cw>:

void half_wheel_cw(uint32_t delay){
 80005fa:	b580      	push	{r7, lr}
 80005fc:	b082      	sub	sp, #8
 80005fe:	af00      	add	r7, sp, #0
 8000600:	6078      	str	r0, [r7, #4]
	led1(1);
 8000602:	2001      	movs	r0, #1
 8000604:	f7ff ff50 	bl	80004a8 <led1>
	HAL_Delay(delay);
 8000608:	687b      	ldr	r3, [r7, #4]
 800060a:	0018      	movs	r0, r3
 800060c:	f000 fa1a 	bl	8000a44 <HAL_Delay>
	led2(1);
 8000610:	2001      	movs	r0, #1
 8000612:	f7ff ff5b 	bl	80004cc <led2>
	HAL_Delay(delay);
 8000616:	687b      	ldr	r3, [r7, #4]
 8000618:	0018      	movs	r0, r3
 800061a:	f000 fa13 	bl	8000a44 <HAL_Delay>
	led3(1);
 800061e:	2001      	movs	r0, #1
 8000620:	f7ff ff66 	bl	80004f0 <led3>
	HAL_Delay(delay);
 8000624:	687b      	ldr	r3, [r7, #4]
 8000626:	0018      	movs	r0, r3
 8000628:	f000 fa0c 	bl	8000a44 <HAL_Delay>
	led4(1);
 800062c:	2001      	movs	r0, #1
 800062e:	f7ff ff71 	bl	8000514 <led4>
	HAL_Delay(delay);
 8000632:	687b      	ldr	r3, [r7, #4]
 8000634:	0018      	movs	r0, r3
 8000636:	f000 fa05 	bl	8000a44 <HAL_Delay>
	led5(1);
 800063a:	2001      	movs	r0, #1
 800063c:	f7ff ff7c 	bl	8000538 <led5>
	HAL_Delay(delay);
 8000640:	687b      	ldr	r3, [r7, #4]
 8000642:	0018      	movs	r0, r3
 8000644:	f000 f9fe 	bl	8000a44 <HAL_Delay>
}
 8000648:	46c0      	nop			; (mov r8, r8)
 800064a:	46bd      	mov	sp, r7
 800064c:	b002      	add	sp, #8
 800064e:	bd80      	pop	{r7, pc}

08000650 <wheel_ccw>:

void wheel_ccw(uint32_t delay){
 8000650:	b580      	push	{r7, lr}
 8000652:	b082      	sub	sp, #8
 8000654:	af00      	add	r7, sp, #0
 8000656:	6078      	str	r0, [r7, #4]
	led5(1);
 8000658:	2001      	movs	r0, #1
 800065a:	f7ff ff6d 	bl	8000538 <led5>
	HAL_Delay(delay);
 800065e:	687b      	ldr	r3, [r7, #4]
 8000660:	0018      	movs	r0, r3
 8000662:	f000 f9ef 	bl	8000a44 <HAL_Delay>
	led4(1);
 8000666:	2001      	movs	r0, #1
 8000668:	f7ff ff54 	bl	8000514 <led4>
	HAL_Delay(delay);
 800066c:	687b      	ldr	r3, [r7, #4]
 800066e:	0018      	movs	r0, r3
 8000670:	f000 f9e8 	bl	8000a44 <HAL_Delay>
	led3(1);
 8000674:	2001      	movs	r0, #1
 8000676:	f7ff ff3b 	bl	80004f0 <led3>
	HAL_Delay(delay);
 800067a:	687b      	ldr	r3, [r7, #4]
 800067c:	0018      	movs	r0, r3
 800067e:	f000 f9e1 	bl	8000a44 <HAL_Delay>
	led2(1);
 8000682:	2001      	movs	r0, #1
 8000684:	f7ff ff22 	bl	80004cc <led2>
	HAL_Delay(delay);
 8000688:	687b      	ldr	r3, [r7, #4]
 800068a:	0018      	movs	r0, r3
 800068c:	f000 f9da 	bl	8000a44 <HAL_Delay>
	led1(1);
 8000690:	2001      	movs	r0, #1
 8000692:	f7ff ff09 	bl	80004a8 <led1>
	HAL_Delay(delay);
 8000696:	687b      	ldr	r3, [r7, #4]
 8000698:	0018      	movs	r0, r3
 800069a:	f000 f9d3 	bl	8000a44 <HAL_Delay>
	led5(0);
 800069e:	2000      	movs	r0, #0
 80006a0:	f7ff ff4a 	bl	8000538 <led5>
	HAL_Delay(delay);
 80006a4:	687b      	ldr	r3, [r7, #4]
 80006a6:	0018      	movs	r0, r3
 80006a8:	f000 f9cc 	bl	8000a44 <HAL_Delay>
	led4(0);
 80006ac:	2000      	movs	r0, #0
 80006ae:	f7ff ff31 	bl	8000514 <led4>
	HAL_Delay(delay);
 80006b2:	687b      	ldr	r3, [r7, #4]
 80006b4:	0018      	movs	r0, r3
 80006b6:	f000 f9c5 	bl	8000a44 <HAL_Delay>
	led3(0);
 80006ba:	2000      	movs	r0, #0
 80006bc:	f7ff ff18 	bl	80004f0 <led3>
	HAL_Delay(delay);
 80006c0:	687b      	ldr	r3, [r7, #4]
 80006c2:	0018      	movs	r0, r3
 80006c4:	f000 f9be 	bl	8000a44 <HAL_Delay>
	led2(0);
 80006c8:	2000      	movs	r0, #0
 80006ca:	f7ff feff 	bl	80004cc <led2>
	HAL_Delay(delay);
 80006ce:	687b      	ldr	r3, [r7, #4]
 80006d0:	0018      	movs	r0, r3
 80006d2:	f000 f9b7 	bl	8000a44 <HAL_Delay>
	led1(0);
 80006d6:	2000      	movs	r0, #0
 80006d8:	f7ff fee6 	bl	80004a8 <led1>
	HAL_Delay(delay);
 80006dc:	687b      	ldr	r3, [r7, #4]
 80006de:	0018      	movs	r0, r3
 80006e0:	f000 f9b0 	bl	8000a44 <HAL_Delay>
}
 80006e4:	46c0      	nop			; (mov r8, r8)
 80006e6:	46bd      	mov	sp, r7
 80006e8:	b002      	add	sp, #8
 80006ea:	bd80      	pop	{r7, pc}

080006ec <half_wheel_ccw>:

void half_wheel_ccw(uint32_t delay){
 80006ec:	b580      	push	{r7, lr}
 80006ee:	b082      	sub	sp, #8
 80006f0:	af00      	add	r7, sp, #0
 80006f2:	6078      	str	r0, [r7, #4]
	led5(1);
 80006f4:	2001      	movs	r0, #1
 80006f6:	f7ff ff1f 	bl	8000538 <led5>
	HAL_Delay(delay);
 80006fa:	687b      	ldr	r3, [r7, #4]
 80006fc:	0018      	movs	r0, r3
 80006fe:	f000 f9a1 	bl	8000a44 <HAL_Delay>
	led4(1);
 8000702:	2001      	movs	r0, #1
 8000704:	f7ff ff06 	bl	8000514 <led4>
	HAL_Delay(delay);
 8000708:	687b      	ldr	r3, [r7, #4]
 800070a:	0018      	movs	r0, r3
 800070c:	f000 f99a 	bl	8000a44 <HAL_Delay>
	led3(1);
 8000710:	2001      	movs	r0, #1
 8000712:	f7ff feed 	bl	80004f0 <led3>
	HAL_Delay(delay);
 8000716:	687b      	ldr	r3, [r7, #4]
 8000718:	0018      	movs	r0, r3
 800071a:	f000 f993 	bl	8000a44 <HAL_Delay>
	led2(1);
 800071e:	2001      	movs	r0, #1
 8000720:	f7ff fed4 	bl	80004cc <led2>
	HAL_Delay(delay);
 8000724:	687b      	ldr	r3, [r7, #4]
 8000726:	0018      	movs	r0, r3
 8000728:	f000 f98c 	bl	8000a44 <HAL_Delay>
	led1(1);
 800072c:	2001      	movs	r0, #1
 800072e:	f7ff febb 	bl	80004a8 <led1>
	HAL_Delay(delay);
 8000732:	687b      	ldr	r3, [r7, #4]
 8000734:	0018      	movs	r0, r3
 8000736:	f000 f985 	bl	8000a44 <HAL_Delay>
}
 800073a:	46c0      	nop			; (mov r8, r8)
 800073c:	46bd      	mov	sp, r7
 800073e:	b002      	add	sp, #8
 8000740:	bd80      	pop	{r7, pc}

08000742 <onoff>:

void onoff(uint32_t delay) {
 8000742:	b580      	push	{r7, lr}
 8000744:	b082      	sub	sp, #8
 8000746:	af00      	add	r7, sp, #0
 8000748:	6078      	str	r0, [r7, #4]
	HAL_Delay(delay);
 800074a:	687b      	ldr	r3, [r7, #4]
 800074c:	0018      	movs	r0, r3
 800074e:	f000 f979 	bl	8000a44 <HAL_Delay>
	led1(1);
 8000752:	2001      	movs	r0, #1
 8000754:	f7ff fea8 	bl	80004a8 <led1>
	led2(1);
 8000758:	2001      	movs	r0, #1
 800075a:	f7ff feb7 	bl	80004cc <led2>
	led3(1);
 800075e:	2001      	movs	r0, #1
 8000760:	f7ff fec6 	bl	80004f0 <led3>
	led4(1);
 8000764:	2001      	movs	r0, #1
 8000766:	f7ff fed5 	bl	8000514 <led4>
	led5(1);
 800076a:	2001      	movs	r0, #1
 800076c:	f7ff fee4 	bl	8000538 <led5>
	HAL_Delay(delay);
 8000770:	687b      	ldr	r3, [r7, #4]
 8000772:	0018      	movs	r0, r3
 8000774:	f000 f966 	bl	8000a44 <HAL_Delay>
	led1(0);
 8000778:	2000      	movs	r0, #0
 800077a:	f7ff fe95 	bl	80004a8 <led1>
	led2(0);
 800077e:	2000      	movs	r0, #0
 8000780:	f7ff fea4 	bl	80004cc <led2>
	led3(0);
 8000784:	2000      	movs	r0, #0
 8000786:	f7ff feb3 	bl	80004f0 <led3>
	led4(0);
 800078a:	2000      	movs	r0, #0
 800078c:	f7ff fec2 	bl	8000514 <led4>
	led5(0);
 8000790:	2000      	movs	r0, #0
 8000792:	f7ff fed1 	bl	8000538 <led5>
}
 8000796:	46c0      	nop			; (mov r8, r8)
 8000798:	46bd      	mov	sp, r7
 800079a:	b002      	add	sp, #8
 800079c:	bd80      	pop	{r7, pc}

0800079e <delay_onoff>:

void delay_onoff(uint32_t delay){
 800079e:	b580      	push	{r7, lr}
 80007a0:	b082      	sub	sp, #8
 80007a2:	af00      	add	r7, sp, #0
 80007a4:	6078      	str	r0, [r7, #4]
	HAL_Delay(delay);
 80007a6:	687b      	ldr	r3, [r7, #4]
 80007a8:	0018      	movs	r0, r3
 80007aa:	f000 f94b 	bl	8000a44 <HAL_Delay>
	led1(0);
 80007ae:	2000      	movs	r0, #0
 80007b0:	f7ff fe7a 	bl	80004a8 <led1>
	led2(0);
 80007b4:	2000      	movs	r0, #0
 80007b6:	f7ff fe89 	bl	80004cc <led2>
	led3(0);
 80007ba:	2000      	movs	r0, #0
 80007bc:	f7ff fe98 	bl	80004f0 <led3>
	led4(0);
 80007c0:	2000      	movs	r0, #0
 80007c2:	f7ff fea7 	bl	8000514 <led4>
	led5(0);
 80007c6:	2000      	movs	r0, #0
 80007c8:	f7ff feb6 	bl	8000538 <led5>
}
 80007cc:	46c0      	nop			; (mov r8, r8)
 80007ce:	46bd      	mov	sp, r7
 80007d0:	b002      	add	sp, #8
 80007d2:	bd80      	pop	{r7, pc}

080007d4 <go_to_sleep>:

void go_to_sleep(){
 80007d4:	b580      	push	{r7, lr}
 80007d6:	af00      	add	r7, sp, #0
	HAL_PWREx_EnableUltraLowPower();
 80007d8:	f000 fbd0 	bl	8000f7c <HAL_PWREx_EnableUltraLowPower>
	HAL_PWREx_EnableFastWakeUp();
 80007dc:	f000 fbc0 	bl	8000f60 <HAL_PWREx_EnableFastWakeUp>
	__HAL_PWR_CLEAR_FLAG(PWR_FLAG_SB);
 80007e0:	4b0d      	ldr	r3, [pc, #52]	; (8000818 <go_to_sleep+0x44>)
 80007e2:	681a      	ldr	r2, [r3, #0]
 80007e4:	4b0c      	ldr	r3, [pc, #48]	; (8000818 <go_to_sleep+0x44>)
 80007e6:	2108      	movs	r1, #8
 80007e8:	430a      	orrs	r2, r1
 80007ea:	601a      	str	r2, [r3, #0]
	HAL_PWR_DisableWakeUpPin(PWR_WAKEUP_PIN1);
 80007ec:	2380      	movs	r3, #128	; 0x80
 80007ee:	005b      	lsls	r3, r3, #1
 80007f0:	0018      	movs	r0, r3
 80007f2:	f000 fb8d 	bl	8000f10 <HAL_PWR_DisableWakeUpPin>
	__HAL_PWR_CLEAR_FLAG(PWR_FLAG_WU);
 80007f6:	4b08      	ldr	r3, [pc, #32]	; (8000818 <go_to_sleep+0x44>)
 80007f8:	681a      	ldr	r2, [r3, #0]
 80007fa:	4b07      	ldr	r3, [pc, #28]	; (8000818 <go_to_sleep+0x44>)
 80007fc:	2104      	movs	r1, #4
 80007fe:	430a      	orrs	r2, r1
 8000800:	601a      	str	r2, [r3, #0]
	HAL_PWR_EnableWakeUpPin(PWR_WAKEUP_PIN1);
 8000802:	2380      	movs	r3, #128	; 0x80
 8000804:	005b      	lsls	r3, r3, #1
 8000806:	0018      	movs	r0, r3
 8000808:	f000 fb72 	bl	8000ef0 <HAL_PWR_EnableWakeUpPin>
	HAL_PWR_EnterSTANDBYMode();
 800080c:	f000 fb92 	bl	8000f34 <HAL_PWR_EnterSTANDBYMode>
}
 8000810:	46c0      	nop			; (mov r8, r8)
 8000812:	46bd      	mov	sp, r7
 8000814:	bd80      	pop	{r7, pc}
 8000816:	46c0      	nop			; (mov r8, r8)
 8000818:	40007000 	.word	0x40007000

0800081c <Error_Handler>:
/**
  * @brief  This function is executed in case of error occurrence.
  * @retval None
  */
void Error_Handler(void)
{
 800081c:	b580      	push	{r7, lr}
 800081e:	af00      	add	r7, sp, #0
  /* USER CODE BEGIN Error_Handler_Debug */
  /* User can add his own implementation to report the HAL error return state */

  /* USER CODE END Error_Handler_Debug */
}
 8000820:	46c0      	nop			; (mov r8, r8)
 8000822:	46bd      	mov	sp, r7
 8000824:	bd80      	pop	{r7, pc}
	...

08000828 <HAL_MspInit>:
/* USER CODE END 0 */
/**
  * Initializes the Global MSP.
  */
void HAL_MspInit(void)
{
 8000828:	b580      	push	{r7, lr}
 800082a:	af00      	add	r7, sp, #0
  /* USER CODE BEGIN MspInit 0 */

  /* USER CODE END MspInit 0 */

  __HAL_RCC_SYSCFG_CLK_ENABLE();
 800082c:	4b07      	ldr	r3, [pc, #28]	; (800084c <HAL_MspInit+0x24>)
 800082e:	6b5a      	ldr	r2, [r3, #52]	; 0x34
 8000830:	4b06      	ldr	r3, [pc, #24]	; (800084c <HAL_MspInit+0x24>)
 8000832:	2101      	movs	r1, #1
 8000834:	430a      	orrs	r2, r1
 8000836:	635a      	str	r2, [r3, #52]	; 0x34
  __HAL_RCC_PWR_CLK_ENABLE();
 8000838:	4b04      	ldr	r3, [pc, #16]	; (800084c <HAL_MspInit+0x24>)
 800083a:	6b9a      	ldr	r2, [r3, #56]	; 0x38
 800083c:	4b03      	ldr	r3, [pc, #12]	; (800084c <HAL_MspInit+0x24>)
 800083e:	2180      	movs	r1, #128	; 0x80
 8000840:	0549      	lsls	r1, r1, #21
 8000842:	430a      	orrs	r2, r1
 8000844:	639a      	str	r2, [r3, #56]	; 0x38
  /* System interrupt init*/

  /* USER CODE BEGIN MspInit 1 */

  /* USER CODE END MspInit 1 */
}
 8000846:	46c0      	nop			; (mov r8, r8)
 8000848:	46bd      	mov	sp, r7
 800084a:	bd80      	pop	{r7, pc}
 800084c:	40021000 	.word	0x40021000

08000850 <NMI_Handler>:
/******************************************************************************/
/**
  * @brief This function handles Non maskable interrupt.
  */
void NMI_Handler(void)
{
 8000850:	b580      	push	{r7, lr}
 8000852:	af00      	add	r7, sp, #0

  /* USER CODE END NonMaskableInt_IRQn 0 */
  /* USER CODE BEGIN NonMaskableInt_IRQn 1 */

  /* USER CODE END NonMaskableInt_IRQn 1 */
}
 8000854:	46c0      	nop			; (mov r8, r8)
 8000856:	46bd      	mov	sp, r7
 8000858:	bd80      	pop	{r7, pc}

0800085a <HardFault_Handler>:

/**
  * @brief This function handles Hard fault interrupt.
  */
void HardFault_Handler(void)
{
 800085a:	b580      	push	{r7, lr}
 800085c:	af00      	add	r7, sp, #0
  /* USER CODE BEGIN HardFault_IRQn 0 */

  /* USER CODE END HardFault_IRQn 0 */
  while (1)
 800085e:	e7fe      	b.n	800085e <HardFault_Handler+0x4>

08000860 <SVC_Handler>:

/**
  * @brief This function handles System service call via SWI instruction.
  */
void SVC_Handler(void)
{
 8000860:	b580      	push	{r7, lr}
 8000862:	af00      	add	r7, sp, #0

  /* USER CODE END SVC_IRQn 0 */
  /* USER CODE BEGIN SVC_IRQn 1 */

  /* USER CODE END SVC_IRQn 1 */
}
 8000864:	46c0      	nop			; (mov r8, r8)
 8000866:	46bd      	mov	sp, r7
 8000868:	bd80      	pop	{r7, pc}

0800086a <PendSV_Handler>:

/**
  * @brief This function handles Pendable request for system service.
  */
void PendSV_Handler(void)
{
 800086a:	b580      	push	{r7, lr}
 800086c:	af00      	add	r7, sp, #0

  /* USER CODE END PendSV_IRQn 0 */
  /* USER CODE BEGIN PendSV_IRQn 1 */

  /* USER CODE END PendSV_IRQn 1 */
}
 800086e:	46c0      	nop			; (mov r8, r8)
 8000870:	46bd      	mov	sp, r7
 8000872:	bd80      	pop	{r7, pc}

08000874 <SysTick_Handler>:

/**
  * @brief This function handles System tick timer.
  */
void SysTick_Handler(void)
{
 8000874:	b580      	push	{r7, lr}
 8000876:	af00      	add	r7, sp, #0
  /* USER CODE BEGIN SysTick_IRQn 0 */

  /* USER CODE END SysTick_IRQn 0 */
  HAL_IncTick();
 8000878:	f000 f8ce 	bl	8000a18 <HAL_IncTick>
  /* USER CODE BEGIN SysTick_IRQn 1 */

  /* USER CODE END SysTick_IRQn 1 */
}
 800087c:	46c0      	nop			; (mov r8, r8)
 800087e:	46bd      	mov	sp, r7
 8000880:	bd80      	pop	{r7, pc}
	...

08000884 <SystemInit>:
  * @brief  Setup the microcontroller system.
  * @param  None
  * @retval None
  */
void SystemInit (void)
{
 8000884:	b580      	push	{r7, lr}
 8000886:	af00      	add	r7, sp, #0
/*!< Set MSION bit */
  RCC->CR |= (uint32_t)0x00000100U;
 8000888:	4b17      	ldr	r3, [pc, #92]	; (80008e8 <SystemInit+0x64>)
 800088a:	681a      	ldr	r2, [r3, #0]
 800088c:	4b16      	ldr	r3, [pc, #88]	; (80008e8 <SystemInit+0x64>)
 800088e:	2180      	movs	r1, #128	; 0x80
 8000890:	0049      	lsls	r1, r1, #1
 8000892:	430a      	orrs	r2, r1
 8000894:	601a      	str	r2, [r3, #0]

  /*!< Reset SW[1:0], HPRE[3:0], PPRE1[2:0], PPRE2[2:0], MCOSEL[2:0] and MCOPRE[2:0] bits */
  RCC->CFGR &= (uint32_t) 0x88FF400CU;
 8000896:	4b14      	ldr	r3, [pc, #80]	; (80008e8 <SystemInit+0x64>)
 8000898:	68da      	ldr	r2, [r3, #12]
 800089a:	4b13      	ldr	r3, [pc, #76]	; (80008e8 <SystemInit+0x64>)
 800089c:	4913      	ldr	r1, [pc, #76]	; (80008ec <SystemInit+0x68>)
 800089e:	400a      	ands	r2, r1
 80008a0:	60da      	str	r2, [r3, #12]

  /*!< Reset HSION, HSIDIVEN, HSEON, CSSON and PLLON bits */
  RCC->CR &= (uint32_t)0xFEF6FFF6U;
 80008a2:	4b11      	ldr	r3, [pc, #68]	; (80008e8 <SystemInit+0x64>)
 80008a4:	681a      	ldr	r2, [r3, #0]
 80008a6:	4b10      	ldr	r3, [pc, #64]	; (80008e8 <SystemInit+0x64>)
 80008a8:	4911      	ldr	r1, [pc, #68]	; (80008f0 <SystemInit+0x6c>)
 80008aa:	400a      	ands	r2, r1
 80008ac:	601a      	str	r2, [r3, #0]

  /*!< Reset HSI48ON  bit */
  RCC->CRRCR &= (uint32_t)0xFFFFFFFEU;
 80008ae:	4b0e      	ldr	r3, [pc, #56]	; (80008e8 <SystemInit+0x64>)
 80008b0:	689a      	ldr	r2, [r3, #8]
 80008b2:	4b0d      	ldr	r3, [pc, #52]	; (80008e8 <SystemInit+0x64>)
 80008b4:	2101      	movs	r1, #1
 80008b6:	438a      	bics	r2, r1
 80008b8:	609a      	str	r2, [r3, #8]

  /*!< Reset HSEBYP bit */
  RCC->CR &= (uint32_t)0xFFFBFFFFU;
 80008ba:	4b0b      	ldr	r3, [pc, #44]	; (80008e8 <SystemInit+0x64>)
 80008bc:	681a      	ldr	r2, [r3, #0]
 80008be:	4b0a      	ldr	r3, [pc, #40]	; (80008e8 <SystemInit+0x64>)
 80008c0:	490c      	ldr	r1, [pc, #48]	; (80008f4 <SystemInit+0x70>)
 80008c2:	400a      	ands	r2, r1
 80008c4:	601a      	str	r2, [r3, #0]

  /*!< Reset PLLSRC, PLLMUL[3:0] and PLLDIV[1:0] bits */
  RCC->CFGR &= (uint32_t)0xFF02FFFFU;
 80008c6:	4b08      	ldr	r3, [pc, #32]	; (80008e8 <SystemInit+0x64>)
 80008c8:	68da      	ldr	r2, [r3, #12]
 80008ca:	4b07      	ldr	r3, [pc, #28]	; (80008e8 <SystemInit+0x64>)
 80008cc:	490a      	ldr	r1, [pc, #40]	; (80008f8 <SystemInit+0x74>)
 80008ce:	400a      	ands	r2, r1
 80008d0:	60da      	str	r2, [r3, #12]

  /*!< Disable all interrupts */
  RCC->CIER = 0x00000000U;
 80008d2:	4b05      	ldr	r3, [pc, #20]	; (80008e8 <SystemInit+0x64>)
 80008d4:	2200      	movs	r2, #0
 80008d6:	611a      	str	r2, [r3, #16]

  /* Configure the Vector Table location add offset address ------------------*/
#ifdef VECT_TAB_SRAM
  SCB->VTOR = SRAM_BASE | VECT_TAB_OFFSET; /* Vector Table Relocation in Internal SRAM */
#else
  SCB->VTOR = FLASH_BASE | VECT_TAB_OFFSET; /* Vector Table Relocation in Internal FLASH */
 80008d8:	4b08      	ldr	r3, [pc, #32]	; (80008fc <SystemInit+0x78>)
 80008da:	2280      	movs	r2, #128	; 0x80
 80008dc:	0512      	lsls	r2, r2, #20
 80008de:	609a      	str	r2, [r3, #8]
#endif
}
 80008e0:	46c0      	nop			; (mov r8, r8)
 80008e2:	46bd      	mov	sp, r7
 80008e4:	bd80      	pop	{r7, pc}
 80008e6:	46c0      	nop			; (mov r8, r8)
 80008e8:	40021000 	.word	0x40021000
 80008ec:	88ff400c 	.word	0x88ff400c
 80008f0:	fef6fff6 	.word	0xfef6fff6
 80008f4:	fffbffff 	.word	0xfffbffff
 80008f8:	ff02ffff 	.word	0xff02ffff
 80008fc:	e000ed00 	.word	0xe000ed00

08000900 <Reset_Handler>:

    .section  .text.Reset_Handler
  .weak  Reset_Handler
  .type  Reset_Handler, %function
Reset_Handler:  
   ldr   r0, =_estack
 8000900:	4813      	ldr	r0, [pc, #76]	; (8000950 <LoopForever+0x2>)
   mov   sp, r0          /* set stack pointer */
 8000902:	4685      	mov	sp, r0

/*Check if boot space corresponds to system memory*/

    LDR R0,=0x00000004
 8000904:	4813      	ldr	r0, [pc, #76]	; (8000954 <LoopForever+0x6>)
    LDR R1, [R0]
 8000906:	6801      	ldr	r1, [r0, #0]
    LSRS R1, R1, #24
 8000908:	0e09      	lsrs	r1, r1, #24
    LDR R2,=0x1F
 800090a:	4a13      	ldr	r2, [pc, #76]	; (8000958 <LoopForever+0xa>)
    CMP R1, R2
 800090c:	4291      	cmp	r1, r2
    BNE ApplicationStart
 800090e:	d105      	bne.n	800091c <ApplicationStart>

 /*SYSCFG clock enable*/
    LDR R0,=0x40021034
 8000910:	4812      	ldr	r0, [pc, #72]	; (800095c <LoopForever+0xe>)
    LDR R1,=0x00000001
 8000912:	4913      	ldr	r1, [pc, #76]	; (8000960 <LoopForever+0x12>)
    STR R1, [R0]
 8000914:	6001      	str	r1, [r0, #0]

/*Set CFGR1 register with flash memory remap at address 0*/
    LDR R0,=0x40010000
 8000916:	4813      	ldr	r0, [pc, #76]	; (8000964 <LoopForever+0x16>)
    LDR R1,=0x00000000
 8000918:	4913      	ldr	r1, [pc, #76]	; (8000968 <LoopForever+0x1a>)
    STR R1, [R0]
 800091a:	6001      	str	r1, [r0, #0]

0800091c <ApplicationStart>:

ApplicationStart:
/* Copy the data segment initializers from flash to SRAM */
  movs  r1, #0
 800091c:	2100      	movs	r1, #0
  b  LoopCopyDataInit
 800091e:	e003      	b.n	8000928 <LoopCopyDataInit>

08000920 <CopyDataInit>:

CopyDataInit:
  ldr  r3, =_sidata
 8000920:	4b12      	ldr	r3, [pc, #72]	; (800096c <LoopForever+0x1e>)
  ldr  r3, [r3, r1]
 8000922:	585b      	ldr	r3, [r3, r1]
  str  r3, [r0, r1]
 8000924:	5043      	str	r3, [r0, r1]
  adds  r1, r1, #4
 8000926:	3104      	adds	r1, #4

08000928 <LoopCopyDataInit>:

LoopCopyDataInit:
  ldr  r0, =_sdata
 8000928:	4811      	ldr	r0, [pc, #68]	; (8000970 <LoopForever+0x22>)
  ldr  r3, =_edata
 800092a:	4b12      	ldr	r3, [pc, #72]	; (8000974 <LoopForever+0x26>)
  adds  r2, r0, r1
 800092c:	1842      	adds	r2, r0, r1
  cmp  r2, r3
 800092e:	429a      	cmp	r2, r3
  bcc  CopyDataInit
 8000930:	d3f6      	bcc.n	8000920 <CopyDataInit>
  ldr  r2, =_sbss
 8000932:	4a11      	ldr	r2, [pc, #68]	; (8000978 <LoopForever+0x2a>)
  b  LoopFillZerobss
 8000934:	e002      	b.n	800093c <LoopFillZerobss>

08000936 <FillZerobss>:
/* Zero fill the bss segment. */
FillZerobss:
  movs  r3, #0
 8000936:	2300      	movs	r3, #0
  str  r3, [r2]
 8000938:	6013      	str	r3, [r2, #0]
  adds r2, r2, #4
 800093a:	3204      	adds	r2, #4

0800093c <LoopFillZerobss>:


LoopFillZerobss:
  ldr  r3, = _ebss
 800093c:	4b0f      	ldr	r3, [pc, #60]	; (800097c <LoopForever+0x2e>)
  cmp  r2, r3
 800093e:	429a      	cmp	r2, r3
  bcc  FillZerobss
 8000940:	d3f9      	bcc.n	8000936 <FillZerobss>

/* Call the clock system intitialization function.*/
  bl  SystemInit
 8000942:	f7ff ff9f 	bl	8000884 <SystemInit>
/* Call static constructors */
    bl __libc_init_array
 8000946:	f001 f84f 	bl	80019e8 <__libc_init_array>
/* Call the application's entry point.*/
  bl  main
 800094a:	f7ff fc69 	bl	8000220 <main>

0800094e <LoopForever>:

LoopForever:
    b LoopForever
 800094e:	e7fe      	b.n	800094e <LoopForever>
   ldr   r0, =_estack
 8000950:	20000800 	.word	0x20000800
    LDR R0,=0x00000004
 8000954:	00000004 	.word	0x00000004
    LDR R2,=0x1F
 8000958:	0000001f 	.word	0x0000001f
    LDR R0,=0x40021034
 800095c:	40021034 	.word	0x40021034
    LDR R1,=0x00000001
 8000960:	00000001 	.word	0x00000001
    LDR R0,=0x40010000
 8000964:	40010000 	.word	0x40010000
    LDR R1,=0x00000000
 8000968:	00000000 	.word	0x00000000
  ldr  r3, =_sidata
 800096c:	08001a7c 	.word	0x08001a7c
  ldr  r0, =_sdata
 8000970:	20000000 	.word	0x20000000
  ldr  r3, =_edata
 8000974:	20000004 	.word	0x20000004
  ldr  r2, =_sbss
 8000978:	20000004 	.word	0x20000004
  ldr  r3, = _ebss
 800097c:	20000024 	.word	0x20000024

08000980 <ADC1_COMP_IRQHandler>:
 * @retval : None
*/
    .section  .text.Default_Handler,"ax",%progbits
Default_Handler:
Infinite_Loop:
  b  Infinite_Loop
 8000980:	e7fe      	b.n	8000980 <ADC1_COMP_IRQHandler>
	...

08000984 <HAL_Init>:
  *        In the default implementation,Systick is used as source of time base.
  *        the tick variable is incremented each 1ms in its ISR.
  * @retval HAL status
  */
HAL_StatusTypeDef HAL_Init(void)
{
 8000984:	b580      	push	{r7, lr}
 8000986:	b082      	sub	sp, #8
 8000988:	af00      	add	r7, sp, #0
  HAL_StatusTypeDef  status = HAL_OK;
 800098a:	1dfb      	adds	r3, r7, #7
 800098c:	2200      	movs	r2, #0
 800098e:	701a      	strb	r2, [r3, #0]
#if (BUFFER_CACHE_DISABLE != 0)
  __HAL_FLASH_BUFFER_CACHE_DISABLE();
#endif /* BUFFER_CACHE_DISABLE */

#if (PREREAD_ENABLE != 0)
  __HAL_FLASH_PREREAD_BUFFER_ENABLE();
 8000990:	4b0b      	ldr	r3, [pc, #44]	; (80009c0 <HAL_Init+0x3c>)
 8000992:	681a      	ldr	r2, [r3, #0]
 8000994:	4b0a      	ldr	r3, [pc, #40]	; (80009c0 <HAL_Init+0x3c>)
 8000996:	2140      	movs	r1, #64	; 0x40
 8000998:	430a      	orrs	r2, r1
 800099a:	601a      	str	r2, [r3, #0]
#if (PREFETCH_ENABLE != 0)
  __HAL_FLASH_PREFETCH_BUFFER_ENABLE();
#endif /* PREFETCH_ENABLE */

  /* Use SysTick as time base source and configure 1ms tick (default clock after Reset is MSI) */
  if (HAL_InitTick(TICK_INT_PRIORITY) != HAL_OK)
 800099c:	2000      	movs	r0, #0
 800099e:	f000 f811 	bl	80009c4 <HAL_InitTick>
 80009a2:	1e03      	subs	r3, r0, #0
 80009a4:	d003      	beq.n	80009ae <HAL_Init+0x2a>
  {
    status = HAL_ERROR;
 80009a6:	1dfb      	adds	r3, r7, #7
 80009a8:	2201      	movs	r2, #1
 80009aa:	701a      	strb	r2, [r3, #0]
 80009ac:	e001      	b.n	80009b2 <HAL_Init+0x2e>
  }
  else
  {
    /* Init the low level hardware */
    HAL_MspInit();
 80009ae:	f7ff ff3b 	bl	8000828 <HAL_MspInit>
  }

  /* Return function status */
  return status;
 80009b2:	1dfb      	adds	r3, r7, #7
 80009b4:	781b      	ldrb	r3, [r3, #0]
}
 80009b6:	0018      	movs	r0, r3
 80009b8:	46bd      	mov	sp, r7
 80009ba:	b002      	add	sp, #8
 80009bc:	bd80      	pop	{r7, pc}
 80009be:	46c0      	nop			; (mov r8, r8)
 80009c0:	40022000 	.word	0x40022000

080009c4 <HAL_InitTick>:
  *       implementation  in user file.
  * @param TickPriority Tick interrupt priority.
  * @retval HAL status
  */
__weak HAL_StatusTypeDef HAL_InitTick(uint32_t TickPriority)
{
 80009c4:	b580      	push	{r7, lr}
 80009c6:	b084      	sub	sp, #16
 80009c8:	af00      	add	r7, sp, #0
 80009ca:	6078      	str	r0, [r7, #4]
  HAL_StatusTypeDef  status = HAL_OK;
 80009cc:	230f      	movs	r3, #15
 80009ce:	18fb      	adds	r3, r7, r3
 80009d0:	2200      	movs	r2, #0
 80009d2:	701a      	strb	r2, [r3, #0]

  /*Configure the SysTick to have interrupt in 1ms time basis*/
  if (HAL_SYSTICK_Config(SystemCoreClock/1000UL) != 0U)
 80009d4:	4b0f      	ldr	r3, [pc, #60]	; (8000a14 <HAL_InitTick+0x50>)
 80009d6:	681a      	ldr	r2, [r3, #0]
 80009d8:	23fa      	movs	r3, #250	; 0xfa
 80009da:	0099      	lsls	r1, r3, #2
 80009dc:	0010      	movs	r0, r2
 80009de:	f7ff fb93 	bl	8000108 <__udivsi3>
 80009e2:	0003      	movs	r3, r0
 80009e4:	0018      	movs	r0, r3
 80009e6:	f000 f8f2 	bl	8000bce <HAL_SYSTICK_Config>
 80009ea:	1e03      	subs	r3, r0, #0
 80009ec:	d004      	beq.n	80009f8 <HAL_InitTick+0x34>
  {
    status = HAL_ERROR;
 80009ee:	230f      	movs	r3, #15
 80009f0:	18fb      	adds	r3, r7, r3
 80009f2:	2201      	movs	r2, #1
 80009f4:	701a      	strb	r2, [r3, #0]
 80009f6:	e006      	b.n	8000a06 <HAL_InitTick+0x42>
  }
  else
  {
    /*Configure the SysTick IRQ priority */
    HAL_NVIC_SetPriority(SysTick_IRQn, TickPriority, 0);
 80009f8:	6879      	ldr	r1, [r7, #4]
 80009fa:	2301      	movs	r3, #1
 80009fc:	425b      	negs	r3, r3
 80009fe:	2200      	movs	r2, #0
 8000a00:	0018      	movs	r0, r3
 8000a02:	f000 f8cf 	bl	8000ba4 <HAL_NVIC_SetPriority>
  }

  /* Return function status */
  return status;
 8000a06:	230f      	movs	r3, #15
 8000a08:	18fb      	adds	r3, r7, r3
 8000a0a:	781b      	ldrb	r3, [r3, #0]
}
 8000a0c:	0018      	movs	r0, r3
 8000a0e:	46bd      	mov	sp, r7
 8000a10:	b004      	add	sp, #16
 8000a12:	bd80      	pop	{r7, pc}
 8000a14:	20000000 	.word	0x20000000

08000a18 <HAL_IncTick>:
 * @note This function is declared as __weak to be overwritten in case of other
  *      implementations in user file.
  * @retval None
  */
__weak void HAL_IncTick(void)
{
 8000a18:	b580      	push	{r7, lr}
 8000a1a:	af00      	add	r7, sp, #0
  uwTick++;
 8000a1c:	4b03      	ldr	r3, [pc, #12]	; (8000a2c <HAL_IncTick+0x14>)
 8000a1e:	681b      	ldr	r3, [r3, #0]
 8000a20:	1c5a      	adds	r2, r3, #1
 8000a22:	4b02      	ldr	r3, [pc, #8]	; (8000a2c <HAL_IncTick+0x14>)
 8000a24:	601a      	str	r2, [r3, #0]
}
 8000a26:	46c0      	nop			; (mov r8, r8)
 8000a28:	46bd      	mov	sp, r7
 8000a2a:	bd80      	pop	{r7, pc}
 8000a2c:	20000020 	.word	0x20000020

08000a30 <HAL_GetTick>:
  * @note This function is declared as __weak to be overwritten in case of other
  *       implementations in user file.
  * @retval tick value
  */
__weak uint32_t HAL_GetTick(void)
{
 8000a30:	b580      	push	{r7, lr}
 8000a32:	af00      	add	r7, sp, #0
  return uwTick;
 8000a34:	4b02      	ldr	r3, [pc, #8]	; (8000a40 <HAL_GetTick+0x10>)
 8000a36:	681b      	ldr	r3, [r3, #0]
}
 8000a38:	0018      	movs	r0, r3
 8000a3a:	46bd      	mov	sp, r7
 8000a3c:	bd80      	pop	{r7, pc}
 8000a3e:	46c0      	nop			; (mov r8, r8)
 8000a40:	20000020 	.word	0x20000020

08000a44 <HAL_Delay>:
  *       implementations in user file.
  * @param Delay specifies the delay time length, in milliseconds.
  * @retval None
  */
__weak void HAL_Delay(uint32_t Delay)
{
 8000a44:	b580      	push	{r7, lr}
 8000a46:	b084      	sub	sp, #16
 8000a48:	af00      	add	r7, sp, #0
 8000a4a:	6078      	str	r0, [r7, #4]
  uint32_t tickstart = HAL_GetTick();
 8000a4c:	f7ff fff0 	bl	8000a30 <HAL_GetTick>
 8000a50:	0003      	movs	r3, r0
 8000a52:	60bb      	str	r3, [r7, #8]
  uint32_t wait = Delay;
 8000a54:	687b      	ldr	r3, [r7, #4]
 8000a56:	60fb      	str	r3, [r7, #12]

  /* Add a period to guaranty minimum wait */
  if (wait < HAL_MAX_DELAY)
 8000a58:	68fb      	ldr	r3, [r7, #12]
 8000a5a:	3301      	adds	r3, #1
 8000a5c:	d002      	beq.n	8000a64 <HAL_Delay+0x20>
  {
    wait++;
 8000a5e:	68fb      	ldr	r3, [r7, #12]
 8000a60:	3301      	adds	r3, #1
 8000a62:	60fb      	str	r3, [r7, #12]
  }

  while((HAL_GetTick() - tickstart) < wait)
 8000a64:	46c0      	nop			; (mov r8, r8)
 8000a66:	f7ff ffe3 	bl	8000a30 <HAL_GetTick>
 8000a6a:	0002      	movs	r2, r0
 8000a6c:	68bb      	ldr	r3, [r7, #8]
 8000a6e:	1ad3      	subs	r3, r2, r3
 8000a70:	68fa      	ldr	r2, [r7, #12]
 8000a72:	429a      	cmp	r2, r3
 8000a74:	d8f7      	bhi.n	8000a66 <HAL_Delay+0x22>
  {
  }
}
 8000a76:	46c0      	nop			; (mov r8, r8)
 8000a78:	46bd      	mov	sp, r7
 8000a7a:	b004      	add	sp, #16
 8000a7c:	bd80      	pop	{r7, pc}
	...

08000a80 <NVIC_SetPriority>:
  \note    The priority cannot be set for every core interrupt.
  \param [in]      IRQn  Interrupt number.
  \param [in]  priority  Priority to set.
 */
__STATIC_INLINE void NVIC_SetPriority(IRQn_Type IRQn, uint32_t priority)
{
 8000a80:	b590      	push	{r4, r7, lr}
 8000a82:	b083      	sub	sp, #12
 8000a84:	af00      	add	r7, sp, #0
 8000a86:	0002      	movs	r2, r0
 8000a88:	6039      	str	r1, [r7, #0]
 8000a8a:	1dfb      	adds	r3, r7, #7
 8000a8c:	701a      	strb	r2, [r3, #0]
  if ((int32_t)(IRQn) < 0)
 8000a8e:	1dfb      	adds	r3, r7, #7
 8000a90:	781b      	ldrb	r3, [r3, #0]
 8000a92:	2b7f      	cmp	r3, #127	; 0x7f
 8000a94:	d932      	bls.n	8000afc <NVIC_SetPriority+0x7c>
  {
    SCB->SHP[_SHP_IDX(IRQn)] = ((uint32_t)(SCB->SHP[_SHP_IDX(IRQn)] & ~(0xFFUL << _BIT_SHIFT(IRQn))) |
 8000a96:	4a2f      	ldr	r2, [pc, #188]	; (8000b54 <NVIC_SetPriority+0xd4>)
 8000a98:	1dfb      	adds	r3, r7, #7
 8000a9a:	781b      	ldrb	r3, [r3, #0]
 8000a9c:	0019      	movs	r1, r3
 8000a9e:	230f      	movs	r3, #15
 8000aa0:	400b      	ands	r3, r1
 8000aa2:	3b08      	subs	r3, #8
 8000aa4:	089b      	lsrs	r3, r3, #2
 8000aa6:	3306      	adds	r3, #6
 8000aa8:	009b      	lsls	r3, r3, #2
 8000aaa:	18d3      	adds	r3, r2, r3
 8000aac:	3304      	adds	r3, #4
 8000aae:	681b      	ldr	r3, [r3, #0]
 8000ab0:	1dfa      	adds	r2, r7, #7
 8000ab2:	7812      	ldrb	r2, [r2, #0]
 8000ab4:	0011      	movs	r1, r2
 8000ab6:	2203      	movs	r2, #3
 8000ab8:	400a      	ands	r2, r1
 8000aba:	00d2      	lsls	r2, r2, #3
 8000abc:	21ff      	movs	r1, #255	; 0xff
 8000abe:	4091      	lsls	r1, r2
 8000ac0:	000a      	movs	r2, r1
 8000ac2:	43d2      	mvns	r2, r2
 8000ac4:	401a      	ands	r2, r3
 8000ac6:	0011      	movs	r1, r2
       (((priority << (8U - __NVIC_PRIO_BITS)) & (uint32_t)0xFFUL) << _BIT_SHIFT(IRQn)));
 8000ac8:	683b      	ldr	r3, [r7, #0]
 8000aca:	019b      	lsls	r3, r3, #6
 8000acc:	22ff      	movs	r2, #255	; 0xff
 8000ace:	401a      	ands	r2, r3
 8000ad0:	1dfb      	adds	r3, r7, #7
 8000ad2:	781b      	ldrb	r3, [r3, #0]
 8000ad4:	0018      	movs	r0, r3
 8000ad6:	2303      	movs	r3, #3
 8000ad8:	4003      	ands	r3, r0
 8000ada:	00db      	lsls	r3, r3, #3
 8000adc:	409a      	lsls	r2, r3
    SCB->SHP[_SHP_IDX(IRQn)] = ((uint32_t)(SCB->SHP[_SHP_IDX(IRQn)] & ~(0xFFUL << _BIT_SHIFT(IRQn))) |
 8000ade:	481d      	ldr	r0, [pc, #116]	; (8000b54 <NVIC_SetPriority+0xd4>)
 8000ae0:	1dfb      	adds	r3, r7, #7
 8000ae2:	781b      	ldrb	r3, [r3, #0]
 8000ae4:	001c      	movs	r4, r3
 8000ae6:	230f      	movs	r3, #15
 8000ae8:	4023      	ands	r3, r4
 8000aea:	3b08      	subs	r3, #8
 8000aec:	089b      	lsrs	r3, r3, #2
 8000aee:	430a      	orrs	r2, r1
 8000af0:	3306      	adds	r3, #6
 8000af2:	009b      	lsls	r3, r3, #2
 8000af4:	18c3      	adds	r3, r0, r3
 8000af6:	3304      	adds	r3, #4
 8000af8:	601a      	str	r2, [r3, #0]
  else
  {
    NVIC->IP[_IP_IDX(IRQn)]  = ((uint32_t)(NVIC->IP[_IP_IDX(IRQn)]  & ~(0xFFUL << _BIT_SHIFT(IRQn))) |
       (((priority << (8U - __NVIC_PRIO_BITS)) & (uint32_t)0xFFUL) << _BIT_SHIFT(IRQn)));
  }
}
 8000afa:	e027      	b.n	8000b4c <NVIC_SetPriority+0xcc>
    NVIC->IP[_IP_IDX(IRQn)]  = ((uint32_t)(NVIC->IP[_IP_IDX(IRQn)]  & ~(0xFFUL << _BIT_SHIFT(IRQn))) |
 8000afc:	4a16      	ldr	r2, [pc, #88]	; (8000b58 <NVIC_SetPriority+0xd8>)
 8000afe:	1dfb      	adds	r3, r7, #7
 8000b00:	781b      	ldrb	r3, [r3, #0]
 8000b02:	b25b      	sxtb	r3, r3
 8000b04:	089b      	lsrs	r3, r3, #2
 8000b06:	33c0      	adds	r3, #192	; 0xc0
 8000b08:	009b      	lsls	r3, r3, #2
 8000b0a:	589b      	ldr	r3, [r3, r2]
 8000b0c:	1dfa      	adds	r2, r7, #7
 8000b0e:	7812      	ldrb	r2, [r2, #0]
 8000b10:	0011      	movs	r1, r2
 8000b12:	2203      	movs	r2, #3
 8000b14:	400a      	ands	r2, r1
 8000b16:	00d2      	lsls	r2, r2, #3
 8000b18:	21ff      	movs	r1, #255	; 0xff
 8000b1a:	4091      	lsls	r1, r2
 8000b1c:	000a      	movs	r2, r1
 8000b1e:	43d2      	mvns	r2, r2
 8000b20:	401a      	ands	r2, r3
 8000b22:	0011      	movs	r1, r2
       (((priority << (8U - __NVIC_PRIO_BITS)) & (uint32_t)0xFFUL) << _BIT_SHIFT(IRQn)));
 8000b24:	683b      	ldr	r3, [r7, #0]
 8000b26:	019b      	lsls	r3, r3, #6
 8000b28:	22ff      	movs	r2, #255	; 0xff
 8000b2a:	401a      	ands	r2, r3
 8000b2c:	1dfb      	adds	r3, r7, #7
 8000b2e:	781b      	ldrb	r3, [r3, #0]
 8000b30:	0018      	movs	r0, r3
 8000b32:	2303      	movs	r3, #3
 8000b34:	4003      	ands	r3, r0
 8000b36:	00db      	lsls	r3, r3, #3
 8000b38:	409a      	lsls	r2, r3
    NVIC->IP[_IP_IDX(IRQn)]  = ((uint32_t)(NVIC->IP[_IP_IDX(IRQn)]  & ~(0xFFUL << _BIT_SHIFT(IRQn))) |
 8000b3a:	4807      	ldr	r0, [pc, #28]	; (8000b58 <NVIC_SetPriority+0xd8>)
 8000b3c:	1dfb      	adds	r3, r7, #7
 8000b3e:	781b      	ldrb	r3, [r3, #0]
 8000b40:	b25b      	sxtb	r3, r3
 8000b42:	089b      	lsrs	r3, r3, #2
 8000b44:	430a      	orrs	r2, r1
 8000b46:	33c0      	adds	r3, #192	; 0xc0
 8000b48:	009b      	lsls	r3, r3, #2
 8000b4a:	501a      	str	r2, [r3, r0]
}
 8000b4c:	46c0      	nop			; (mov r8, r8)
 8000b4e:	46bd      	mov	sp, r7
 8000b50:	b003      	add	sp, #12
 8000b52:	bd90      	pop	{r4, r7, pc}
 8000b54:	e000ed00 	.word	0xe000ed00
 8000b58:	e000e100 	.word	0xe000e100

08000b5c <SysTick_Config>:
  \note    When the variable <b>__Vendor_SysTickConfig</b> is set to 1, then the
           function <b>SysTick_Config</b> is not included. In this case, the file <b><i>device</i>.h</b>
           must contain a vendor-specific implementation of this function.
 */
__STATIC_INLINE uint32_t SysTick_Config(uint32_t ticks)
{
 8000b5c:	b580      	push	{r7, lr}
 8000b5e:	b082      	sub	sp, #8
 8000b60:	af00      	add	r7, sp, #0
 8000b62:	6078      	str	r0, [r7, #4]
  if ((ticks - 1UL) > SysTick_LOAD_RELOAD_Msk)
 8000b64:	687b      	ldr	r3, [r7, #4]
 8000b66:	3b01      	subs	r3, #1
 8000b68:	4a0c      	ldr	r2, [pc, #48]	; (8000b9c <SysTick_Config+0x40>)
 8000b6a:	4293      	cmp	r3, r2
 8000b6c:	d901      	bls.n	8000b72 <SysTick_Config+0x16>
  {
    return (1UL);                                                   /* Reload value impossible */
 8000b6e:	2301      	movs	r3, #1
 8000b70:	e010      	b.n	8000b94 <SysTick_Config+0x38>
  }

  SysTick->LOAD  = (uint32_t)(ticks - 1UL);                         /* set reload register */
 8000b72:	4b0b      	ldr	r3, [pc, #44]	; (8000ba0 <SysTick_Config+0x44>)
 8000b74:	687a      	ldr	r2, [r7, #4]
 8000b76:	3a01      	subs	r2, #1
 8000b78:	605a      	str	r2, [r3, #4]
  NVIC_SetPriority (SysTick_IRQn, (1UL << __NVIC_PRIO_BITS) - 1UL); /* set Priority for Systick Interrupt */
 8000b7a:	2301      	movs	r3, #1
 8000b7c:	425b      	negs	r3, r3
 8000b7e:	2103      	movs	r1, #3
 8000b80:	0018      	movs	r0, r3
 8000b82:	f7ff ff7d 	bl	8000a80 <NVIC_SetPriority>
  SysTick->VAL   = 0UL;                                             /* Load the SysTick Counter Value */
 8000b86:	4b06      	ldr	r3, [pc, #24]	; (8000ba0 <SysTick_Config+0x44>)
 8000b88:	2200      	movs	r2, #0
 8000b8a:	609a      	str	r2, [r3, #8]
  SysTick->CTRL  = SysTick_CTRL_CLKSOURCE_Msk |
 8000b8c:	4b04      	ldr	r3, [pc, #16]	; (8000ba0 <SysTick_Config+0x44>)
 8000b8e:	2207      	movs	r2, #7
 8000b90:	601a      	str	r2, [r3, #0]
                   SysTick_CTRL_TICKINT_Msk   |
                   SysTick_CTRL_ENABLE_Msk;                         /* Enable SysTick IRQ and SysTick Timer */
  return (0UL);                                                     /* Function successful */
 8000b92:	2300      	movs	r3, #0
}
 8000b94:	0018      	movs	r0, r3
 8000b96:	46bd      	mov	sp, r7
 8000b98:	b002      	add	sp, #8
 8000b9a:	bd80      	pop	{r7, pc}
 8000b9c:	00ffffff 	.word	0x00ffffff
 8000ba0:	e000e010 	.word	0xe000e010

08000ba4 <HAL_NVIC_SetPriority>:
  *         with stm32l0xx devices, this parameter is a dummy value and it is ignored, because 
  *         no subpriority supported in Cortex M0+ based products.   
  * @retval None
  */
void HAL_NVIC_SetPriority(IRQn_Type IRQn, uint32_t PreemptPriority, uint32_t SubPriority)
{ 
 8000ba4:	b580      	push	{r7, lr}
 8000ba6:	b084      	sub	sp, #16
 8000ba8:	af00      	add	r7, sp, #0
 8000baa:	60b9      	str	r1, [r7, #8]
 8000bac:	607a      	str	r2, [r7, #4]
 8000bae:	210f      	movs	r1, #15
 8000bb0:	187b      	adds	r3, r7, r1
 8000bb2:	1c02      	adds	r2, r0, #0
 8000bb4:	701a      	strb	r2, [r3, #0]
    /* Check the parameters */
  assert_param(IS_NVIC_PREEMPTION_PRIORITY(PreemptPriority));
  NVIC_SetPriority(IRQn,PreemptPriority);
 8000bb6:	68ba      	ldr	r2, [r7, #8]
 8000bb8:	187b      	adds	r3, r7, r1
 8000bba:	781b      	ldrb	r3, [r3, #0]
 8000bbc:	b25b      	sxtb	r3, r3
 8000bbe:	0011      	movs	r1, r2
 8000bc0:	0018      	movs	r0, r3
 8000bc2:	f7ff ff5d 	bl	8000a80 <NVIC_SetPriority>
}
 8000bc6:	46c0      	nop			; (mov r8, r8)
 8000bc8:	46bd      	mov	sp, r7
 8000bca:	b004      	add	sp, #16
 8000bcc:	bd80      	pop	{r7, pc}

08000bce <HAL_SYSTICK_Config>:
  * @param  TicksNumb Specifies the ticks Number of ticks between two interrupts.
  * @retval status:  - 0  Function succeeded.
  *                  - 1  Function failed.
  */
uint32_t HAL_SYSTICK_Config(uint32_t TicksNumb)
{
 8000bce:	b580      	push	{r7, lr}
 8000bd0:	b082      	sub	sp, #8
 8000bd2:	af00      	add	r7, sp, #0
 8000bd4:	6078      	str	r0, [r7, #4]
   return SysTick_Config(TicksNumb);
 8000bd6:	687b      	ldr	r3, [r7, #4]
 8000bd8:	0018      	movs	r0, r3
 8000bda:	f7ff ffbf 	bl	8000b5c <SysTick_Config>
 8000bde:	0003      	movs	r3, r0
}
 8000be0:	0018      	movs	r0, r3
 8000be2:	46bd      	mov	sp, r7
 8000be4:	b002      	add	sp, #8
 8000be6:	bd80      	pop	{r7, pc}

08000be8 <HAL_GPIO_Init>:
  * @param  GPIO_Init pointer to a GPIO_InitTypeDef structure that contains
  *                    the configuration information for the specified GPIO peripheral.
  * @retval None
  */
void HAL_GPIO_Init(GPIO_TypeDef  *GPIOx, GPIO_InitTypeDef *GPIO_Init)
{
 8000be8:	b580      	push	{r7, lr}
 8000bea:	b086      	sub	sp, #24
 8000bec:	af00      	add	r7, sp, #0
 8000bee:	6078      	str	r0, [r7, #4]
 8000bf0:	6039      	str	r1, [r7, #0]
  uint32_t position = 0x00U;
 8000bf2:	2300      	movs	r3, #0
 8000bf4:	617b      	str	r3, [r7, #20]
  uint32_t iocurrent = 0x00U;
 8000bf6:	2300      	movs	r3, #0
 8000bf8:	60fb      	str	r3, [r7, #12]
  uint32_t temp = 0x00U;
 8000bfa:	2300      	movs	r3, #0
 8000bfc:	613b      	str	r3, [r7, #16]
  assert_param(IS_GPIO_MODE(GPIO_Init->Mode));
  assert_param(IS_GPIO_PULL(GPIO_Init->Pull));
  assert_param(IS_GPIO_PIN_AVAILABLE(GPIOx,(GPIO_Init->Pin)));

  /* Configure the port pins */
  while (((GPIO_Init->Pin) >> position) != 0)
 8000bfe:	e143      	b.n	8000e88 <HAL_GPIO_Init+0x2a0>
  {
    /* Get the IO position */
    iocurrent = (GPIO_Init->Pin) & (1U << position);
 8000c00:	683b      	ldr	r3, [r7, #0]
 8000c02:	681b      	ldr	r3, [r3, #0]
 8000c04:	2101      	movs	r1, #1
 8000c06:	697a      	ldr	r2, [r7, #20]
 8000c08:	4091      	lsls	r1, r2
 8000c0a:	000a      	movs	r2, r1
 8000c0c:	4013      	ands	r3, r2
 8000c0e:	60fb      	str	r3, [r7, #12]
    
    if(iocurrent)
 8000c10:	68fb      	ldr	r3, [r7, #12]
 8000c12:	2b00      	cmp	r3, #0
 8000c14:	d100      	bne.n	8000c18 <HAL_GPIO_Init+0x30>
 8000c16:	e134      	b.n	8000e82 <HAL_GPIO_Init+0x29a>
    {
      /*--------------------- GPIO Mode Configuration ------------------------*/
      /* In case of Alternate function mode selection */
      if((GPIO_Init->Mode == GPIO_MODE_AF_PP) || (GPIO_Init->Mode == GPIO_MODE_AF_OD)) 
 8000c18:	683b      	ldr	r3, [r7, #0]
 8000c1a:	685b      	ldr	r3, [r3, #4]
 8000c1c:	2b02      	cmp	r3, #2
 8000c1e:	d003      	beq.n	8000c28 <HAL_GPIO_Init+0x40>
 8000c20:	683b      	ldr	r3, [r7, #0]
 8000c22:	685b      	ldr	r3, [r3, #4]
 8000c24:	2b12      	cmp	r3, #18
 8000c26:	d123      	bne.n	8000c70 <HAL_GPIO_Init+0x88>
        /* Check the Alternate function parameters */
        assert_param(IS_GPIO_AF_INSTANCE(GPIOx));
        assert_param(IS_GPIO_AF(GPIO_Init->Alternate));

        /* Configure Alternate function mapped with the current IO */ 
        temp = GPIOx->AFR[position >> 3U];
 8000c28:	697b      	ldr	r3, [r7, #20]
 8000c2a:	08da      	lsrs	r2, r3, #3
 8000c2c:	687b      	ldr	r3, [r7, #4]
 8000c2e:	3208      	adds	r2, #8
 8000c30:	0092      	lsls	r2, r2, #2
 8000c32:	58d3      	ldr	r3, [r2, r3]
 8000c34:	613b      	str	r3, [r7, #16]
        temp &= ~((uint32_t)0xFU << ((uint32_t)(position & (uint32_t)0x07U) * 4U)) ;
 8000c36:	697b      	ldr	r3, [r7, #20]
 8000c38:	2207      	movs	r2, #7
 8000c3a:	4013      	ands	r3, r2
 8000c3c:	009b      	lsls	r3, r3, #2
 8000c3e:	220f      	movs	r2, #15
 8000c40:	409a      	lsls	r2, r3
 8000c42:	0013      	movs	r3, r2
 8000c44:	43da      	mvns	r2, r3
 8000c46:	693b      	ldr	r3, [r7, #16]
 8000c48:	4013      	ands	r3, r2
 8000c4a:	613b      	str	r3, [r7, #16]
        temp |= ((uint32_t)(GPIO_Init->Alternate) << (((uint32_t)position & (uint32_t)0x07U) * 4U)) ;
 8000c4c:	683b      	ldr	r3, [r7, #0]
 8000c4e:	691a      	ldr	r2, [r3, #16]
 8000c50:	697b      	ldr	r3, [r7, #20]
 8000c52:	2107      	movs	r1, #7
 8000c54:	400b      	ands	r3, r1
 8000c56:	009b      	lsls	r3, r3, #2
 8000c58:	409a      	lsls	r2, r3
 8000c5a:	0013      	movs	r3, r2
 8000c5c:	693a      	ldr	r2, [r7, #16]
 8000c5e:	4313      	orrs	r3, r2
 8000c60:	613b      	str	r3, [r7, #16]
        GPIOx->AFR[position >> 3U] = temp;
 8000c62:	697b      	ldr	r3, [r7, #20]
 8000c64:	08da      	lsrs	r2, r3, #3
 8000c66:	687b      	ldr	r3, [r7, #4]
 8000c68:	3208      	adds	r2, #8
 8000c6a:	0092      	lsls	r2, r2, #2
 8000c6c:	6939      	ldr	r1, [r7, #16]
 8000c6e:	50d1      	str	r1, [r2, r3]
      } 

      /* In case of Output or Alternate function mode selection */
      if((GPIO_Init->Mode == GPIO_MODE_OUTPUT_PP) || (GPIO_Init->Mode == GPIO_MODE_AF_PP) ||
 8000c70:	683b      	ldr	r3, [r7, #0]
 8000c72:	685b      	ldr	r3, [r3, #4]
 8000c74:	2b01      	cmp	r3, #1
 8000c76:	d00b      	beq.n	8000c90 <HAL_GPIO_Init+0xa8>
 8000c78:	683b      	ldr	r3, [r7, #0]
 8000c7a:	685b      	ldr	r3, [r3, #4]
 8000c7c:	2b02      	cmp	r3, #2
 8000c7e:	d007      	beq.n	8000c90 <HAL_GPIO_Init+0xa8>
         (GPIO_Init->Mode == GPIO_MODE_OUTPUT_OD) || (GPIO_Init->Mode == GPIO_MODE_AF_OD))
 8000c80:	683b      	ldr	r3, [r7, #0]
 8000c82:	685b      	ldr	r3, [r3, #4]
      if((GPIO_Init->Mode == GPIO_MODE_OUTPUT_PP) || (GPIO_Init->Mode == GPIO_MODE_AF_PP) ||
 8000c84:	2b11      	cmp	r3, #17
 8000c86:	d003      	beq.n	8000c90 <HAL_GPIO_Init+0xa8>
         (GPIO_Init->Mode == GPIO_MODE_OUTPUT_OD) || (GPIO_Init->Mode == GPIO_MODE_AF_OD))
 8000c88:	683b      	ldr	r3, [r7, #0]
 8000c8a:	685b      	ldr	r3, [r3, #4]
 8000c8c:	2b12      	cmp	r3, #18
 8000c8e:	d130      	bne.n	8000cf2 <HAL_GPIO_Init+0x10a>
      {
        /* Check the Speed parameter */
        assert_param(IS_GPIO_SPEED(GPIO_Init->Speed));
        /* Configure the IO Speed */
        temp = GPIOx->OSPEEDR;
 8000c90:	687b      	ldr	r3, [r7, #4]
 8000c92:	689b      	ldr	r3, [r3, #8]
 8000c94:	613b      	str	r3, [r7, #16]
        temp &= ~(GPIO_OSPEEDER_OSPEED0 << (position * 2U));
 8000c96:	697b      	ldr	r3, [r7, #20]
 8000c98:	005b      	lsls	r3, r3, #1
 8000c9a:	2203      	movs	r2, #3
 8000c9c:	409a      	lsls	r2, r3
 8000c9e:	0013      	movs	r3, r2
 8000ca0:	43da      	mvns	r2, r3
 8000ca2:	693b      	ldr	r3, [r7, #16]
 8000ca4:	4013      	ands	r3, r2
 8000ca6:	613b      	str	r3, [r7, #16]
        temp |= (GPIO_Init->Speed << (position * 2U));
 8000ca8:	683b      	ldr	r3, [r7, #0]
 8000caa:	68da      	ldr	r2, [r3, #12]
 8000cac:	697b      	ldr	r3, [r7, #20]
 8000cae:	005b      	lsls	r3, r3, #1
 8000cb0:	409a      	lsls	r2, r3
 8000cb2:	0013      	movs	r3, r2
 8000cb4:	693a      	ldr	r2, [r7, #16]
 8000cb6:	4313      	orrs	r3, r2
 8000cb8:	613b      	str	r3, [r7, #16]
        GPIOx->OSPEEDR = temp;
 8000cba:	687b      	ldr	r3, [r7, #4]
 8000cbc:	693a      	ldr	r2, [r7, #16]
 8000cbe:	609a      	str	r2, [r3, #8]

        /* Configure the IO Output Type */
        temp= GPIOx->OTYPER;
 8000cc0:	687b      	ldr	r3, [r7, #4]
 8000cc2:	685b      	ldr	r3, [r3, #4]
 8000cc4:	613b      	str	r3, [r7, #16]
        temp &= ~(GPIO_OTYPER_OT_0 << position) ;
 8000cc6:	2201      	movs	r2, #1
 8000cc8:	697b      	ldr	r3, [r7, #20]
 8000cca:	409a      	lsls	r2, r3
 8000ccc:	0013      	movs	r3, r2
 8000cce:	43da      	mvns	r2, r3
 8000cd0:	693b      	ldr	r3, [r7, #16]
 8000cd2:	4013      	ands	r3, r2
 8000cd4:	613b      	str	r3, [r7, #16]
        temp |= (((GPIO_Init->Mode & GPIO_OUTPUT_TYPE) >> 4U) << position);
 8000cd6:	683b      	ldr	r3, [r7, #0]
 8000cd8:	685b      	ldr	r3, [r3, #4]
 8000cda:	091b      	lsrs	r3, r3, #4
 8000cdc:	2201      	movs	r2, #1
 8000cde:	401a      	ands	r2, r3
 8000ce0:	697b      	ldr	r3, [r7, #20]
 8000ce2:	409a      	lsls	r2, r3
 8000ce4:	0013      	movs	r3, r2
 8000ce6:	693a      	ldr	r2, [r7, #16]
 8000ce8:	4313      	orrs	r3, r2
 8000cea:	613b      	str	r3, [r7, #16]
        GPIOx->OTYPER = temp;
 8000cec:	687b      	ldr	r3, [r7, #4]
 8000cee:	693a      	ldr	r2, [r7, #16]
 8000cf0:	605a      	str	r2, [r3, #4]
      }

      /* Configure IO Direction mode (Input, Output, Alternate or Analog) */
      temp = GPIOx->MODER;
 8000cf2:	687b      	ldr	r3, [r7, #4]
 8000cf4:	681b      	ldr	r3, [r3, #0]
 8000cf6:	613b      	str	r3, [r7, #16]
      temp &= ~(GPIO_MODER_MODE0 << (position * 2U));
 8000cf8:	697b      	ldr	r3, [r7, #20]
 8000cfa:	005b      	lsls	r3, r3, #1
 8000cfc:	2203      	movs	r2, #3
 8000cfe:	409a      	lsls	r2, r3
 8000d00:	0013      	movs	r3, r2
 8000d02:	43da      	mvns	r2, r3
 8000d04:	693b      	ldr	r3, [r7, #16]
 8000d06:	4013      	ands	r3, r2
 8000d08:	613b      	str	r3, [r7, #16]
      temp |= ((GPIO_Init->Mode & GPIO_MODE) << (position * 2U));
 8000d0a:	683b      	ldr	r3, [r7, #0]
 8000d0c:	685b      	ldr	r3, [r3, #4]
 8000d0e:	2203      	movs	r2, #3
 8000d10:	401a      	ands	r2, r3
 8000d12:	697b      	ldr	r3, [r7, #20]
 8000d14:	005b      	lsls	r3, r3, #1
 8000d16:	409a      	lsls	r2, r3
 8000d18:	0013      	movs	r3, r2
 8000d1a:	693a      	ldr	r2, [r7, #16]
 8000d1c:	4313      	orrs	r3, r2
 8000d1e:	613b      	str	r3, [r7, #16]
      GPIOx->MODER = temp;
 8000d20:	687b      	ldr	r3, [r7, #4]
 8000d22:	693a      	ldr	r2, [r7, #16]
 8000d24:	601a      	str	r2, [r3, #0]

      /* Activate the Pull-up or Pull down resistor for the current IO */
      temp = GPIOx->PUPDR;
 8000d26:	687b      	ldr	r3, [r7, #4]
 8000d28:	68db      	ldr	r3, [r3, #12]
 8000d2a:	613b      	str	r3, [r7, #16]
      temp &= ~(GPIO_PUPDR_PUPD0 << (position * 2U));
 8000d2c:	697b      	ldr	r3, [r7, #20]
 8000d2e:	005b      	lsls	r3, r3, #1
 8000d30:	2203      	movs	r2, #3
 8000d32:	409a      	lsls	r2, r3
 8000d34:	0013      	movs	r3, r2
 8000d36:	43da      	mvns	r2, r3
 8000d38:	693b      	ldr	r3, [r7, #16]
 8000d3a:	4013      	ands	r3, r2
 8000d3c:	613b      	str	r3, [r7, #16]
      temp |= ((GPIO_Init->Pull) << (position * 2U)); 
 8000d3e:	683b      	ldr	r3, [r7, #0]
 8000d40:	689a      	ldr	r2, [r3, #8]
 8000d42:	697b      	ldr	r3, [r7, #20]
 8000d44:	005b      	lsls	r3, r3, #1
 8000d46:	409a      	lsls	r2, r3
 8000d48:	0013      	movs	r3, r2
 8000d4a:	693a      	ldr	r2, [r7, #16]
 8000d4c:	4313      	orrs	r3, r2
 8000d4e:	613b      	str	r3, [r7, #16]
      GPIOx->PUPDR = temp;
 8000d50:	687b      	ldr	r3, [r7, #4]
 8000d52:	693a      	ldr	r2, [r7, #16]
 8000d54:	60da      	str	r2, [r3, #12]

      /*--------------------- EXTI Mode Configuration ------------------------*/
      /* Configure the External Interrupt or event for the current IO */
      if((GPIO_Init->Mode & EXTI_MODE) == EXTI_MODE) 
 8000d56:	683b      	ldr	r3, [r7, #0]
 8000d58:	685a      	ldr	r2, [r3, #4]
 8000d5a:	2380      	movs	r3, #128	; 0x80
 8000d5c:	055b      	lsls	r3, r3, #21
 8000d5e:	4013      	ands	r3, r2
 8000d60:	d100      	bne.n	8000d64 <HAL_GPIO_Init+0x17c>
 8000d62:	e08e      	b.n	8000e82 <HAL_GPIO_Init+0x29a>
      {
        /* Enable SYSCFG Clock */
        __HAL_RCC_SYSCFG_CLK_ENABLE();
 8000d64:	4b4e      	ldr	r3, [pc, #312]	; (8000ea0 <HAL_GPIO_Init+0x2b8>)
 8000d66:	6b5a      	ldr	r2, [r3, #52]	; 0x34
 8000d68:	4b4d      	ldr	r3, [pc, #308]	; (8000ea0 <HAL_GPIO_Init+0x2b8>)
 8000d6a:	2101      	movs	r1, #1
 8000d6c:	430a      	orrs	r2, r1
 8000d6e:	635a      	str	r2, [r3, #52]	; 0x34
        
        temp = SYSCFG->EXTICR[position >> 2U];
 8000d70:	4a4c      	ldr	r2, [pc, #304]	; (8000ea4 <HAL_GPIO_Init+0x2bc>)
 8000d72:	697b      	ldr	r3, [r7, #20]
 8000d74:	089b      	lsrs	r3, r3, #2
 8000d76:	3302      	adds	r3, #2
 8000d78:	009b      	lsls	r3, r3, #2
 8000d7a:	589b      	ldr	r3, [r3, r2]
 8000d7c:	613b      	str	r3, [r7, #16]
        CLEAR_BIT(temp, ((uint32_t)0x0FU) << (4U * (position & 0x03U)));
 8000d7e:	697b      	ldr	r3, [r7, #20]
 8000d80:	2203      	movs	r2, #3
 8000d82:	4013      	ands	r3, r2
 8000d84:	009b      	lsls	r3, r3, #2
 8000d86:	220f      	movs	r2, #15
 8000d88:	409a      	lsls	r2, r3
 8000d8a:	0013      	movs	r3, r2
 8000d8c:	43da      	mvns	r2, r3
 8000d8e:	693b      	ldr	r3, [r7, #16]
 8000d90:	4013      	ands	r3, r2
 8000d92:	613b      	str	r3, [r7, #16]
        SET_BIT(temp, (GPIO_GET_INDEX(GPIOx)) << (4 * (position & 0x03U)));
 8000d94:	687a      	ldr	r2, [r7, #4]
 8000d96:	23a0      	movs	r3, #160	; 0xa0
 8000d98:	05db      	lsls	r3, r3, #23
 8000d9a:	429a      	cmp	r2, r3
 8000d9c:	d00d      	beq.n	8000dba <HAL_GPIO_Init+0x1d2>
 8000d9e:	687b      	ldr	r3, [r7, #4]
 8000da0:	4a41      	ldr	r2, [pc, #260]	; (8000ea8 <HAL_GPIO_Init+0x2c0>)
 8000da2:	4293      	cmp	r3, r2
 8000da4:	d007      	beq.n	8000db6 <HAL_GPIO_Init+0x1ce>
 8000da6:	687b      	ldr	r3, [r7, #4]
 8000da8:	4a40      	ldr	r2, [pc, #256]	; (8000eac <HAL_GPIO_Init+0x2c4>)
 8000daa:	4293      	cmp	r3, r2
 8000dac:	d101      	bne.n	8000db2 <HAL_GPIO_Init+0x1ca>
 8000dae:	2302      	movs	r3, #2
 8000db0:	e004      	b.n	8000dbc <HAL_GPIO_Init+0x1d4>
 8000db2:	2306      	movs	r3, #6
 8000db4:	e002      	b.n	8000dbc <HAL_GPIO_Init+0x1d4>
 8000db6:	2301      	movs	r3, #1
 8000db8:	e000      	b.n	8000dbc <HAL_GPIO_Init+0x1d4>
 8000dba:	2300      	movs	r3, #0
 8000dbc:	697a      	ldr	r2, [r7, #20]
 8000dbe:	2103      	movs	r1, #3
 8000dc0:	400a      	ands	r2, r1
 8000dc2:	0092      	lsls	r2, r2, #2
 8000dc4:	4093      	lsls	r3, r2
 8000dc6:	693a      	ldr	r2, [r7, #16]
 8000dc8:	4313      	orrs	r3, r2
 8000dca:	613b      	str	r3, [r7, #16]
        SYSCFG->EXTICR[position >> 2U] = temp;
 8000dcc:	4935      	ldr	r1, [pc, #212]	; (8000ea4 <HAL_GPIO_Init+0x2bc>)
 8000dce:	697b      	ldr	r3, [r7, #20]
 8000dd0:	089b      	lsrs	r3, r3, #2
 8000dd2:	3302      	adds	r3, #2
 8000dd4:	009b      	lsls	r3, r3, #2
 8000dd6:	693a      	ldr	r2, [r7, #16]
 8000dd8:	505a      	str	r2, [r3, r1]
                  
        /* Clear EXTI line configuration */
        temp = EXTI->IMR;
 8000dda:	4b35      	ldr	r3, [pc, #212]	; (8000eb0 <HAL_GPIO_Init+0x2c8>)
 8000ddc:	681b      	ldr	r3, [r3, #0]
 8000dde:	613b      	str	r3, [r7, #16]
        temp &= ~((uint32_t)iocurrent);
 8000de0:	68fb      	ldr	r3, [r7, #12]
 8000de2:	43da      	mvns	r2, r3
 8000de4:	693b      	ldr	r3, [r7, #16]
 8000de6:	4013      	ands	r3, r2
 8000de8:	613b      	str	r3, [r7, #16]
        if((GPIO_Init->Mode & GPIO_MODE_IT) == GPIO_MODE_IT)
 8000dea:	683b      	ldr	r3, [r7, #0]
 8000dec:	685a      	ldr	r2, [r3, #4]
 8000dee:	2380      	movs	r3, #128	; 0x80
 8000df0:	025b      	lsls	r3, r3, #9
 8000df2:	4013      	ands	r3, r2
 8000df4:	d003      	beq.n	8000dfe <HAL_GPIO_Init+0x216>
        {
          temp |= iocurrent;
 8000df6:	693a      	ldr	r2, [r7, #16]
 8000df8:	68fb      	ldr	r3, [r7, #12]
 8000dfa:	4313      	orrs	r3, r2
 8000dfc:	613b      	str	r3, [r7, #16]
        }
        EXTI->IMR = temp;
 8000dfe:	4b2c      	ldr	r3, [pc, #176]	; (8000eb0 <HAL_GPIO_Init+0x2c8>)
 8000e00:	693a      	ldr	r2, [r7, #16]
 8000e02:	601a      	str	r2, [r3, #0]

        temp = EXTI->EMR;
 8000e04:	4b2a      	ldr	r3, [pc, #168]	; (8000eb0 <HAL_GPIO_Init+0x2c8>)
 8000e06:	685b      	ldr	r3, [r3, #4]
 8000e08:	613b      	str	r3, [r7, #16]
        temp &= ~((uint32_t)iocurrent);
 8000e0a:	68fb      	ldr	r3, [r7, #12]
 8000e0c:	43da      	mvns	r2, r3
 8000e0e:	693b      	ldr	r3, [r7, #16]
 8000e10:	4013      	ands	r3, r2
 8000e12:	613b      	str	r3, [r7, #16]
        if((GPIO_Init->Mode & GPIO_MODE_EVT) == GPIO_MODE_EVT)
 8000e14:	683b      	ldr	r3, [r7, #0]
 8000e16:	685a      	ldr	r2, [r3, #4]
 8000e18:	2380      	movs	r3, #128	; 0x80
 8000e1a:	029b      	lsls	r3, r3, #10
 8000e1c:	4013      	ands	r3, r2
 8000e1e:	d003      	beq.n	8000e28 <HAL_GPIO_Init+0x240>
        {
          temp |= iocurrent;
 8000e20:	693a      	ldr	r2, [r7, #16]
 8000e22:	68fb      	ldr	r3, [r7, #12]
 8000e24:	4313      	orrs	r3, r2
 8000e26:	613b      	str	r3, [r7, #16]
        }
        EXTI->EMR = temp;
 8000e28:	4b21      	ldr	r3, [pc, #132]	; (8000eb0 <HAL_GPIO_Init+0x2c8>)
 8000e2a:	693a      	ldr	r2, [r7, #16]
 8000e2c:	605a      	str	r2, [r3, #4]

        /* Clear Rising Falling edge configuration */
        temp = EXTI->RTSR;
 8000e2e:	4b20      	ldr	r3, [pc, #128]	; (8000eb0 <HAL_GPIO_Init+0x2c8>)
 8000e30:	689b      	ldr	r3, [r3, #8]
 8000e32:	613b      	str	r3, [r7, #16]
        temp &= ~((uint32_t)iocurrent);
 8000e34:	68fb      	ldr	r3, [r7, #12]
 8000e36:	43da      	mvns	r2, r3
 8000e38:	693b      	ldr	r3, [r7, #16]
 8000e3a:	4013      	ands	r3, r2
 8000e3c:	613b      	str	r3, [r7, #16]
        if((GPIO_Init->Mode & RISING_EDGE) == RISING_EDGE)
 8000e3e:	683b      	ldr	r3, [r7, #0]
 8000e40:	685a      	ldr	r2, [r3, #4]
 8000e42:	2380      	movs	r3, #128	; 0x80
 8000e44:	035b      	lsls	r3, r3, #13
 8000e46:	4013      	ands	r3, r2
 8000e48:	d003      	beq.n	8000e52 <HAL_GPIO_Init+0x26a>
        {
          temp |= iocurrent;
 8000e4a:	693a      	ldr	r2, [r7, #16]
 8000e4c:	68fb      	ldr	r3, [r7, #12]
 8000e4e:	4313      	orrs	r3, r2
 8000e50:	613b      	str	r3, [r7, #16]
        }
        EXTI->RTSR = temp;
 8000e52:	4b17      	ldr	r3, [pc, #92]	; (8000eb0 <HAL_GPIO_Init+0x2c8>)
 8000e54:	693a      	ldr	r2, [r7, #16]
 8000e56:	609a      	str	r2, [r3, #8]

        temp = EXTI->FTSR;
 8000e58:	4b15      	ldr	r3, [pc, #84]	; (8000eb0 <HAL_GPIO_Init+0x2c8>)
 8000e5a:	68db      	ldr	r3, [r3, #12]
 8000e5c:	613b      	str	r3, [r7, #16]
        temp &= ~((uint32_t)iocurrent);
 8000e5e:	68fb      	ldr	r3, [r7, #12]
 8000e60:	43da      	mvns	r2, r3
 8000e62:	693b      	ldr	r3, [r7, #16]
 8000e64:	4013      	ands	r3, r2
 8000e66:	613b      	str	r3, [r7, #16]
        if((GPIO_Init->Mode & FALLING_EDGE) == FALLING_EDGE)
 8000e68:	683b      	ldr	r3, [r7, #0]
 8000e6a:	685a      	ldr	r2, [r3, #4]
 8000e6c:	2380      	movs	r3, #128	; 0x80
 8000e6e:	039b      	lsls	r3, r3, #14
 8000e70:	4013      	ands	r3, r2
 8000e72:	d003      	beq.n	8000e7c <HAL_GPIO_Init+0x294>
        {
          temp |= iocurrent;
 8000e74:	693a      	ldr	r2, [r7, #16]
 8000e76:	68fb      	ldr	r3, [r7, #12]
 8000e78:	4313      	orrs	r3, r2
 8000e7a:	613b      	str	r3, [r7, #16]
        }
        EXTI->FTSR = temp;
 8000e7c:	4b0c      	ldr	r3, [pc, #48]	; (8000eb0 <HAL_GPIO_Init+0x2c8>)
 8000e7e:	693a      	ldr	r2, [r7, #16]
 8000e80:	60da      	str	r2, [r3, #12]
      }
    }
    position++;
 8000e82:	697b      	ldr	r3, [r7, #20]
 8000e84:	3301      	adds	r3, #1
 8000e86:	617b      	str	r3, [r7, #20]
  while (((GPIO_Init->Pin) >> position) != 0)
 8000e88:	683b      	ldr	r3, [r7, #0]
 8000e8a:	681a      	ldr	r2, [r3, #0]
 8000e8c:	697b      	ldr	r3, [r7, #20]
 8000e8e:	40da      	lsrs	r2, r3
 8000e90:	1e13      	subs	r3, r2, #0
 8000e92:	d000      	beq.n	8000e96 <HAL_GPIO_Init+0x2ae>
 8000e94:	e6b4      	b.n	8000c00 <HAL_GPIO_Init+0x18>
  }
}
 8000e96:	46c0      	nop			; (mov r8, r8)
 8000e98:	46bd      	mov	sp, r7
 8000e9a:	b006      	add	sp, #24
 8000e9c:	bd80      	pop	{r7, pc}
 8000e9e:	46c0      	nop			; (mov r8, r8)
 8000ea0:	40021000 	.word	0x40021000
 8000ea4:	40010000 	.word	0x40010000
 8000ea8:	50000400 	.word	0x50000400
 8000eac:	50000800 	.word	0x50000800
 8000eb0:	40010400 	.word	0x40010400

08000eb4 <HAL_GPIO_WritePin>:
  *                        GPIO_PIN_RESET: to clear the port pin
  *                        GPIO_PIN_SET: to set the port pin
  * @retval None
  */
void HAL_GPIO_WritePin(GPIO_TypeDef* GPIOx, uint16_t GPIO_Pin, GPIO_PinState PinState)
{
 8000eb4:	b580      	push	{r7, lr}
 8000eb6:	b082      	sub	sp, #8
 8000eb8:	af00      	add	r7, sp, #0
 8000eba:	6078      	str	r0, [r7, #4]
 8000ebc:	0008      	movs	r0, r1
 8000ebe:	0011      	movs	r1, r2
 8000ec0:	1cbb      	adds	r3, r7, #2
 8000ec2:	1c02      	adds	r2, r0, #0
 8000ec4:	801a      	strh	r2, [r3, #0]
 8000ec6:	1c7b      	adds	r3, r7, #1
 8000ec8:	1c0a      	adds	r2, r1, #0
 8000eca:	701a      	strb	r2, [r3, #0]
  /* Check the parameters */
  assert_param(IS_GPIO_PIN_AVAILABLE(GPIOx,GPIO_Pin));
  assert_param(IS_GPIO_PIN_ACTION(PinState));
  
  if(PinState != GPIO_PIN_RESET)
 8000ecc:	1c7b      	adds	r3, r7, #1
 8000ece:	781b      	ldrb	r3, [r3, #0]
 8000ed0:	2b00      	cmp	r3, #0
 8000ed2:	d004      	beq.n	8000ede <HAL_GPIO_WritePin+0x2a>
  {
    GPIOx->BSRR = GPIO_Pin;
 8000ed4:	1cbb      	adds	r3, r7, #2
 8000ed6:	881a      	ldrh	r2, [r3, #0]
 8000ed8:	687b      	ldr	r3, [r7, #4]
 8000eda:	619a      	str	r2, [r3, #24]
  }
  else
  {
    GPIOx->BRR = GPIO_Pin ;
  }
}
 8000edc:	e003      	b.n	8000ee6 <HAL_GPIO_WritePin+0x32>
    GPIOx->BRR = GPIO_Pin ;
 8000ede:	1cbb      	adds	r3, r7, #2
 8000ee0:	881a      	ldrh	r2, [r3, #0]
 8000ee2:	687b      	ldr	r3, [r7, #4]
 8000ee4:	629a      	str	r2, [r3, #40]	; 0x28
}
 8000ee6:	46c0      	nop			; (mov r8, r8)
 8000ee8:	46bd      	mov	sp, r7
 8000eea:	b002      	add	sp, #8
 8000eec:	bd80      	pop	{r7, pc}
	...

08000ef0 <HAL_PWR_EnableWakeUpPin>:
  *           @arg PWR_WAKEUP_PIN2
  *           @arg PWR_WAKEUP_PIN3 for stm32l07xxx and stm32l08xxx devices only.
  * @retval None
  */
void HAL_PWR_EnableWakeUpPin(uint32_t WakeUpPinx)
{
 8000ef0:	b580      	push	{r7, lr}
 8000ef2:	b082      	sub	sp, #8
 8000ef4:	af00      	add	r7, sp, #0
 8000ef6:	6078      	str	r0, [r7, #4]
  /* Check the parameter */
  assert_param(IS_PWR_WAKEUP_PIN(WakeUpPinx));
  /* Enable the EWUPx pin */
  SET_BIT(PWR->CSR, WakeUpPinx);
 8000ef8:	4b04      	ldr	r3, [pc, #16]	; (8000f0c <HAL_PWR_EnableWakeUpPin+0x1c>)
 8000efa:	6859      	ldr	r1, [r3, #4]
 8000efc:	4b03      	ldr	r3, [pc, #12]	; (8000f0c <HAL_PWR_EnableWakeUpPin+0x1c>)
 8000efe:	687a      	ldr	r2, [r7, #4]
 8000f00:	430a      	orrs	r2, r1
 8000f02:	605a      	str	r2, [r3, #4]
}
 8000f04:	46c0      	nop			; (mov r8, r8)
 8000f06:	46bd      	mov	sp, r7
 8000f08:	b002      	add	sp, #8
 8000f0a:	bd80      	pop	{r7, pc}
 8000f0c:	40007000 	.word	0x40007000

08000f10 <HAL_PWR_DisableWakeUpPin>:
  *           @arg PWR_WAKEUP_PIN2  
  *           @arg PWR_WAKEUP_PIN3  for stm32l07xxx and stm32l08xxx devices only.
  * @retval None
  */
void HAL_PWR_DisableWakeUpPin(uint32_t WakeUpPinx)
{
 8000f10:	b580      	push	{r7, lr}
 8000f12:	b082      	sub	sp, #8
 8000f14:	af00      	add	r7, sp, #0
 8000f16:	6078      	str	r0, [r7, #4]
  /* Check the parameter */
  assert_param(IS_PWR_WAKEUP_PIN(WakeUpPinx));
  /* Disable the EWUPx pin */
  CLEAR_BIT(PWR->CSR, WakeUpPinx);
 8000f18:	4b05      	ldr	r3, [pc, #20]	; (8000f30 <HAL_PWR_DisableWakeUpPin+0x20>)
 8000f1a:	685a      	ldr	r2, [r3, #4]
 8000f1c:	687b      	ldr	r3, [r7, #4]
 8000f1e:	43d9      	mvns	r1, r3
 8000f20:	4b03      	ldr	r3, [pc, #12]	; (8000f30 <HAL_PWR_DisableWakeUpPin+0x20>)
 8000f22:	400a      	ands	r2, r1
 8000f24:	605a      	str	r2, [r3, #4]
}
 8000f26:	46c0      	nop			; (mov r8, r8)
 8000f28:	46bd      	mov	sp, r7
 8000f2a:	b002      	add	sp, #8
 8000f2c:	bd80      	pop	{r7, pc}
 8000f2e:	46c0      	nop			; (mov r8, r8)
 8000f30:	40007000 	.word	0x40007000

08000f34 <HAL_PWR_EnterSTANDBYMode>:
  *          - WKUP pin 3 (PE06) if enabled, for stm32l07xxx and stm32l08xxx devices only.
  *          - WKUP pin 3 (PA02) if enabled, for stm32l031xx devices only.
  * @retval None
  */
void HAL_PWR_EnterSTANDBYMode(void)
{
 8000f34:	b580      	push	{r7, lr}
 8000f36:	af00      	add	r7, sp, #0
  /* Select Standby mode */
  SET_BIT(PWR->CR, PWR_CR_PDDS);
 8000f38:	4b07      	ldr	r3, [pc, #28]	; (8000f58 <HAL_PWR_EnterSTANDBYMode+0x24>)
 8000f3a:	681a      	ldr	r2, [r3, #0]
 8000f3c:	4b06      	ldr	r3, [pc, #24]	; (8000f58 <HAL_PWR_EnterSTANDBYMode+0x24>)
 8000f3e:	2102      	movs	r1, #2
 8000f40:	430a      	orrs	r2, r1
 8000f42:	601a      	str	r2, [r3, #0]

  /* Set SLEEPDEEP bit of Cortex System Control Register */
  SET_BIT(SCB->SCR, SCB_SCR_SLEEPDEEP_Msk);
 8000f44:	4b05      	ldr	r3, [pc, #20]	; (8000f5c <HAL_PWR_EnterSTANDBYMode+0x28>)
 8000f46:	691a      	ldr	r2, [r3, #16]
 8000f48:	4b04      	ldr	r3, [pc, #16]	; (8000f5c <HAL_PWR_EnterSTANDBYMode+0x28>)
 8000f4a:	2104      	movs	r1, #4
 8000f4c:	430a      	orrs	r2, r1
 8000f4e:	611a      	str	r2, [r3, #16]
  \brief   Wait For Interrupt
  \details Wait For Interrupt is a hint instruction that suspends execution until one of a number of events occurs.
 */
__attribute__((always_inline)) __STATIC_INLINE void __WFI(void)
{
  __ASM volatile ("wfi");
 8000f50:	bf30      	wfi
#if defined ( __CC_ARM)
  __force_stores();
#endif
  /* Request Wait For Interrupt */
  __WFI();
}
 8000f52:	46c0      	nop			; (mov r8, r8)
 8000f54:	46bd      	mov	sp, r7
 8000f56:	bd80      	pop	{r7, pc}
 8000f58:	40007000 	.word	0x40007000
 8000f5c:	e000ed00 	.word	0xe000ed00

08000f60 <HAL_PWREx_EnableFastWakeUp>:
  *        Means, when ULP = 1 and FWU = 1 :VREFINT startup time is ignored when 
  *        exiting from low power mode.
  * @retval None
  */
void HAL_PWREx_EnableFastWakeUp(void)
{
 8000f60:	b580      	push	{r7, lr}
 8000f62:	af00      	add	r7, sp, #0
  /* Enable the fast wake up */
  SET_BIT(PWR->CR, PWR_CR_FWU);
 8000f64:	4b04      	ldr	r3, [pc, #16]	; (8000f78 <HAL_PWREx_EnableFastWakeUp+0x18>)
 8000f66:	681a      	ldr	r2, [r3, #0]
 8000f68:	4b03      	ldr	r3, [pc, #12]	; (8000f78 <HAL_PWREx_EnableFastWakeUp+0x18>)
 8000f6a:	2180      	movs	r1, #128	; 0x80
 8000f6c:	00c9      	lsls	r1, r1, #3
 8000f6e:	430a      	orrs	r2, r1
 8000f70:	601a      	str	r2, [r3, #0]
}
 8000f72:	46c0      	nop			; (mov r8, r8)
 8000f74:	46bd      	mov	sp, r7
 8000f76:	bd80      	pop	{r7, pc}
 8000f78:	40007000 	.word	0x40007000

08000f7c <HAL_PWREx_EnableUltraLowPower>:
/**
  * @brief  Enables the Ultra Low Power mode
  * @retval None
  */
void HAL_PWREx_EnableUltraLowPower(void)
{
 8000f7c:	b580      	push	{r7, lr}
 8000f7e:	af00      	add	r7, sp, #0
  /* Enable the Ultra Low Power mode */
  SET_BIT(PWR->CR, PWR_CR_ULP);
 8000f80:	4b04      	ldr	r3, [pc, #16]	; (8000f94 <HAL_PWREx_EnableUltraLowPower+0x18>)
 8000f82:	681a      	ldr	r2, [r3, #0]
 8000f84:	4b03      	ldr	r3, [pc, #12]	; (8000f94 <HAL_PWREx_EnableUltraLowPower+0x18>)
 8000f86:	2180      	movs	r1, #128	; 0x80
 8000f88:	0089      	lsls	r1, r1, #2
 8000f8a:	430a      	orrs	r2, r1
 8000f8c:	601a      	str	r2, [r3, #0]
}
 8000f8e:	46c0      	nop			; (mov r8, r8)
 8000f90:	46bd      	mov	sp, r7
 8000f92:	bd80      	pop	{r7, pc}
 8000f94:	40007000 	.word	0x40007000

08000f98 <HAL_RCC_OscConfig>:
  *         supported by this macro. User should request a transition to HSE Off
  *         first and then HSE On or HSE Bypass.
  * @retval HAL status
  */
HAL_StatusTypeDef HAL_RCC_OscConfig(RCC_OscInitTypeDef  *RCC_OscInitStruct)
{
 8000f98:	b5b0      	push	{r4, r5, r7, lr}
 8000f9a:	b08a      	sub	sp, #40	; 0x28
 8000f9c:	af00      	add	r7, sp, #0
 8000f9e:	6078      	str	r0, [r7, #4]
  uint32_t hsi_state;
  HAL_StatusTypeDef status;
  uint32_t sysclk_source, pll_config;

  /* Check the parameters */
  if(RCC_OscInitStruct == NULL)
 8000fa0:	687b      	ldr	r3, [r7, #4]
 8000fa2:	2b00      	cmp	r3, #0
 8000fa4:	d102      	bne.n	8000fac <HAL_RCC_OscConfig+0x14>
  {
    return HAL_ERROR;
 8000fa6:	2301      	movs	r3, #1
 8000fa8:	f000 fb6a 	bl	8001680 <HAL_RCC_OscConfig+0x6e8>
  }

  assert_param(IS_RCC_OSCILLATORTYPE(RCC_OscInitStruct->OscillatorType));

  sysclk_source = __HAL_RCC_GET_SYSCLK_SOURCE();
 8000fac:	4bc7      	ldr	r3, [pc, #796]	; (80012cc <HAL_RCC_OscConfig+0x334>)
 8000fae:	68db      	ldr	r3, [r3, #12]
 8000fb0:	220c      	movs	r2, #12
 8000fb2:	4013      	ands	r3, r2
 8000fb4:	61fb      	str	r3, [r7, #28]
  pll_config = __HAL_RCC_GET_PLL_OSCSOURCE();
 8000fb6:	4bc5      	ldr	r3, [pc, #788]	; (80012cc <HAL_RCC_OscConfig+0x334>)
 8000fb8:	68da      	ldr	r2, [r3, #12]
 8000fba:	2380      	movs	r3, #128	; 0x80
 8000fbc:	025b      	lsls	r3, r3, #9
 8000fbe:	4013      	ands	r3, r2
 8000fc0:	61bb      	str	r3, [r7, #24]

  /*------------------------------- HSE Configuration ------------------------*/
  if(((RCC_OscInitStruct->OscillatorType) & RCC_OSCILLATORTYPE_HSE) == RCC_OSCILLATORTYPE_HSE)
 8000fc2:	687b      	ldr	r3, [r7, #4]
 8000fc4:	681b      	ldr	r3, [r3, #0]
 8000fc6:	2201      	movs	r2, #1
 8000fc8:	4013      	ands	r3, r2
 8000fca:	d100      	bne.n	8000fce <HAL_RCC_OscConfig+0x36>
 8000fcc:	e07d      	b.n	80010ca <HAL_RCC_OscConfig+0x132>
  {
    /* Check the parameters */
    assert_param(IS_RCC_HSE(RCC_OscInitStruct->HSEState));

    /* When the HSE is used as system clock or clock source for PLL in these cases it is not allowed to be disabled */
    if((sysclk_source == RCC_SYSCLKSOURCE_STATUS_HSE)
 8000fce:	69fb      	ldr	r3, [r7, #28]
 8000fd0:	2b08      	cmp	r3, #8
 8000fd2:	d007      	beq.n	8000fe4 <HAL_RCC_OscConfig+0x4c>
       || ((sysclk_source == RCC_SYSCLKSOURCE_STATUS_PLLCLK) && (pll_config == RCC_PLLSOURCE_HSE)))
 8000fd4:	69fb      	ldr	r3, [r7, #28]
 8000fd6:	2b0c      	cmp	r3, #12
 8000fd8:	d112      	bne.n	8001000 <HAL_RCC_OscConfig+0x68>
 8000fda:	69ba      	ldr	r2, [r7, #24]
 8000fdc:	2380      	movs	r3, #128	; 0x80
 8000fde:	025b      	lsls	r3, r3, #9
 8000fe0:	429a      	cmp	r2, r3
 8000fe2:	d10d      	bne.n	8001000 <HAL_RCC_OscConfig+0x68>
    {
      if((__HAL_RCC_GET_FLAG(RCC_FLAG_HSERDY) != 0U) && (RCC_OscInitStruct->HSEState == RCC_HSE_OFF))
 8000fe4:	4bb9      	ldr	r3, [pc, #740]	; (80012cc <HAL_RCC_OscConfig+0x334>)
 8000fe6:	681a      	ldr	r2, [r3, #0]
 8000fe8:	2380      	movs	r3, #128	; 0x80
 8000fea:	029b      	lsls	r3, r3, #10
 8000fec:	4013      	ands	r3, r2
 8000fee:	d100      	bne.n	8000ff2 <HAL_RCC_OscConfig+0x5a>
 8000ff0:	e06a      	b.n	80010c8 <HAL_RCC_OscConfig+0x130>
 8000ff2:	687b      	ldr	r3, [r7, #4]
 8000ff4:	685b      	ldr	r3, [r3, #4]
 8000ff6:	2b00      	cmp	r3, #0
 8000ff8:	d166      	bne.n	80010c8 <HAL_RCC_OscConfig+0x130>
      {
        return HAL_ERROR;
 8000ffa:	2301      	movs	r3, #1
 8000ffc:	f000 fb40 	bl	8001680 <HAL_RCC_OscConfig+0x6e8>
      }
    }
    else
    {
      /* Set the new HSE configuration ---------------------------------------*/
      __HAL_RCC_HSE_CONFIG(RCC_OscInitStruct->HSEState);
 8001000:	687b      	ldr	r3, [r7, #4]
 8001002:	685a      	ldr	r2, [r3, #4]
 8001004:	2380      	movs	r3, #128	; 0x80
 8001006:	025b      	lsls	r3, r3, #9
 8001008:	429a      	cmp	r2, r3
 800100a:	d107      	bne.n	800101c <HAL_RCC_OscConfig+0x84>
 800100c:	4baf      	ldr	r3, [pc, #700]	; (80012cc <HAL_RCC_OscConfig+0x334>)
 800100e:	681a      	ldr	r2, [r3, #0]
 8001010:	4bae      	ldr	r3, [pc, #696]	; (80012cc <HAL_RCC_OscConfig+0x334>)
 8001012:	2180      	movs	r1, #128	; 0x80
 8001014:	0249      	lsls	r1, r1, #9
 8001016:	430a      	orrs	r2, r1
 8001018:	601a      	str	r2, [r3, #0]
 800101a:	e027      	b.n	800106c <HAL_RCC_OscConfig+0xd4>
 800101c:	687b      	ldr	r3, [r7, #4]
 800101e:	685a      	ldr	r2, [r3, #4]
 8001020:	23a0      	movs	r3, #160	; 0xa0
 8001022:	02db      	lsls	r3, r3, #11
 8001024:	429a      	cmp	r2, r3
 8001026:	d10e      	bne.n	8001046 <HAL_RCC_OscConfig+0xae>
 8001028:	4ba8      	ldr	r3, [pc, #672]	; (80012cc <HAL_RCC_OscConfig+0x334>)
 800102a:	681a      	ldr	r2, [r3, #0]
 800102c:	4ba7      	ldr	r3, [pc, #668]	; (80012cc <HAL_RCC_OscConfig+0x334>)
 800102e:	2180      	movs	r1, #128	; 0x80
 8001030:	02c9      	lsls	r1, r1, #11
 8001032:	430a      	orrs	r2, r1
 8001034:	601a      	str	r2, [r3, #0]
 8001036:	4ba5      	ldr	r3, [pc, #660]	; (80012cc <HAL_RCC_OscConfig+0x334>)
 8001038:	681a      	ldr	r2, [r3, #0]
 800103a:	4ba4      	ldr	r3, [pc, #656]	; (80012cc <HAL_RCC_OscConfig+0x334>)
 800103c:	2180      	movs	r1, #128	; 0x80
 800103e:	0249      	lsls	r1, r1, #9
 8001040:	430a      	orrs	r2, r1
 8001042:	601a      	str	r2, [r3, #0]
 8001044:	e012      	b.n	800106c <HAL_RCC_OscConfig+0xd4>
 8001046:	4ba1      	ldr	r3, [pc, #644]	; (80012cc <HAL_RCC_OscConfig+0x334>)
 8001048:	681a      	ldr	r2, [r3, #0]
 800104a:	4ba0      	ldr	r3, [pc, #640]	; (80012cc <HAL_RCC_OscConfig+0x334>)
 800104c:	49a0      	ldr	r1, [pc, #640]	; (80012d0 <HAL_RCC_OscConfig+0x338>)
 800104e:	400a      	ands	r2, r1
 8001050:	601a      	str	r2, [r3, #0]
 8001052:	4b9e      	ldr	r3, [pc, #632]	; (80012cc <HAL_RCC_OscConfig+0x334>)
 8001054:	681a      	ldr	r2, [r3, #0]
 8001056:	2380      	movs	r3, #128	; 0x80
 8001058:	025b      	lsls	r3, r3, #9
 800105a:	4013      	ands	r3, r2
 800105c:	60fb      	str	r3, [r7, #12]
 800105e:	68fb      	ldr	r3, [r7, #12]
 8001060:	4b9a      	ldr	r3, [pc, #616]	; (80012cc <HAL_RCC_OscConfig+0x334>)
 8001062:	681a      	ldr	r2, [r3, #0]
 8001064:	4b99      	ldr	r3, [pc, #612]	; (80012cc <HAL_RCC_OscConfig+0x334>)
 8001066:	499b      	ldr	r1, [pc, #620]	; (80012d4 <HAL_RCC_OscConfig+0x33c>)
 8001068:	400a      	ands	r2, r1
 800106a:	601a      	str	r2, [r3, #0]

      /* Check the HSE State */
      if(RCC_OscInitStruct->HSEState != RCC_HSE_OFF)
 800106c:	687b      	ldr	r3, [r7, #4]
 800106e:	685b      	ldr	r3, [r3, #4]
 8001070:	2b00      	cmp	r3, #0
 8001072:	d014      	beq.n	800109e <HAL_RCC_OscConfig+0x106>
      {
        /* Get Start Tick */
        tickstart = HAL_GetTick();
 8001074:	f7ff fcdc 	bl	8000a30 <HAL_GetTick>
 8001078:	0003      	movs	r3, r0
 800107a:	617b      	str	r3, [r7, #20]

        /* Wait till HSE is ready */
        while(__HAL_RCC_GET_FLAG(RCC_FLAG_HSERDY) == 0U)
 800107c:	e008      	b.n	8001090 <HAL_RCC_OscConfig+0xf8>
        {
          if((HAL_GetTick() - tickstart ) > HSE_TIMEOUT_VALUE)
 800107e:	f7ff fcd7 	bl	8000a30 <HAL_GetTick>
 8001082:	0002      	movs	r2, r0
 8001084:	697b      	ldr	r3, [r7, #20]
 8001086:	1ad3      	subs	r3, r2, r3
 8001088:	2b64      	cmp	r3, #100	; 0x64
 800108a:	d901      	bls.n	8001090 <HAL_RCC_OscConfig+0xf8>
          {
            return HAL_TIMEOUT;
 800108c:	2303      	movs	r3, #3
 800108e:	e2f7      	b.n	8001680 <HAL_RCC_OscConfig+0x6e8>
        while(__HAL_RCC_GET_FLAG(RCC_FLAG_HSERDY) == 0U)
 8001090:	4b8e      	ldr	r3, [pc, #568]	; (80012cc <HAL_RCC_OscConfig+0x334>)
 8001092:	681a      	ldr	r2, [r3, #0]
 8001094:	2380      	movs	r3, #128	; 0x80
 8001096:	029b      	lsls	r3, r3, #10
 8001098:	4013      	ands	r3, r2
 800109a:	d0f0      	beq.n	800107e <HAL_RCC_OscConfig+0xe6>
 800109c:	e015      	b.n	80010ca <HAL_RCC_OscConfig+0x132>
        }
      }
      else
      {
        /* Get Start Tick */
        tickstart = HAL_GetTick();
 800109e:	f7ff fcc7 	bl	8000a30 <HAL_GetTick>
 80010a2:	0003      	movs	r3, r0
 80010a4:	617b      	str	r3, [r7, #20]

        /* Wait till HSE is disabled */
        while(__HAL_RCC_GET_FLAG(RCC_FLAG_HSERDY) != 0U)
 80010a6:	e008      	b.n	80010ba <HAL_RCC_OscConfig+0x122>
        {
           if((HAL_GetTick() - tickstart ) > HSE_TIMEOUT_VALUE)
 80010a8:	f7ff fcc2 	bl	8000a30 <HAL_GetTick>
 80010ac:	0002      	movs	r2, r0
 80010ae:	697b      	ldr	r3, [r7, #20]
 80010b0:	1ad3      	subs	r3, r2, r3
 80010b2:	2b64      	cmp	r3, #100	; 0x64
 80010b4:	d901      	bls.n	80010ba <HAL_RCC_OscConfig+0x122>
          {
            return HAL_TIMEOUT;
 80010b6:	2303      	movs	r3, #3
 80010b8:	e2e2      	b.n	8001680 <HAL_RCC_OscConfig+0x6e8>
        while(__HAL_RCC_GET_FLAG(RCC_FLAG_HSERDY) != 0U)
 80010ba:	4b84      	ldr	r3, [pc, #528]	; (80012cc <HAL_RCC_OscConfig+0x334>)
 80010bc:	681a      	ldr	r2, [r3, #0]
 80010be:	2380      	movs	r3, #128	; 0x80
 80010c0:	029b      	lsls	r3, r3, #10
 80010c2:	4013      	ands	r3, r2
 80010c4:	d1f0      	bne.n	80010a8 <HAL_RCC_OscConfig+0x110>
 80010c6:	e000      	b.n	80010ca <HAL_RCC_OscConfig+0x132>
      if((__HAL_RCC_GET_FLAG(RCC_FLAG_HSERDY) != 0U) && (RCC_OscInitStruct->HSEState == RCC_HSE_OFF))
 80010c8:	46c0      	nop			; (mov r8, r8)
        }
      }
    }
  }
  /*----------------------------- HSI Configuration --------------------------*/
  if(((RCC_OscInitStruct->OscillatorType) & RCC_OSCILLATORTYPE_HSI) == RCC_OSCILLATORTYPE_HSI)
 80010ca:	687b      	ldr	r3, [r7, #4]
 80010cc:	681b      	ldr	r3, [r3, #0]
 80010ce:	2202      	movs	r2, #2
 80010d0:	4013      	ands	r3, r2
 80010d2:	d100      	bne.n	80010d6 <HAL_RCC_OscConfig+0x13e>
 80010d4:	e098      	b.n	8001208 <HAL_RCC_OscConfig+0x270>
  {
    /* Check the parameters */
    assert_param(IS_RCC_HSI(RCC_OscInitStruct->HSIState));
    assert_param(IS_RCC_CALIBRATION_VALUE(RCC_OscInitStruct->HSICalibrationValue));

    hsi_state = RCC_OscInitStruct->HSIState;
 80010d6:	687b      	ldr	r3, [r7, #4]
 80010d8:	68db      	ldr	r3, [r3, #12]
 80010da:	627b      	str	r3, [r7, #36]	; 0x24

#if defined(RCC_CR_HSIOUTEN)
    if((hsi_state & RCC_HSI_OUTEN) != 0U)
 80010dc:	6a7b      	ldr	r3, [r7, #36]	; 0x24
 80010de:	2220      	movs	r2, #32
 80010e0:	4013      	ands	r3, r2
 80010e2:	d009      	beq.n	80010f8 <HAL_RCC_OscConfig+0x160>
    {
      /* HSI Output enable for timer requested */
      SET_BIT(RCC->CR, RCC_CR_HSIOUTEN);
 80010e4:	4b79      	ldr	r3, [pc, #484]	; (80012cc <HAL_RCC_OscConfig+0x334>)
 80010e6:	681a      	ldr	r2, [r3, #0]
 80010e8:	4b78      	ldr	r3, [pc, #480]	; (80012cc <HAL_RCC_OscConfig+0x334>)
 80010ea:	2120      	movs	r1, #32
 80010ec:	430a      	orrs	r2, r1
 80010ee:	601a      	str	r2, [r3, #0]

      hsi_state &= ~RCC_CR_HSIOUTEN;
 80010f0:	6a7b      	ldr	r3, [r7, #36]	; 0x24
 80010f2:	2220      	movs	r2, #32
 80010f4:	4393      	bics	r3, r2
 80010f6:	627b      	str	r3, [r7, #36]	; 0x24
    }
#endif

    /* Check if HSI is used as system clock or as PLL source when PLL is selected as system clock */
    if((sysclk_source == RCC_SYSCLKSOURCE_STATUS_HSI)
 80010f8:	69fb      	ldr	r3, [r7, #28]
 80010fa:	2b04      	cmp	r3, #4
 80010fc:	d005      	beq.n	800110a <HAL_RCC_OscConfig+0x172>
       || ((sysclk_source == RCC_SYSCLKSOURCE_STATUS_PLLCLK) && (pll_config == RCC_PLLSOURCE_HSI)))
 80010fe:	69fb      	ldr	r3, [r7, #28]
 8001100:	2b0c      	cmp	r3, #12
 8001102:	d13d      	bne.n	8001180 <HAL_RCC_OscConfig+0x1e8>
 8001104:	69bb      	ldr	r3, [r7, #24]
 8001106:	2b00      	cmp	r3, #0
 8001108:	d13a      	bne.n	8001180 <HAL_RCC_OscConfig+0x1e8>
    {
      /* When HSI is used as system clock it will not disabled */
      if((__HAL_RCC_GET_FLAG(RCC_FLAG_HSIRDY) != 0U) && (hsi_state == RCC_HSI_OFF))
 800110a:	4b70      	ldr	r3, [pc, #448]	; (80012cc <HAL_RCC_OscConfig+0x334>)
 800110c:	681b      	ldr	r3, [r3, #0]
 800110e:	2204      	movs	r2, #4
 8001110:	4013      	ands	r3, r2
 8001112:	d004      	beq.n	800111e <HAL_RCC_OscConfig+0x186>
 8001114:	6a7b      	ldr	r3, [r7, #36]	; 0x24
 8001116:	2b00      	cmp	r3, #0
 8001118:	d101      	bne.n	800111e <HAL_RCC_OscConfig+0x186>
      {
        return HAL_ERROR;
 800111a:	2301      	movs	r3, #1
 800111c:	e2b0      	b.n	8001680 <HAL_RCC_OscConfig+0x6e8>
      }
      /* Otherwise, just the calibration and HSI or HSIdiv4 are allowed */
      else
      {
        /* Adjusts the Internal High Speed oscillator (HSI) calibration value.*/
        __HAL_RCC_HSI_CALIBRATIONVALUE_ADJUST(RCC_OscInitStruct->HSICalibrationValue);
 800111e:	4b6b      	ldr	r3, [pc, #428]	; (80012cc <HAL_RCC_OscConfig+0x334>)
 8001120:	685b      	ldr	r3, [r3, #4]
 8001122:	4a6d      	ldr	r2, [pc, #436]	; (80012d8 <HAL_RCC_OscConfig+0x340>)
 8001124:	4013      	ands	r3, r2
 8001126:	0019      	movs	r1, r3
 8001128:	687b      	ldr	r3, [r7, #4]
 800112a:	691b      	ldr	r3, [r3, #16]
 800112c:	021a      	lsls	r2, r3, #8
 800112e:	4b67      	ldr	r3, [pc, #412]	; (80012cc <HAL_RCC_OscConfig+0x334>)
 8001130:	430a      	orrs	r2, r1
 8001132:	605a      	str	r2, [r3, #4]

        /* Enable the Internal High Speed oscillator (HSI or HSIdiv4) */
        __HAL_RCC_HSI_CONFIG(hsi_state);
 8001134:	4b65      	ldr	r3, [pc, #404]	; (80012cc <HAL_RCC_OscConfig+0x334>)
 8001136:	681b      	ldr	r3, [r3, #0]
 8001138:	2209      	movs	r2, #9
 800113a:	4393      	bics	r3, r2
 800113c:	0019      	movs	r1, r3
 800113e:	4b63      	ldr	r3, [pc, #396]	; (80012cc <HAL_RCC_OscConfig+0x334>)
 8001140:	6a7a      	ldr	r2, [r7, #36]	; 0x24
 8001142:	430a      	orrs	r2, r1
 8001144:	601a      	str	r2, [r3, #0]
      }

      /* Update the SystemCoreClock global variable */
      SystemCoreClock = HAL_RCC_GetSysClockFreq() >> AHBPrescTable[(RCC->CFGR & RCC_CFGR_HPRE)>> RCC_CFGR_HPRE_Pos];
 8001146:	f000 fbcb 	bl	80018e0 <HAL_RCC_GetSysClockFreq>
 800114a:	0001      	movs	r1, r0
 800114c:	4b5f      	ldr	r3, [pc, #380]	; (80012cc <HAL_RCC_OscConfig+0x334>)
 800114e:	68db      	ldr	r3, [r3, #12]
 8001150:	091b      	lsrs	r3, r3, #4
 8001152:	220f      	movs	r2, #15
 8001154:	4013      	ands	r3, r2
 8001156:	4a61      	ldr	r2, [pc, #388]	; (80012dc <HAL_RCC_OscConfig+0x344>)
 8001158:	5cd3      	ldrb	r3, [r2, r3]
 800115a:	000a      	movs	r2, r1
 800115c:	40da      	lsrs	r2, r3
 800115e:	4b60      	ldr	r3, [pc, #384]	; (80012e0 <HAL_RCC_OscConfig+0x348>)
 8001160:	601a      	str	r2, [r3, #0]

      /* Configure the source of time base considering new system clocks settings*/
      status = HAL_InitTick (TICK_INT_PRIORITY);
 8001162:	2513      	movs	r5, #19
 8001164:	197c      	adds	r4, r7, r5
 8001166:	2000      	movs	r0, #0
 8001168:	f7ff fc2c 	bl	80009c4 <HAL_InitTick>
 800116c:	0003      	movs	r3, r0
 800116e:	7023      	strb	r3, [r4, #0]
      if(status != HAL_OK)
 8001170:	197b      	adds	r3, r7, r5
 8001172:	781b      	ldrb	r3, [r3, #0]
 8001174:	2b00      	cmp	r3, #0
 8001176:	d047      	beq.n	8001208 <HAL_RCC_OscConfig+0x270>
      {
        return status;
 8001178:	2313      	movs	r3, #19
 800117a:	18fb      	adds	r3, r7, r3
 800117c:	781b      	ldrb	r3, [r3, #0]
 800117e:	e27f      	b.n	8001680 <HAL_RCC_OscConfig+0x6e8>
      }
    }
    else
    {
      /* Check the HSI State */
      if(hsi_state != RCC_HSI_OFF)
 8001180:	6a7b      	ldr	r3, [r7, #36]	; 0x24
 8001182:	2b00      	cmp	r3, #0
 8001184:	d027      	beq.n	80011d6 <HAL_RCC_OscConfig+0x23e>
      {
        /* Enable the Internal High Speed oscillator (HSI or HSIdiv4) */
        __HAL_RCC_HSI_CONFIG(hsi_state);
 8001186:	4b51      	ldr	r3, [pc, #324]	; (80012cc <HAL_RCC_OscConfig+0x334>)
 8001188:	681b      	ldr	r3, [r3, #0]
 800118a:	2209      	movs	r2, #9
 800118c:	4393      	bics	r3, r2
 800118e:	0019      	movs	r1, r3
 8001190:	4b4e      	ldr	r3, [pc, #312]	; (80012cc <HAL_RCC_OscConfig+0x334>)
 8001192:	6a7a      	ldr	r2, [r7, #36]	; 0x24
 8001194:	430a      	orrs	r2, r1
 8001196:	601a      	str	r2, [r3, #0]

        /* Get Start Tick */
        tickstart = HAL_GetTick();
 8001198:	f7ff fc4a 	bl	8000a30 <HAL_GetTick>
 800119c:	0003      	movs	r3, r0
 800119e:	617b      	str	r3, [r7, #20]

        /* Wait till HSI is ready */
        while(__HAL_RCC_GET_FLAG(RCC_FLAG_HSIRDY) == 0U)
 80011a0:	e008      	b.n	80011b4 <HAL_RCC_OscConfig+0x21c>
        {
          if((HAL_GetTick() - tickstart ) > HSI_TIMEOUT_VALUE)
 80011a2:	f7ff fc45 	bl	8000a30 <HAL_GetTick>
 80011a6:	0002      	movs	r2, r0
 80011a8:	697b      	ldr	r3, [r7, #20]
 80011aa:	1ad3      	subs	r3, r2, r3
 80011ac:	2b02      	cmp	r3, #2
 80011ae:	d901      	bls.n	80011b4 <HAL_RCC_OscConfig+0x21c>
          {
            return HAL_TIMEOUT;
 80011b0:	2303      	movs	r3, #3
 80011b2:	e265      	b.n	8001680 <HAL_RCC_OscConfig+0x6e8>
        while(__HAL_RCC_GET_FLAG(RCC_FLAG_HSIRDY) == 0U)
 80011b4:	4b45      	ldr	r3, [pc, #276]	; (80012cc <HAL_RCC_OscConfig+0x334>)
 80011b6:	681b      	ldr	r3, [r3, #0]
 80011b8:	2204      	movs	r2, #4
 80011ba:	4013      	ands	r3, r2
 80011bc:	d0f1      	beq.n	80011a2 <HAL_RCC_OscConfig+0x20a>
          }
        }

        /* Adjusts the Internal High Speed oscillator (HSI) calibration value.*/
        __HAL_RCC_HSI_CALIBRATIONVALUE_ADJUST(RCC_OscInitStruct->HSICalibrationValue);
 80011be:	4b43      	ldr	r3, [pc, #268]	; (80012cc <HAL_RCC_OscConfig+0x334>)
 80011c0:	685b      	ldr	r3, [r3, #4]
 80011c2:	4a45      	ldr	r2, [pc, #276]	; (80012d8 <HAL_RCC_OscConfig+0x340>)
 80011c4:	4013      	ands	r3, r2
 80011c6:	0019      	movs	r1, r3
 80011c8:	687b      	ldr	r3, [r7, #4]
 80011ca:	691b      	ldr	r3, [r3, #16]
 80011cc:	021a      	lsls	r2, r3, #8
 80011ce:	4b3f      	ldr	r3, [pc, #252]	; (80012cc <HAL_RCC_OscConfig+0x334>)
 80011d0:	430a      	orrs	r2, r1
 80011d2:	605a      	str	r2, [r3, #4]
 80011d4:	e018      	b.n	8001208 <HAL_RCC_OscConfig+0x270>
      }
      else
      {
        /* Disable the Internal High Speed oscillator (HSI). */
        __HAL_RCC_HSI_DISABLE();
 80011d6:	4b3d      	ldr	r3, [pc, #244]	; (80012cc <HAL_RCC_OscConfig+0x334>)
 80011d8:	681a      	ldr	r2, [r3, #0]
 80011da:	4b3c      	ldr	r3, [pc, #240]	; (80012cc <HAL_RCC_OscConfig+0x334>)
 80011dc:	2101      	movs	r1, #1
 80011de:	438a      	bics	r2, r1
 80011e0:	601a      	str	r2, [r3, #0]

        /* Get Start Tick */
        tickstart = HAL_GetTick();
 80011e2:	f7ff fc25 	bl	8000a30 <HAL_GetTick>
 80011e6:	0003      	movs	r3, r0
 80011e8:	617b      	str	r3, [r7, #20]

        /* Wait till HSI is disabled */
        while(__HAL_RCC_GET_FLAG(RCC_FLAG_HSIRDY) != 0U)
 80011ea:	e008      	b.n	80011fe <HAL_RCC_OscConfig+0x266>
        {
          if((HAL_GetTick() - tickstart ) > HSI_TIMEOUT_VALUE)
 80011ec:	f7ff fc20 	bl	8000a30 <HAL_GetTick>
 80011f0:	0002      	movs	r2, r0
 80011f2:	697b      	ldr	r3, [r7, #20]
 80011f4:	1ad3      	subs	r3, r2, r3
 80011f6:	2b02      	cmp	r3, #2
 80011f8:	d901      	bls.n	80011fe <HAL_RCC_OscConfig+0x266>
          {
            return HAL_TIMEOUT;
 80011fa:	2303      	movs	r3, #3
 80011fc:	e240      	b.n	8001680 <HAL_RCC_OscConfig+0x6e8>
        while(__HAL_RCC_GET_FLAG(RCC_FLAG_HSIRDY) != 0U)
 80011fe:	4b33      	ldr	r3, [pc, #204]	; (80012cc <HAL_RCC_OscConfig+0x334>)
 8001200:	681b      	ldr	r3, [r3, #0]
 8001202:	2204      	movs	r2, #4
 8001204:	4013      	ands	r3, r2
 8001206:	d1f1      	bne.n	80011ec <HAL_RCC_OscConfig+0x254>
        }
      }
    }
  }
  /*----------------------------- MSI Configuration --------------------------*/
  if(((RCC_OscInitStruct->OscillatorType) & RCC_OSCILLATORTYPE_MSI) == RCC_OSCILLATORTYPE_MSI)
 8001208:	687b      	ldr	r3, [r7, #4]
 800120a:	681b      	ldr	r3, [r3, #0]
 800120c:	2210      	movs	r2, #16
 800120e:	4013      	ands	r3, r2
 8001210:	d100      	bne.n	8001214 <HAL_RCC_OscConfig+0x27c>
 8001212:	e09e      	b.n	8001352 <HAL_RCC_OscConfig+0x3ba>
  {
    /* When the MSI is used as system clock it will not be disabled */
    if((sysclk_source == RCC_CFGR_SWS_MSI) )
 8001214:	69fb      	ldr	r3, [r7, #28]
 8001216:	2b00      	cmp	r3, #0
 8001218:	d13f      	bne.n	800129a <HAL_RCC_OscConfig+0x302>
    {
      if((__HAL_RCC_GET_FLAG(RCC_FLAG_MSIRDY) != 0U) && (RCC_OscInitStruct->MSIState == RCC_MSI_OFF))
 800121a:	4b2c      	ldr	r3, [pc, #176]	; (80012cc <HAL_RCC_OscConfig+0x334>)
 800121c:	681a      	ldr	r2, [r3, #0]
 800121e:	2380      	movs	r3, #128	; 0x80
 8001220:	009b      	lsls	r3, r3, #2
 8001222:	4013      	ands	r3, r2
 8001224:	d005      	beq.n	8001232 <HAL_RCC_OscConfig+0x29a>
 8001226:	687b      	ldr	r3, [r7, #4]
 8001228:	699b      	ldr	r3, [r3, #24]
 800122a:	2b00      	cmp	r3, #0
 800122c:	d101      	bne.n	8001232 <HAL_RCC_OscConfig+0x29a>
      {
        return HAL_ERROR;
 800122e:	2301      	movs	r3, #1
 8001230:	e226      	b.n	8001680 <HAL_RCC_OscConfig+0x6e8>
        /* Check MSICalibrationValue and MSIClockRange input parameters */
        assert_param(IS_RCC_MSICALIBRATION_VALUE(RCC_OscInitStruct->MSICalibrationValue));
        assert_param(IS_RCC_MSI_CLOCK_RANGE(RCC_OscInitStruct->MSIClockRange));

        /* Selects the Multiple Speed oscillator (MSI) clock range .*/
        __HAL_RCC_MSI_RANGE_CONFIG(RCC_OscInitStruct->MSIClockRange);
 8001232:	4b26      	ldr	r3, [pc, #152]	; (80012cc <HAL_RCC_OscConfig+0x334>)
 8001234:	685b      	ldr	r3, [r3, #4]
 8001236:	4a2b      	ldr	r2, [pc, #172]	; (80012e4 <HAL_RCC_OscConfig+0x34c>)
 8001238:	4013      	ands	r3, r2
 800123a:	0019      	movs	r1, r3
 800123c:	687b      	ldr	r3, [r7, #4]
 800123e:	6a1a      	ldr	r2, [r3, #32]
 8001240:	4b22      	ldr	r3, [pc, #136]	; (80012cc <HAL_RCC_OscConfig+0x334>)
 8001242:	430a      	orrs	r2, r1
 8001244:	605a      	str	r2, [r3, #4]
        /* Adjusts the Multiple Speed oscillator (MSI) calibration value.*/
        __HAL_RCC_MSI_CALIBRATIONVALUE_ADJUST(RCC_OscInitStruct->MSICalibrationValue);
 8001246:	4b21      	ldr	r3, [pc, #132]	; (80012cc <HAL_RCC_OscConfig+0x334>)
 8001248:	685b      	ldr	r3, [r3, #4]
 800124a:	021b      	lsls	r3, r3, #8
 800124c:	0a19      	lsrs	r1, r3, #8
 800124e:	687b      	ldr	r3, [r7, #4]
 8001250:	69db      	ldr	r3, [r3, #28]
 8001252:	061a      	lsls	r2, r3, #24
 8001254:	4b1d      	ldr	r3, [pc, #116]	; (80012cc <HAL_RCC_OscConfig+0x334>)
 8001256:	430a      	orrs	r2, r1
 8001258:	605a      	str	r2, [r3, #4]


        /* Update the SystemCoreClock global variable */
        SystemCoreClock =  (32768U * (1UL << ((RCC_OscInitStruct->MSIClockRange >> RCC_ICSCR_MSIRANGE_Pos) + 1U)))
 800125a:	687b      	ldr	r3, [r7, #4]
 800125c:	6a1b      	ldr	r3, [r3, #32]
 800125e:	0b5b      	lsrs	r3, r3, #13
 8001260:	3301      	adds	r3, #1
 8001262:	2280      	movs	r2, #128	; 0x80
 8001264:	0212      	lsls	r2, r2, #8
 8001266:	409a      	lsls	r2, r3
                           >> AHBPrescTable[((RCC->CFGR & RCC_CFGR_HPRE) >> RCC_CFGR_HPRE_Pos)];
 8001268:	4b18      	ldr	r3, [pc, #96]	; (80012cc <HAL_RCC_OscConfig+0x334>)
 800126a:	68db      	ldr	r3, [r3, #12]
 800126c:	091b      	lsrs	r3, r3, #4
 800126e:	210f      	movs	r1, #15
 8001270:	400b      	ands	r3, r1
 8001272:	491a      	ldr	r1, [pc, #104]	; (80012dc <HAL_RCC_OscConfig+0x344>)
 8001274:	5ccb      	ldrb	r3, [r1, r3]
 8001276:	40da      	lsrs	r2, r3
        SystemCoreClock =  (32768U * (1UL << ((RCC_OscInitStruct->MSIClockRange >> RCC_ICSCR_MSIRANGE_Pos) + 1U)))
 8001278:	4b19      	ldr	r3, [pc, #100]	; (80012e0 <HAL_RCC_OscConfig+0x348>)
 800127a:	601a      	str	r2, [r3, #0]

        /* Configure the source of time base considering new system clocks settings*/
        status = HAL_InitTick (TICK_INT_PRIORITY);
 800127c:	2513      	movs	r5, #19
 800127e:	197c      	adds	r4, r7, r5
 8001280:	2000      	movs	r0, #0
 8001282:	f7ff fb9f 	bl	80009c4 <HAL_InitTick>
 8001286:	0003      	movs	r3, r0
 8001288:	7023      	strb	r3, [r4, #0]
        if(status != HAL_OK)
 800128a:	197b      	adds	r3, r7, r5
 800128c:	781b      	ldrb	r3, [r3, #0]
 800128e:	2b00      	cmp	r3, #0
 8001290:	d05f      	beq.n	8001352 <HAL_RCC_OscConfig+0x3ba>
        {
          return status;
 8001292:	2313      	movs	r3, #19
 8001294:	18fb      	adds	r3, r7, r3
 8001296:	781b      	ldrb	r3, [r3, #0]
 8001298:	e1f2      	b.n	8001680 <HAL_RCC_OscConfig+0x6e8>
    {
      /* Check MSI State */
      assert_param(IS_RCC_MSI(RCC_OscInitStruct->MSIState));

      /* Check the MSI State */
      if(RCC_OscInitStruct->MSIState != RCC_MSI_OFF)
 800129a:	687b      	ldr	r3, [r7, #4]
 800129c:	699b      	ldr	r3, [r3, #24]
 800129e:	2b00      	cmp	r3, #0
 80012a0:	d03d      	beq.n	800131e <HAL_RCC_OscConfig+0x386>
      {
        /* Enable the Multi Speed oscillator (MSI). */
        __HAL_RCC_MSI_ENABLE();
 80012a2:	4b0a      	ldr	r3, [pc, #40]	; (80012cc <HAL_RCC_OscConfig+0x334>)
 80012a4:	681a      	ldr	r2, [r3, #0]
 80012a6:	4b09      	ldr	r3, [pc, #36]	; (80012cc <HAL_RCC_OscConfig+0x334>)
 80012a8:	2180      	movs	r1, #128	; 0x80
 80012aa:	0049      	lsls	r1, r1, #1
 80012ac:	430a      	orrs	r2, r1
 80012ae:	601a      	str	r2, [r3, #0]

        /* Get Start Tick */
        tickstart = HAL_GetTick();
 80012b0:	f7ff fbbe 	bl	8000a30 <HAL_GetTick>
 80012b4:	0003      	movs	r3, r0
 80012b6:	617b      	str	r3, [r7, #20]

        /* Wait till MSI is ready */
        while(__HAL_RCC_GET_FLAG(RCC_FLAG_MSIRDY) == 0U)
 80012b8:	e016      	b.n	80012e8 <HAL_RCC_OscConfig+0x350>
        {
          if((HAL_GetTick() - tickstart) > MSI_TIMEOUT_VALUE)
 80012ba:	f7ff fbb9 	bl	8000a30 <HAL_GetTick>
 80012be:	0002      	movs	r2, r0
 80012c0:	697b      	ldr	r3, [r7, #20]
 80012c2:	1ad3      	subs	r3, r2, r3
 80012c4:	2b02      	cmp	r3, #2
 80012c6:	d90f      	bls.n	80012e8 <HAL_RCC_OscConfig+0x350>
          {
            return HAL_TIMEOUT;
 80012c8:	2303      	movs	r3, #3
 80012ca:	e1d9      	b.n	8001680 <HAL_RCC_OscConfig+0x6e8>
 80012cc:	40021000 	.word	0x40021000
 80012d0:	fffeffff 	.word	0xfffeffff
 80012d4:	fffbffff 	.word	0xfffbffff
 80012d8:	ffffe0ff 	.word	0xffffe0ff
 80012dc:	08001a58 	.word	0x08001a58
 80012e0:	20000000 	.word	0x20000000
 80012e4:	ffff1fff 	.word	0xffff1fff
        while(__HAL_RCC_GET_FLAG(RCC_FLAG_MSIRDY) == 0U)
 80012e8:	4bca      	ldr	r3, [pc, #808]	; (8001614 <HAL_RCC_OscConfig+0x67c>)
 80012ea:	681a      	ldr	r2, [r3, #0]
 80012ec:	2380      	movs	r3, #128	; 0x80
 80012ee:	009b      	lsls	r3, r3, #2
 80012f0:	4013      	ands	r3, r2
 80012f2:	d0e2      	beq.n	80012ba <HAL_RCC_OscConfig+0x322>
        /* Check MSICalibrationValue and MSIClockRange input parameters */
        assert_param(IS_RCC_MSICALIBRATION_VALUE(RCC_OscInitStruct->MSICalibrationValue));
        assert_param(IS_RCC_MSI_CLOCK_RANGE(RCC_OscInitStruct->MSIClockRange));

        /* Selects the Multiple Speed oscillator (MSI) clock range .*/
        __HAL_RCC_MSI_RANGE_CONFIG(RCC_OscInitStruct->MSIClockRange);
 80012f4:	4bc7      	ldr	r3, [pc, #796]	; (8001614 <HAL_RCC_OscConfig+0x67c>)
 80012f6:	685b      	ldr	r3, [r3, #4]
 80012f8:	4ac7      	ldr	r2, [pc, #796]	; (8001618 <HAL_RCC_OscConfig+0x680>)
 80012fa:	4013      	ands	r3, r2
 80012fc:	0019      	movs	r1, r3
 80012fe:	687b      	ldr	r3, [r7, #4]
 8001300:	6a1a      	ldr	r2, [r3, #32]
 8001302:	4bc4      	ldr	r3, [pc, #784]	; (8001614 <HAL_RCC_OscConfig+0x67c>)
 8001304:	430a      	orrs	r2, r1
 8001306:	605a      	str	r2, [r3, #4]
         /* Adjusts the Multiple Speed oscillator (MSI) calibration value.*/
        __HAL_RCC_MSI_CALIBRATIONVALUE_ADJUST(RCC_OscInitStruct->MSICalibrationValue);
 8001308:	4bc2      	ldr	r3, [pc, #776]	; (8001614 <HAL_RCC_OscConfig+0x67c>)
 800130a:	685b      	ldr	r3, [r3, #4]
 800130c:	021b      	lsls	r3, r3, #8
 800130e:	0a19      	lsrs	r1, r3, #8
 8001310:	687b      	ldr	r3, [r7, #4]
 8001312:	69db      	ldr	r3, [r3, #28]
 8001314:	061a      	lsls	r2, r3, #24
 8001316:	4bbf      	ldr	r3, [pc, #764]	; (8001614 <HAL_RCC_OscConfig+0x67c>)
 8001318:	430a      	orrs	r2, r1
 800131a:	605a      	str	r2, [r3, #4]
 800131c:	e019      	b.n	8001352 <HAL_RCC_OscConfig+0x3ba>
      }
      else
      {
        /* Disable the Multi Speed oscillator (MSI). */
        __HAL_RCC_MSI_DISABLE();
 800131e:	4bbd      	ldr	r3, [pc, #756]	; (8001614 <HAL_RCC_OscConfig+0x67c>)
 8001320:	681a      	ldr	r2, [r3, #0]
 8001322:	4bbc      	ldr	r3, [pc, #752]	; (8001614 <HAL_RCC_OscConfig+0x67c>)
 8001324:	49bd      	ldr	r1, [pc, #756]	; (800161c <HAL_RCC_OscConfig+0x684>)
 8001326:	400a      	ands	r2, r1
 8001328:	601a      	str	r2, [r3, #0]

        /* Get Start Tick */
        tickstart = HAL_GetTick();
 800132a:	f7ff fb81 	bl	8000a30 <HAL_GetTick>
 800132e:	0003      	movs	r3, r0
 8001330:	617b      	str	r3, [r7, #20]

        /* Wait till MSI is ready */
        while(__HAL_RCC_GET_FLAG(RCC_FLAG_MSIRDY) != 0U)
 8001332:	e008      	b.n	8001346 <HAL_RCC_OscConfig+0x3ae>
        {
          if((HAL_GetTick() - tickstart) > MSI_TIMEOUT_VALUE)
 8001334:	f7ff fb7c 	bl	8000a30 <HAL_GetTick>
 8001338:	0002      	movs	r2, r0
 800133a:	697b      	ldr	r3, [r7, #20]
 800133c:	1ad3      	subs	r3, r2, r3
 800133e:	2b02      	cmp	r3, #2
 8001340:	d901      	bls.n	8001346 <HAL_RCC_OscConfig+0x3ae>
          {
            return HAL_TIMEOUT;
 8001342:	2303      	movs	r3, #3
 8001344:	e19c      	b.n	8001680 <HAL_RCC_OscConfig+0x6e8>
        while(__HAL_RCC_GET_FLAG(RCC_FLAG_MSIRDY) != 0U)
 8001346:	4bb3      	ldr	r3, [pc, #716]	; (8001614 <HAL_RCC_OscConfig+0x67c>)
 8001348:	681a      	ldr	r2, [r3, #0]
 800134a:	2380      	movs	r3, #128	; 0x80
 800134c:	009b      	lsls	r3, r3, #2
 800134e:	4013      	ands	r3, r2
 8001350:	d1f0      	bne.n	8001334 <HAL_RCC_OscConfig+0x39c>
        }
      }
    }
  }
  /*------------------------------ LSI Configuration -------------------------*/
  if(((RCC_OscInitStruct->OscillatorType) & RCC_OSCILLATORTYPE_LSI) == RCC_OSCILLATORTYPE_LSI)
 8001352:	687b      	ldr	r3, [r7, #4]
 8001354:	681b      	ldr	r3, [r3, #0]
 8001356:	2208      	movs	r2, #8
 8001358:	4013      	ands	r3, r2
 800135a:	d036      	beq.n	80013ca <HAL_RCC_OscConfig+0x432>
  {
    /* Check the parameters */
    assert_param(IS_RCC_LSI(RCC_OscInitStruct->LSIState));

    /* Check the LSI State */
    if(RCC_OscInitStruct->LSIState != RCC_LSI_OFF)
 800135c:	687b      	ldr	r3, [r7, #4]
 800135e:	695b      	ldr	r3, [r3, #20]
 8001360:	2b00      	cmp	r3, #0
 8001362:	d019      	beq.n	8001398 <HAL_RCC_OscConfig+0x400>
    {
      /* Enable the Internal Low Speed oscillator (LSI). */
      __HAL_RCC_LSI_ENABLE();
 8001364:	4bab      	ldr	r3, [pc, #684]	; (8001614 <HAL_RCC_OscConfig+0x67c>)
 8001366:	6d1a      	ldr	r2, [r3, #80]	; 0x50
 8001368:	4baa      	ldr	r3, [pc, #680]	; (8001614 <HAL_RCC_OscConfig+0x67c>)
 800136a:	2101      	movs	r1, #1
 800136c:	430a      	orrs	r2, r1
 800136e:	651a      	str	r2, [r3, #80]	; 0x50

      /* Get Start Tick */
      tickstart = HAL_GetTick();
 8001370:	f7ff fb5e 	bl	8000a30 <HAL_GetTick>
 8001374:	0003      	movs	r3, r0
 8001376:	617b      	str	r3, [r7, #20]

      /* Wait till LSI is ready */
      while(__HAL_RCC_GET_FLAG(RCC_FLAG_LSIRDY) == 0U)
 8001378:	e008      	b.n	800138c <HAL_RCC_OscConfig+0x3f4>
      {
        if((HAL_GetTick() - tickstart ) > LSI_TIMEOUT_VALUE)
 800137a:	f7ff fb59 	bl	8000a30 <HAL_GetTick>
 800137e:	0002      	movs	r2, r0
 8001380:	697b      	ldr	r3, [r7, #20]
 8001382:	1ad3      	subs	r3, r2, r3
 8001384:	2b02      	cmp	r3, #2
 8001386:	d901      	bls.n	800138c <HAL_RCC_OscConfig+0x3f4>
        {
          return HAL_TIMEOUT;
 8001388:	2303      	movs	r3, #3
 800138a:	e179      	b.n	8001680 <HAL_RCC_OscConfig+0x6e8>
      while(__HAL_RCC_GET_FLAG(RCC_FLAG_LSIRDY) == 0U)
 800138c:	4ba1      	ldr	r3, [pc, #644]	; (8001614 <HAL_RCC_OscConfig+0x67c>)
 800138e:	6d1b      	ldr	r3, [r3, #80]	; 0x50
 8001390:	2202      	movs	r2, #2
 8001392:	4013      	ands	r3, r2
 8001394:	d0f1      	beq.n	800137a <HAL_RCC_OscConfig+0x3e2>
 8001396:	e018      	b.n	80013ca <HAL_RCC_OscConfig+0x432>
      }
    }
    else
    {
      /* Disable the Internal Low Speed oscillator (LSI). */
      __HAL_RCC_LSI_DISABLE();
 8001398:	4b9e      	ldr	r3, [pc, #632]	; (8001614 <HAL_RCC_OscConfig+0x67c>)
 800139a:	6d1a      	ldr	r2, [r3, #80]	; 0x50
 800139c:	4b9d      	ldr	r3, [pc, #628]	; (8001614 <HAL_RCC_OscConfig+0x67c>)
 800139e:	2101      	movs	r1, #1
 80013a0:	438a      	bics	r2, r1
 80013a2:	651a      	str	r2, [r3, #80]	; 0x50

      /* Get Start Tick */
      tickstart = HAL_GetTick();
 80013a4:	f7ff fb44 	bl	8000a30 <HAL_GetTick>
 80013a8:	0003      	movs	r3, r0
 80013aa:	617b      	str	r3, [r7, #20]

      /* Wait till LSI is disabled */
      while(__HAL_RCC_GET_FLAG(RCC_FLAG_LSIRDY) != 0U)
 80013ac:	e008      	b.n	80013c0 <HAL_RCC_OscConfig+0x428>
      {
        if((HAL_GetTick() - tickstart ) > LSI_TIMEOUT_VALUE)
 80013ae:	f7ff fb3f 	bl	8000a30 <HAL_GetTick>
 80013b2:	0002      	movs	r2, r0
 80013b4:	697b      	ldr	r3, [r7, #20]
 80013b6:	1ad3      	subs	r3, r2, r3
 80013b8:	2b02      	cmp	r3, #2
 80013ba:	d901      	bls.n	80013c0 <HAL_RCC_OscConfig+0x428>
        {
          return HAL_TIMEOUT;
 80013bc:	2303      	movs	r3, #3
 80013be:	e15f      	b.n	8001680 <HAL_RCC_OscConfig+0x6e8>
      while(__HAL_RCC_GET_FLAG(RCC_FLAG_LSIRDY) != 0U)
 80013c0:	4b94      	ldr	r3, [pc, #592]	; (8001614 <HAL_RCC_OscConfig+0x67c>)
 80013c2:	6d1b      	ldr	r3, [r3, #80]	; 0x50
 80013c4:	2202      	movs	r2, #2
 80013c6:	4013      	ands	r3, r2
 80013c8:	d1f1      	bne.n	80013ae <HAL_RCC_OscConfig+0x416>
        }
      }
    }
  }
  /*------------------------------ LSE Configuration -------------------------*/
  if(((RCC_OscInitStruct->OscillatorType) & RCC_OSCILLATORTYPE_LSE) == RCC_OSCILLATORTYPE_LSE)
 80013ca:	687b      	ldr	r3, [r7, #4]
 80013cc:	681b      	ldr	r3, [r3, #0]
 80013ce:	2204      	movs	r2, #4
 80013d0:	4013      	ands	r3, r2
 80013d2:	d100      	bne.n	80013d6 <HAL_RCC_OscConfig+0x43e>
 80013d4:	e0af      	b.n	8001536 <HAL_RCC_OscConfig+0x59e>
  {
    FlagStatus       pwrclkchanged = RESET;
 80013d6:	2323      	movs	r3, #35	; 0x23
 80013d8:	18fb      	adds	r3, r7, r3
 80013da:	2200      	movs	r2, #0
 80013dc:	701a      	strb	r2, [r3, #0]
    /* Check the parameters */
    assert_param(IS_RCC_LSE(RCC_OscInitStruct->LSEState));

    /* Update LSE configuration in Backup Domain control register    */
    /* Requires to enable write access to Backup Domain of necessary */
    if(__HAL_RCC_PWR_IS_CLK_DISABLED())
 80013de:	4b8d      	ldr	r3, [pc, #564]	; (8001614 <HAL_RCC_OscConfig+0x67c>)
 80013e0:	6b9a      	ldr	r2, [r3, #56]	; 0x38
 80013e2:	2380      	movs	r3, #128	; 0x80
 80013e4:	055b      	lsls	r3, r3, #21
 80013e6:	4013      	ands	r3, r2
 80013e8:	d10a      	bne.n	8001400 <HAL_RCC_OscConfig+0x468>
    {
      __HAL_RCC_PWR_CLK_ENABLE();
 80013ea:	4b8a      	ldr	r3, [pc, #552]	; (8001614 <HAL_RCC_OscConfig+0x67c>)
 80013ec:	6b9a      	ldr	r2, [r3, #56]	; 0x38
 80013ee:	4b89      	ldr	r3, [pc, #548]	; (8001614 <HAL_RCC_OscConfig+0x67c>)
 80013f0:	2180      	movs	r1, #128	; 0x80
 80013f2:	0549      	lsls	r1, r1, #21
 80013f4:	430a      	orrs	r2, r1
 80013f6:	639a      	str	r2, [r3, #56]	; 0x38
      pwrclkchanged = SET;
 80013f8:	2323      	movs	r3, #35	; 0x23
 80013fa:	18fb      	adds	r3, r7, r3
 80013fc:	2201      	movs	r2, #1
 80013fe:	701a      	strb	r2, [r3, #0]
    }

    if(HAL_IS_BIT_CLR(PWR->CR, PWR_CR_DBP))
 8001400:	4b87      	ldr	r3, [pc, #540]	; (8001620 <HAL_RCC_OscConfig+0x688>)
 8001402:	681a      	ldr	r2, [r3, #0]
 8001404:	2380      	movs	r3, #128	; 0x80
 8001406:	005b      	lsls	r3, r3, #1
 8001408:	4013      	ands	r3, r2
 800140a:	d11a      	bne.n	8001442 <HAL_RCC_OscConfig+0x4aa>
    {
      /* Enable write access to Backup domain */
      SET_BIT(PWR->CR, PWR_CR_DBP);
 800140c:	4b84      	ldr	r3, [pc, #528]	; (8001620 <HAL_RCC_OscConfig+0x688>)
 800140e:	681a      	ldr	r2, [r3, #0]
 8001410:	4b83      	ldr	r3, [pc, #524]	; (8001620 <HAL_RCC_OscConfig+0x688>)
 8001412:	2180      	movs	r1, #128	; 0x80
 8001414:	0049      	lsls	r1, r1, #1
 8001416:	430a      	orrs	r2, r1
 8001418:	601a      	str	r2, [r3, #0]

      /* Wait for Backup domain Write protection disable */
      tickstart = HAL_GetTick();
 800141a:	f7ff fb09 	bl	8000a30 <HAL_GetTick>
 800141e:	0003      	movs	r3, r0
 8001420:	617b      	str	r3, [r7, #20]

      while(HAL_IS_BIT_CLR(PWR->CR, PWR_CR_DBP))
 8001422:	e008      	b.n	8001436 <HAL_RCC_OscConfig+0x49e>
      {
        if((HAL_GetTick() - tickstart) > RCC_DBP_TIMEOUT_VALUE)
 8001424:	f7ff fb04 	bl	8000a30 <HAL_GetTick>
 8001428:	0002      	movs	r2, r0
 800142a:	697b      	ldr	r3, [r7, #20]
 800142c:	1ad3      	subs	r3, r2, r3
 800142e:	2b64      	cmp	r3, #100	; 0x64
 8001430:	d901      	bls.n	8001436 <HAL_RCC_OscConfig+0x49e>
        {
          return HAL_TIMEOUT;
 8001432:	2303      	movs	r3, #3
 8001434:	e124      	b.n	8001680 <HAL_RCC_OscConfig+0x6e8>
      while(HAL_IS_BIT_CLR(PWR->CR, PWR_CR_DBP))
 8001436:	4b7a      	ldr	r3, [pc, #488]	; (8001620 <HAL_RCC_OscConfig+0x688>)
 8001438:	681a      	ldr	r2, [r3, #0]
 800143a:	2380      	movs	r3, #128	; 0x80
 800143c:	005b      	lsls	r3, r3, #1
 800143e:	4013      	ands	r3, r2
 8001440:	d0f0      	beq.n	8001424 <HAL_RCC_OscConfig+0x48c>
        }
      }
    }

    /* Set the new LSE configuration -----------------------------------------*/
    __HAL_RCC_LSE_CONFIG(RCC_OscInitStruct->LSEState);
 8001442:	687b      	ldr	r3, [r7, #4]
 8001444:	689a      	ldr	r2, [r3, #8]
 8001446:	2380      	movs	r3, #128	; 0x80
 8001448:	005b      	lsls	r3, r3, #1
 800144a:	429a      	cmp	r2, r3
 800144c:	d107      	bne.n	800145e <HAL_RCC_OscConfig+0x4c6>
 800144e:	4b71      	ldr	r3, [pc, #452]	; (8001614 <HAL_RCC_OscConfig+0x67c>)
 8001450:	6d1a      	ldr	r2, [r3, #80]	; 0x50
 8001452:	4b70      	ldr	r3, [pc, #448]	; (8001614 <HAL_RCC_OscConfig+0x67c>)
 8001454:	2180      	movs	r1, #128	; 0x80
 8001456:	0049      	lsls	r1, r1, #1
 8001458:	430a      	orrs	r2, r1
 800145a:	651a      	str	r2, [r3, #80]	; 0x50
 800145c:	e031      	b.n	80014c2 <HAL_RCC_OscConfig+0x52a>
 800145e:	687b      	ldr	r3, [r7, #4]
 8001460:	689b      	ldr	r3, [r3, #8]
 8001462:	2b00      	cmp	r3, #0
 8001464:	d10c      	bne.n	8001480 <HAL_RCC_OscConfig+0x4e8>
 8001466:	4b6b      	ldr	r3, [pc, #428]	; (8001614 <HAL_RCC_OscConfig+0x67c>)
 8001468:	6d1a      	ldr	r2, [r3, #80]	; 0x50
 800146a:	4b6a      	ldr	r3, [pc, #424]	; (8001614 <HAL_RCC_OscConfig+0x67c>)
 800146c:	496b      	ldr	r1, [pc, #428]	; (800161c <HAL_RCC_OscConfig+0x684>)
 800146e:	400a      	ands	r2, r1
 8001470:	651a      	str	r2, [r3, #80]	; 0x50
 8001472:	4b68      	ldr	r3, [pc, #416]	; (8001614 <HAL_RCC_OscConfig+0x67c>)
 8001474:	6d1a      	ldr	r2, [r3, #80]	; 0x50
 8001476:	4b67      	ldr	r3, [pc, #412]	; (8001614 <HAL_RCC_OscConfig+0x67c>)
 8001478:	496a      	ldr	r1, [pc, #424]	; (8001624 <HAL_RCC_OscConfig+0x68c>)
 800147a:	400a      	ands	r2, r1
 800147c:	651a      	str	r2, [r3, #80]	; 0x50
 800147e:	e020      	b.n	80014c2 <HAL_RCC_OscConfig+0x52a>
 8001480:	687b      	ldr	r3, [r7, #4]
 8001482:	689a      	ldr	r2, [r3, #8]
 8001484:	23a0      	movs	r3, #160	; 0xa0
 8001486:	00db      	lsls	r3, r3, #3
 8001488:	429a      	cmp	r2, r3
 800148a:	d10e      	bne.n	80014aa <HAL_RCC_OscConfig+0x512>
 800148c:	4b61      	ldr	r3, [pc, #388]	; (8001614 <HAL_RCC_OscConfig+0x67c>)
 800148e:	6d1a      	ldr	r2, [r3, #80]	; 0x50
 8001490:	4b60      	ldr	r3, [pc, #384]	; (8001614 <HAL_RCC_OscConfig+0x67c>)
 8001492:	2180      	movs	r1, #128	; 0x80
 8001494:	00c9      	lsls	r1, r1, #3
 8001496:	430a      	orrs	r2, r1
 8001498:	651a      	str	r2, [r3, #80]	; 0x50
 800149a:	4b5e      	ldr	r3, [pc, #376]	; (8001614 <HAL_RCC_OscConfig+0x67c>)
 800149c:	6d1a      	ldr	r2, [r3, #80]	; 0x50
 800149e:	4b5d      	ldr	r3, [pc, #372]	; (8001614 <HAL_RCC_OscConfig+0x67c>)
 80014a0:	2180      	movs	r1, #128	; 0x80
 80014a2:	0049      	lsls	r1, r1, #1
 80014a4:	430a      	orrs	r2, r1
 80014a6:	651a      	str	r2, [r3, #80]	; 0x50
 80014a8:	e00b      	b.n	80014c2 <HAL_RCC_OscConfig+0x52a>
 80014aa:	4b5a      	ldr	r3, [pc, #360]	; (8001614 <HAL_RCC_OscConfig+0x67c>)
 80014ac:	6d1a      	ldr	r2, [r3, #80]	; 0x50
 80014ae:	4b59      	ldr	r3, [pc, #356]	; (8001614 <HAL_RCC_OscConfig+0x67c>)
 80014b0:	495a      	ldr	r1, [pc, #360]	; (800161c <HAL_RCC_OscConfig+0x684>)
 80014b2:	400a      	ands	r2, r1
 80014b4:	651a      	str	r2, [r3, #80]	; 0x50
 80014b6:	4b57      	ldr	r3, [pc, #348]	; (8001614 <HAL_RCC_OscConfig+0x67c>)
 80014b8:	6d1a      	ldr	r2, [r3, #80]	; 0x50
 80014ba:	4b56      	ldr	r3, [pc, #344]	; (8001614 <HAL_RCC_OscConfig+0x67c>)
 80014bc:	4959      	ldr	r1, [pc, #356]	; (8001624 <HAL_RCC_OscConfig+0x68c>)
 80014be:	400a      	ands	r2, r1
 80014c0:	651a      	str	r2, [r3, #80]	; 0x50
    /* Check the LSE State */
    if(RCC_OscInitStruct->LSEState != RCC_LSE_OFF)
 80014c2:	687b      	ldr	r3, [r7, #4]
 80014c4:	689b      	ldr	r3, [r3, #8]
 80014c6:	2b00      	cmp	r3, #0
 80014c8:	d015      	beq.n	80014f6 <HAL_RCC_OscConfig+0x55e>
    {
      /* Get Start Tick */
      tickstart = HAL_GetTick();
 80014ca:	f7ff fab1 	bl	8000a30 <HAL_GetTick>
 80014ce:	0003      	movs	r3, r0
 80014d0:	617b      	str	r3, [r7, #20]

      /* Wait till LSE is ready */
      while(__HAL_RCC_GET_FLAG(RCC_FLAG_LSERDY) == 0U)
 80014d2:	e009      	b.n	80014e8 <HAL_RCC_OscConfig+0x550>
      {
        if((HAL_GetTick() - tickstart ) > RCC_LSE_TIMEOUT_VALUE)
 80014d4:	f7ff faac 	bl	8000a30 <HAL_GetTick>
 80014d8:	0002      	movs	r2, r0
 80014da:	697b      	ldr	r3, [r7, #20]
 80014dc:	1ad3      	subs	r3, r2, r3
 80014de:	4a52      	ldr	r2, [pc, #328]	; (8001628 <HAL_RCC_OscConfig+0x690>)
 80014e0:	4293      	cmp	r3, r2
 80014e2:	d901      	bls.n	80014e8 <HAL_RCC_OscConfig+0x550>
        {
          return HAL_TIMEOUT;
 80014e4:	2303      	movs	r3, #3
 80014e6:	e0cb      	b.n	8001680 <HAL_RCC_OscConfig+0x6e8>
      while(__HAL_RCC_GET_FLAG(RCC_FLAG_LSERDY) == 0U)
 80014e8:	4b4a      	ldr	r3, [pc, #296]	; (8001614 <HAL_RCC_OscConfig+0x67c>)
 80014ea:	6d1a      	ldr	r2, [r3, #80]	; 0x50
 80014ec:	2380      	movs	r3, #128	; 0x80
 80014ee:	009b      	lsls	r3, r3, #2
 80014f0:	4013      	ands	r3, r2
 80014f2:	d0ef      	beq.n	80014d4 <HAL_RCC_OscConfig+0x53c>
 80014f4:	e014      	b.n	8001520 <HAL_RCC_OscConfig+0x588>
      }
    }
    else
    {
      /* Get Start Tick */
      tickstart = HAL_GetTick();
 80014f6:	f7ff fa9b 	bl	8000a30 <HAL_GetTick>
 80014fa:	0003      	movs	r3, r0
 80014fc:	617b      	str	r3, [r7, #20]

      /* Wait till LSE is disabled */
      while(__HAL_RCC_GET_FLAG(RCC_FLAG_LSERDY) != 0U)
 80014fe:	e009      	b.n	8001514 <HAL_RCC_OscConfig+0x57c>
      {
        if((HAL_GetTick() - tickstart ) > RCC_LSE_TIMEOUT_VALUE)
 8001500:	f7ff fa96 	bl	8000a30 <HAL_GetTick>
 8001504:	0002      	movs	r2, r0
 8001506:	697b      	ldr	r3, [r7, #20]
 8001508:	1ad3      	subs	r3, r2, r3
 800150a:	4a47      	ldr	r2, [pc, #284]	; (8001628 <HAL_RCC_OscConfig+0x690>)
 800150c:	4293      	cmp	r3, r2
 800150e:	d901      	bls.n	8001514 <HAL_RCC_OscConfig+0x57c>
        {
          return HAL_TIMEOUT;
 8001510:	2303      	movs	r3, #3
 8001512:	e0b5      	b.n	8001680 <HAL_RCC_OscConfig+0x6e8>
      while(__HAL_RCC_GET_FLAG(RCC_FLAG_LSERDY) != 0U)
 8001514:	4b3f      	ldr	r3, [pc, #252]	; (8001614 <HAL_RCC_OscConfig+0x67c>)
 8001516:	6d1a      	ldr	r2, [r3, #80]	; 0x50
 8001518:	2380      	movs	r3, #128	; 0x80
 800151a:	009b      	lsls	r3, r3, #2
 800151c:	4013      	ands	r3, r2
 800151e:	d1ef      	bne.n	8001500 <HAL_RCC_OscConfig+0x568>
        }
      }
    }

    /* Require to disable power clock if necessary */
    if(pwrclkchanged == SET)
 8001520:	2323      	movs	r3, #35	; 0x23
 8001522:	18fb      	adds	r3, r7, r3
 8001524:	781b      	ldrb	r3, [r3, #0]
 8001526:	2b01      	cmp	r3, #1
 8001528:	d105      	bne.n	8001536 <HAL_RCC_OscConfig+0x59e>
    {
      __HAL_RCC_PWR_CLK_DISABLE();
 800152a:	4b3a      	ldr	r3, [pc, #232]	; (8001614 <HAL_RCC_OscConfig+0x67c>)
 800152c:	6b9a      	ldr	r2, [r3, #56]	; 0x38
 800152e:	4b39      	ldr	r3, [pc, #228]	; (8001614 <HAL_RCC_OscConfig+0x67c>)
 8001530:	493e      	ldr	r1, [pc, #248]	; (800162c <HAL_RCC_OscConfig+0x694>)
 8001532:	400a      	ands	r2, r1
 8001534:	639a      	str	r2, [r3, #56]	; 0x38
#endif /* RCC_HSI48_SUPPORT */

  /*-------------------------------- PLL Configuration -----------------------*/
  /* Check the parameters */
  assert_param(IS_RCC_PLL(RCC_OscInitStruct->PLL.PLLState));
  if ((RCC_OscInitStruct->PLL.PLLState) != RCC_PLL_NONE)
 8001536:	687b      	ldr	r3, [r7, #4]
 8001538:	6a5b      	ldr	r3, [r3, #36]	; 0x24
 800153a:	2b00      	cmp	r3, #0
 800153c:	d100      	bne.n	8001540 <HAL_RCC_OscConfig+0x5a8>
 800153e:	e09e      	b.n	800167e <HAL_RCC_OscConfig+0x6e6>
  {
    /* Check if the PLL is used as system clock or not */
    if(sysclk_source != RCC_SYSCLKSOURCE_STATUS_PLLCLK)
 8001540:	69fb      	ldr	r3, [r7, #28]
 8001542:	2b0c      	cmp	r3, #12
 8001544:	d100      	bne.n	8001548 <HAL_RCC_OscConfig+0x5b0>
 8001546:	e077      	b.n	8001638 <HAL_RCC_OscConfig+0x6a0>
    {
      if((RCC_OscInitStruct->PLL.PLLState) == RCC_PLL_ON)
 8001548:	687b      	ldr	r3, [r7, #4]
 800154a:	6a5b      	ldr	r3, [r3, #36]	; 0x24
 800154c:	2b02      	cmp	r3, #2
 800154e:	d145      	bne.n	80015dc <HAL_RCC_OscConfig+0x644>
        assert_param(IS_RCC_PLLSOURCE(RCC_OscInitStruct->PLL.PLLSource));
        assert_param(IS_RCC_PLL_MUL(RCC_OscInitStruct->PLL.PLLMUL));
        assert_param(IS_RCC_PLL_DIV(RCC_OscInitStruct->PLL.PLLDIV));

        /* Disable the main PLL. */
        __HAL_RCC_PLL_DISABLE();
 8001550:	4b30      	ldr	r3, [pc, #192]	; (8001614 <HAL_RCC_OscConfig+0x67c>)
 8001552:	681a      	ldr	r2, [r3, #0]
 8001554:	4b2f      	ldr	r3, [pc, #188]	; (8001614 <HAL_RCC_OscConfig+0x67c>)
 8001556:	4936      	ldr	r1, [pc, #216]	; (8001630 <HAL_RCC_OscConfig+0x698>)
 8001558:	400a      	ands	r2, r1
 800155a:	601a      	str	r2, [r3, #0]

        /* Get Start Tick */
        tickstart = HAL_GetTick();
 800155c:	f7ff fa68 	bl	8000a30 <HAL_GetTick>
 8001560:	0003      	movs	r3, r0
 8001562:	617b      	str	r3, [r7, #20]

        /* Wait till PLL is disabled */
        while(__HAL_RCC_GET_FLAG(RCC_FLAG_PLLRDY)  != 0U)
 8001564:	e008      	b.n	8001578 <HAL_RCC_OscConfig+0x5e0>
        {
          if((HAL_GetTick() - tickstart ) > PLL_TIMEOUT_VALUE)
 8001566:	f7ff fa63 	bl	8000a30 <HAL_GetTick>
 800156a:	0002      	movs	r2, r0
 800156c:	697b      	ldr	r3, [r7, #20]
 800156e:	1ad3      	subs	r3, r2, r3
 8001570:	2b02      	cmp	r3, #2
 8001572:	d901      	bls.n	8001578 <HAL_RCC_OscConfig+0x5e0>
          {
            return HAL_TIMEOUT;
 8001574:	2303      	movs	r3, #3
 8001576:	e083      	b.n	8001680 <HAL_RCC_OscConfig+0x6e8>
        while(__HAL_RCC_GET_FLAG(RCC_FLAG_PLLRDY)  != 0U)
 8001578:	4b26      	ldr	r3, [pc, #152]	; (8001614 <HAL_RCC_OscConfig+0x67c>)
 800157a:	681a      	ldr	r2, [r3, #0]
 800157c:	2380      	movs	r3, #128	; 0x80
 800157e:	049b      	lsls	r3, r3, #18
 8001580:	4013      	ands	r3, r2
 8001582:	d1f0      	bne.n	8001566 <HAL_RCC_OscConfig+0x5ce>
          }
        }

        /* Configure the main PLL clock source, multiplication and division factors. */
        __HAL_RCC_PLL_CONFIG(RCC_OscInitStruct->PLL.PLLSource,
 8001584:	4b23      	ldr	r3, [pc, #140]	; (8001614 <HAL_RCC_OscConfig+0x67c>)
 8001586:	68db      	ldr	r3, [r3, #12]
 8001588:	4a2a      	ldr	r2, [pc, #168]	; (8001634 <HAL_RCC_OscConfig+0x69c>)
 800158a:	4013      	ands	r3, r2
 800158c:	0019      	movs	r1, r3
 800158e:	687b      	ldr	r3, [r7, #4]
 8001590:	6a9a      	ldr	r2, [r3, #40]	; 0x28
 8001592:	687b      	ldr	r3, [r7, #4]
 8001594:	6adb      	ldr	r3, [r3, #44]	; 0x2c
 8001596:	431a      	orrs	r2, r3
 8001598:	687b      	ldr	r3, [r7, #4]
 800159a:	6b1b      	ldr	r3, [r3, #48]	; 0x30
 800159c:	431a      	orrs	r2, r3
 800159e:	4b1d      	ldr	r3, [pc, #116]	; (8001614 <HAL_RCC_OscConfig+0x67c>)
 80015a0:	430a      	orrs	r2, r1
 80015a2:	60da      	str	r2, [r3, #12]
                             RCC_OscInitStruct->PLL.PLLMUL,
                             RCC_OscInitStruct->PLL.PLLDIV);
        /* Enable the main PLL. */
        __HAL_RCC_PLL_ENABLE();
 80015a4:	4b1b      	ldr	r3, [pc, #108]	; (8001614 <HAL_RCC_OscConfig+0x67c>)
 80015a6:	681a      	ldr	r2, [r3, #0]
 80015a8:	4b1a      	ldr	r3, [pc, #104]	; (8001614 <HAL_RCC_OscConfig+0x67c>)
 80015aa:	2180      	movs	r1, #128	; 0x80
 80015ac:	0449      	lsls	r1, r1, #17
 80015ae:	430a      	orrs	r2, r1
 80015b0:	601a      	str	r2, [r3, #0]

        /* Get Start Tick */
        tickstart = HAL_GetTick();
 80015b2:	f7ff fa3d 	bl	8000a30 <HAL_GetTick>
 80015b6:	0003      	movs	r3, r0
 80015b8:	617b      	str	r3, [r7, #20]

        /* Wait till PLL is ready */
        while(__HAL_RCC_GET_FLAG(RCC_FLAG_PLLRDY)  == 0U)
 80015ba:	e008      	b.n	80015ce <HAL_RCC_OscConfig+0x636>
        {
          if((HAL_GetTick() - tickstart ) > PLL_TIMEOUT_VALUE)
 80015bc:	f7ff fa38 	bl	8000a30 <HAL_GetTick>
 80015c0:	0002      	movs	r2, r0
 80015c2:	697b      	ldr	r3, [r7, #20]
 80015c4:	1ad3      	subs	r3, r2, r3
 80015c6:	2b02      	cmp	r3, #2
 80015c8:	d901      	bls.n	80015ce <HAL_RCC_OscConfig+0x636>
          {
            return HAL_TIMEOUT;
 80015ca:	2303      	movs	r3, #3
 80015cc:	e058      	b.n	8001680 <HAL_RCC_OscConfig+0x6e8>
        while(__HAL_RCC_GET_FLAG(RCC_FLAG_PLLRDY)  == 0U)
 80015ce:	4b11      	ldr	r3, [pc, #68]	; (8001614 <HAL_RCC_OscConfig+0x67c>)
 80015d0:	681a      	ldr	r2, [r3, #0]
 80015d2:	2380      	movs	r3, #128	; 0x80
 80015d4:	049b      	lsls	r3, r3, #18
 80015d6:	4013      	ands	r3, r2
 80015d8:	d0f0      	beq.n	80015bc <HAL_RCC_OscConfig+0x624>
 80015da:	e050      	b.n	800167e <HAL_RCC_OscConfig+0x6e6>
        }
      }
      else
      {
        /* Disable the main PLL. */
        __HAL_RCC_PLL_DISABLE();
 80015dc:	4b0d      	ldr	r3, [pc, #52]	; (8001614 <HAL_RCC_OscConfig+0x67c>)
 80015de:	681a      	ldr	r2, [r3, #0]
 80015e0:	4b0c      	ldr	r3, [pc, #48]	; (8001614 <HAL_RCC_OscConfig+0x67c>)
 80015e2:	4913      	ldr	r1, [pc, #76]	; (8001630 <HAL_RCC_OscConfig+0x698>)
 80015e4:	400a      	ands	r2, r1
 80015e6:	601a      	str	r2, [r3, #0]

        /* Get Start Tick */
        tickstart = HAL_GetTick();
 80015e8:	f7ff fa22 	bl	8000a30 <HAL_GetTick>
 80015ec:	0003      	movs	r3, r0
 80015ee:	617b      	str	r3, [r7, #20]

        /* Wait till PLL is disabled */
        while(__HAL_RCC_GET_FLAG(RCC_FLAG_PLLRDY)  != 0U)
 80015f0:	e008      	b.n	8001604 <HAL_RCC_OscConfig+0x66c>
        {
          if((HAL_GetTick() - tickstart ) > PLL_TIMEOUT_VALUE)
 80015f2:	f7ff fa1d 	bl	8000a30 <HAL_GetTick>
 80015f6:	0002      	movs	r2, r0
 80015f8:	697b      	ldr	r3, [r7, #20]
 80015fa:	1ad3      	subs	r3, r2, r3
 80015fc:	2b02      	cmp	r3, #2
 80015fe:	d901      	bls.n	8001604 <HAL_RCC_OscConfig+0x66c>
          {
            return HAL_TIMEOUT;
 8001600:	2303      	movs	r3, #3
 8001602:	e03d      	b.n	8001680 <HAL_RCC_OscConfig+0x6e8>
        while(__HAL_RCC_GET_FLAG(RCC_FLAG_PLLRDY)  != 0U)
 8001604:	4b03      	ldr	r3, [pc, #12]	; (8001614 <HAL_RCC_OscConfig+0x67c>)
 8001606:	681a      	ldr	r2, [r3, #0]
 8001608:	2380      	movs	r3, #128	; 0x80
 800160a:	049b      	lsls	r3, r3, #18
 800160c:	4013      	ands	r3, r2
 800160e:	d1f0      	bne.n	80015f2 <HAL_RCC_OscConfig+0x65a>
 8001610:	e035      	b.n	800167e <HAL_RCC_OscConfig+0x6e6>
 8001612:	46c0      	nop			; (mov r8, r8)
 8001614:	40021000 	.word	0x40021000
 8001618:	ffff1fff 	.word	0xffff1fff
 800161c:	fffffeff 	.word	0xfffffeff
 8001620:	40007000 	.word	0x40007000
 8001624:	fffffbff 	.word	0xfffffbff
 8001628:	00001388 	.word	0x00001388
 800162c:	efffffff 	.word	0xefffffff
 8001630:	feffffff 	.word	0xfeffffff
 8001634:	ff02ffff 	.word	0xff02ffff
      }
    }
    else
    {
      /* Check if there is a request to disable the PLL used as System clock source */
      if((RCC_OscInitStruct->PLL.PLLState) == RCC_PLL_OFF)
 8001638:	687b      	ldr	r3, [r7, #4]
 800163a:	6a5b      	ldr	r3, [r3, #36]	; 0x24
 800163c:	2b01      	cmp	r3, #1
 800163e:	d101      	bne.n	8001644 <HAL_RCC_OscConfig+0x6ac>
      {
        return HAL_ERROR;
 8001640:	2301      	movs	r3, #1
 8001642:	e01d      	b.n	8001680 <HAL_RCC_OscConfig+0x6e8>
      }
      else
      {
        /* Do not return HAL_ERROR if request repeats the current configuration */
        pll_config = RCC->CFGR;
 8001644:	4b10      	ldr	r3, [pc, #64]	; (8001688 <HAL_RCC_OscConfig+0x6f0>)
 8001646:	68db      	ldr	r3, [r3, #12]
 8001648:	61bb      	str	r3, [r7, #24]
        if((READ_BIT(pll_config, RCC_CFGR_PLLSRC) != RCC_OscInitStruct->PLL.PLLSource) ||
 800164a:	69ba      	ldr	r2, [r7, #24]
 800164c:	2380      	movs	r3, #128	; 0x80
 800164e:	025b      	lsls	r3, r3, #9
 8001650:	401a      	ands	r2, r3
 8001652:	687b      	ldr	r3, [r7, #4]
 8001654:	6a9b      	ldr	r3, [r3, #40]	; 0x28
 8001656:	429a      	cmp	r2, r3
 8001658:	d10f      	bne.n	800167a <HAL_RCC_OscConfig+0x6e2>
           (READ_BIT(pll_config, RCC_CFGR_PLLMUL) != RCC_OscInitStruct->PLL.PLLMUL) ||
 800165a:	69ba      	ldr	r2, [r7, #24]
 800165c:	23f0      	movs	r3, #240	; 0xf0
 800165e:	039b      	lsls	r3, r3, #14
 8001660:	401a      	ands	r2, r3
 8001662:	687b      	ldr	r3, [r7, #4]
 8001664:	6adb      	ldr	r3, [r3, #44]	; 0x2c
        if((READ_BIT(pll_config, RCC_CFGR_PLLSRC) != RCC_OscInitStruct->PLL.PLLSource) ||
 8001666:	429a      	cmp	r2, r3
 8001668:	d107      	bne.n	800167a <HAL_RCC_OscConfig+0x6e2>
           (READ_BIT(pll_config, RCC_CFGR_PLLDIV) != RCC_OscInitStruct->PLL.PLLDIV))
 800166a:	69ba      	ldr	r2, [r7, #24]
 800166c:	23c0      	movs	r3, #192	; 0xc0
 800166e:	041b      	lsls	r3, r3, #16
 8001670:	401a      	ands	r2, r3
 8001672:	687b      	ldr	r3, [r7, #4]
 8001674:	6b1b      	ldr	r3, [r3, #48]	; 0x30
           (READ_BIT(pll_config, RCC_CFGR_PLLMUL) != RCC_OscInitStruct->PLL.PLLMUL) ||
 8001676:	429a      	cmp	r2, r3
 8001678:	d001      	beq.n	800167e <HAL_RCC_OscConfig+0x6e6>
        {
          return HAL_ERROR;
 800167a:	2301      	movs	r3, #1
 800167c:	e000      	b.n	8001680 <HAL_RCC_OscConfig+0x6e8>
        }
      }
    }
  }

  return HAL_OK;
 800167e:	2300      	movs	r3, #0
}
 8001680:	0018      	movs	r0, r3
 8001682:	46bd      	mov	sp, r7
 8001684:	b00a      	add	sp, #40	; 0x28
 8001686:	bdb0      	pop	{r4, r5, r7, pc}
 8001688:	40021000 	.word	0x40021000

0800168c <HAL_RCC_ClockConfig>:
  *         HPRE[3:0] bits to ensure that HCLK not exceed the maximum allowed frequency
  *         (for more details refer to section above "Initialization/de-initialization functions")
  * @retval HAL status
  */
HAL_StatusTypeDef HAL_RCC_ClockConfig(RCC_ClkInitTypeDef  *RCC_ClkInitStruct, uint32_t FLatency)
{
 800168c:	b5b0      	push	{r4, r5, r7, lr}
 800168e:	b084      	sub	sp, #16
 8001690:	af00      	add	r7, sp, #0
 8001692:	6078      	str	r0, [r7, #4]
 8001694:	6039      	str	r1, [r7, #0]
  uint32_t tickstart;
  HAL_StatusTypeDef status;

  /* Check the parameters */
  if(RCC_ClkInitStruct == NULL)
 8001696:	687b      	ldr	r3, [r7, #4]
 8001698:	2b00      	cmp	r3, #0
 800169a:	d101      	bne.n	80016a0 <HAL_RCC_ClockConfig+0x14>
  {
    return HAL_ERROR;
 800169c:	2301      	movs	r3, #1
 800169e:	e10d      	b.n	80018bc <HAL_RCC_ClockConfig+0x230>
  /* To correctly read data from FLASH memory, the number of wait states (LATENCY)
  must be correctly programmed according to the frequency of the CPU clock
  (HCLK) and the supply voltage of the device. */

  /* Increasing the number of wait states because of higher CPU frequency */
  if(FLatency > __HAL_FLASH_GET_LATENCY())
 80016a0:	4b88      	ldr	r3, [pc, #544]	; (80018c4 <HAL_RCC_ClockConfig+0x238>)
 80016a2:	681b      	ldr	r3, [r3, #0]
 80016a4:	2201      	movs	r2, #1
 80016a6:	4013      	ands	r3, r2
 80016a8:	683a      	ldr	r2, [r7, #0]
 80016aa:	429a      	cmp	r2, r3
 80016ac:	d911      	bls.n	80016d2 <HAL_RCC_ClockConfig+0x46>
  {
    /* Program the new number of wait states to the LATENCY bits in the FLASH_ACR register */
    __HAL_FLASH_SET_LATENCY(FLatency);
 80016ae:	4b85      	ldr	r3, [pc, #532]	; (80018c4 <HAL_RCC_ClockConfig+0x238>)
 80016b0:	681b      	ldr	r3, [r3, #0]
 80016b2:	2201      	movs	r2, #1
 80016b4:	4393      	bics	r3, r2
 80016b6:	0019      	movs	r1, r3
 80016b8:	4b82      	ldr	r3, [pc, #520]	; (80018c4 <HAL_RCC_ClockConfig+0x238>)
 80016ba:	683a      	ldr	r2, [r7, #0]
 80016bc:	430a      	orrs	r2, r1
 80016be:	601a      	str	r2, [r3, #0]

    /* Check that the new number of wait states is taken into account to access the Flash
    memory by reading the FLASH_ACR register */
    if(__HAL_FLASH_GET_LATENCY() != FLatency)
 80016c0:	4b80      	ldr	r3, [pc, #512]	; (80018c4 <HAL_RCC_ClockConfig+0x238>)
 80016c2:	681b      	ldr	r3, [r3, #0]
 80016c4:	2201      	movs	r2, #1
 80016c6:	4013      	ands	r3, r2
 80016c8:	683a      	ldr	r2, [r7, #0]
 80016ca:	429a      	cmp	r2, r3
 80016cc:	d001      	beq.n	80016d2 <HAL_RCC_ClockConfig+0x46>
    {
      return HAL_ERROR;
 80016ce:	2301      	movs	r3, #1
 80016d0:	e0f4      	b.n	80018bc <HAL_RCC_ClockConfig+0x230>
    }
  }

  /*-------------------------- HCLK Configuration --------------------------*/
  if(((RCC_ClkInitStruct->ClockType) & RCC_CLOCKTYPE_HCLK) == RCC_CLOCKTYPE_HCLK)
 80016d2:	687b      	ldr	r3, [r7, #4]
 80016d4:	681b      	ldr	r3, [r3, #0]
 80016d6:	2202      	movs	r2, #2
 80016d8:	4013      	ands	r3, r2
 80016da:	d009      	beq.n	80016f0 <HAL_RCC_ClockConfig+0x64>
  {
    assert_param(IS_RCC_HCLK(RCC_ClkInitStruct->AHBCLKDivider));
    MODIFY_REG(RCC->CFGR, RCC_CFGR_HPRE, RCC_ClkInitStruct->AHBCLKDivider);
 80016dc:	4b7a      	ldr	r3, [pc, #488]	; (80018c8 <HAL_RCC_ClockConfig+0x23c>)
 80016de:	68db      	ldr	r3, [r3, #12]
 80016e0:	22f0      	movs	r2, #240	; 0xf0
 80016e2:	4393      	bics	r3, r2
 80016e4:	0019      	movs	r1, r3
 80016e6:	687b      	ldr	r3, [r7, #4]
 80016e8:	689a      	ldr	r2, [r3, #8]
 80016ea:	4b77      	ldr	r3, [pc, #476]	; (80018c8 <HAL_RCC_ClockConfig+0x23c>)
 80016ec:	430a      	orrs	r2, r1
 80016ee:	60da      	str	r2, [r3, #12]
  }

  /*------------------------- SYSCLK Configuration ---------------------------*/
  if(((RCC_ClkInitStruct->ClockType) & RCC_CLOCKTYPE_SYSCLK) == RCC_CLOCKTYPE_SYSCLK)
 80016f0:	687b      	ldr	r3, [r7, #4]
 80016f2:	681b      	ldr	r3, [r3, #0]
 80016f4:	2201      	movs	r2, #1
 80016f6:	4013      	ands	r3, r2
 80016f8:	d100      	bne.n	80016fc <HAL_RCC_ClockConfig+0x70>
 80016fa:	e089      	b.n	8001810 <HAL_RCC_ClockConfig+0x184>
  {
    assert_param(IS_RCC_SYSCLKSOURCE(RCC_ClkInitStruct->SYSCLKSource));

    /* HSE is selected as System Clock Source */
    if(RCC_ClkInitStruct->SYSCLKSource == RCC_SYSCLKSOURCE_HSE)
 80016fc:	687b      	ldr	r3, [r7, #4]
 80016fe:	685b      	ldr	r3, [r3, #4]
 8001700:	2b02      	cmp	r3, #2
 8001702:	d107      	bne.n	8001714 <HAL_RCC_ClockConfig+0x88>
    {
      /* Check the HSE ready flag */
      if(__HAL_RCC_GET_FLAG(RCC_FLAG_HSERDY) == 0U)
 8001704:	4b70      	ldr	r3, [pc, #448]	; (80018c8 <HAL_RCC_ClockConfig+0x23c>)
 8001706:	681a      	ldr	r2, [r3, #0]
 8001708:	2380      	movs	r3, #128	; 0x80
 800170a:	029b      	lsls	r3, r3, #10
 800170c:	4013      	ands	r3, r2
 800170e:	d120      	bne.n	8001752 <HAL_RCC_ClockConfig+0xc6>
      {
        return HAL_ERROR;
 8001710:	2301      	movs	r3, #1
 8001712:	e0d3      	b.n	80018bc <HAL_RCC_ClockConfig+0x230>
      }
    }
    /* PLL is selected as System Clock Source */
    else if(RCC_ClkInitStruct->SYSCLKSource == RCC_SYSCLKSOURCE_PLLCLK)
 8001714:	687b      	ldr	r3, [r7, #4]
 8001716:	685b      	ldr	r3, [r3, #4]
 8001718:	2b03      	cmp	r3, #3
 800171a:	d107      	bne.n	800172c <HAL_RCC_ClockConfig+0xa0>
    {
      /* Check the PLL ready flag */
      if(__HAL_RCC_GET_FLAG(RCC_FLAG_PLLRDY) == 0U)
 800171c:	4b6a      	ldr	r3, [pc, #424]	; (80018c8 <HAL_RCC_ClockConfig+0x23c>)
 800171e:	681a      	ldr	r2, [r3, #0]
 8001720:	2380      	movs	r3, #128	; 0x80
 8001722:	049b      	lsls	r3, r3, #18
 8001724:	4013      	ands	r3, r2
 8001726:	d114      	bne.n	8001752 <HAL_RCC_ClockConfig+0xc6>
      {
        return HAL_ERROR;
 8001728:	2301      	movs	r3, #1
 800172a:	e0c7      	b.n	80018bc <HAL_RCC_ClockConfig+0x230>
      }
    }
    /* HSI is selected as System Clock Source */
    else if(RCC_ClkInitStruct->SYSCLKSource == RCC_SYSCLKSOURCE_HSI)
 800172c:	687b      	ldr	r3, [r7, #4]
 800172e:	685b      	ldr	r3, [r3, #4]
 8001730:	2b01      	cmp	r3, #1
 8001732:	d106      	bne.n	8001742 <HAL_RCC_ClockConfig+0xb6>
    {
      /* Check the HSI ready flag */
      if(__HAL_RCC_GET_FLAG(RCC_FLAG_HSIRDY) == 0U)
 8001734:	4b64      	ldr	r3, [pc, #400]	; (80018c8 <HAL_RCC_ClockConfig+0x23c>)
 8001736:	681b      	ldr	r3, [r3, #0]
 8001738:	2204      	movs	r2, #4
 800173a:	4013      	ands	r3, r2
 800173c:	d109      	bne.n	8001752 <HAL_RCC_ClockConfig+0xc6>
      {
        return HAL_ERROR;
 800173e:	2301      	movs	r3, #1
 8001740:	e0bc      	b.n	80018bc <HAL_RCC_ClockConfig+0x230>
    }
    /* MSI is selected as System Clock Source */
    else
    {
      /* Check the MSI ready flag */
      if(__HAL_RCC_GET_FLAG(RCC_FLAG_MSIRDY) == 0U)
 8001742:	4b61      	ldr	r3, [pc, #388]	; (80018c8 <HAL_RCC_ClockConfig+0x23c>)
 8001744:	681a      	ldr	r2, [r3, #0]
 8001746:	2380      	movs	r3, #128	; 0x80
 8001748:	009b      	lsls	r3, r3, #2
 800174a:	4013      	ands	r3, r2
 800174c:	d101      	bne.n	8001752 <HAL_RCC_ClockConfig+0xc6>
      {
        return HAL_ERROR;
 800174e:	2301      	movs	r3, #1
 8001750:	e0b4      	b.n	80018bc <HAL_RCC_ClockConfig+0x230>
      }
    }
    __HAL_RCC_SYSCLK_CONFIG(RCC_ClkInitStruct->SYSCLKSource);
 8001752:	4b5d      	ldr	r3, [pc, #372]	; (80018c8 <HAL_RCC_ClockConfig+0x23c>)
 8001754:	68db      	ldr	r3, [r3, #12]
 8001756:	2203      	movs	r2, #3
 8001758:	4393      	bics	r3, r2
 800175a:	0019      	movs	r1, r3
 800175c:	687b      	ldr	r3, [r7, #4]
 800175e:	685a      	ldr	r2, [r3, #4]
 8001760:	4b59      	ldr	r3, [pc, #356]	; (80018c8 <HAL_RCC_ClockConfig+0x23c>)
 8001762:	430a      	orrs	r2, r1
 8001764:	60da      	str	r2, [r3, #12]

    /* Get Start Tick */
    tickstart = HAL_GetTick();
 8001766:	f7ff f963 	bl	8000a30 <HAL_GetTick>
 800176a:	0003      	movs	r3, r0
 800176c:	60fb      	str	r3, [r7, #12]

    if(RCC_ClkInitStruct->SYSCLKSource == RCC_SYSCLKSOURCE_HSE)
 800176e:	687b      	ldr	r3, [r7, #4]
 8001770:	685b      	ldr	r3, [r3, #4]
 8001772:	2b02      	cmp	r3, #2
 8001774:	d111      	bne.n	800179a <HAL_RCC_ClockConfig+0x10e>
    {
      while (__HAL_RCC_GET_SYSCLK_SOURCE() != RCC_SYSCLKSOURCE_STATUS_HSE)
 8001776:	e009      	b.n	800178c <HAL_RCC_ClockConfig+0x100>
      {
        if((HAL_GetTick() - tickstart ) > CLOCKSWITCH_TIMEOUT_VALUE)
 8001778:	f7ff f95a 	bl	8000a30 <HAL_GetTick>
 800177c:	0002      	movs	r2, r0
 800177e:	68fb      	ldr	r3, [r7, #12]
 8001780:	1ad3      	subs	r3, r2, r3
 8001782:	4a52      	ldr	r2, [pc, #328]	; (80018cc <HAL_RCC_ClockConfig+0x240>)
 8001784:	4293      	cmp	r3, r2
 8001786:	d901      	bls.n	800178c <HAL_RCC_ClockConfig+0x100>
        {
          return HAL_TIMEOUT;
 8001788:	2303      	movs	r3, #3
 800178a:	e097      	b.n	80018bc <HAL_RCC_ClockConfig+0x230>
      while (__HAL_RCC_GET_SYSCLK_SOURCE() != RCC_SYSCLKSOURCE_STATUS_HSE)
 800178c:	4b4e      	ldr	r3, [pc, #312]	; (80018c8 <HAL_RCC_ClockConfig+0x23c>)
 800178e:	68db      	ldr	r3, [r3, #12]
 8001790:	220c      	movs	r2, #12
 8001792:	4013      	ands	r3, r2
 8001794:	2b08      	cmp	r3, #8
 8001796:	d1ef      	bne.n	8001778 <HAL_RCC_ClockConfig+0xec>
 8001798:	e03a      	b.n	8001810 <HAL_RCC_ClockConfig+0x184>
        }
      }
    }
    else if(RCC_ClkInitStruct->SYSCLKSource == RCC_SYSCLKSOURCE_PLLCLK)
 800179a:	687b      	ldr	r3, [r7, #4]
 800179c:	685b      	ldr	r3, [r3, #4]
 800179e:	2b03      	cmp	r3, #3
 80017a0:	d111      	bne.n	80017c6 <HAL_RCC_ClockConfig+0x13a>
    {
      while (__HAL_RCC_GET_SYSCLK_SOURCE() != RCC_SYSCLKSOURCE_STATUS_PLLCLK)
 80017a2:	e009      	b.n	80017b8 <HAL_RCC_ClockConfig+0x12c>
      {
        if((HAL_GetTick() - tickstart ) > CLOCKSWITCH_TIMEOUT_VALUE)
 80017a4:	f7ff f944 	bl	8000a30 <HAL_GetTick>
 80017a8:	0002      	movs	r2, r0
 80017aa:	68fb      	ldr	r3, [r7, #12]
 80017ac:	1ad3      	subs	r3, r2, r3
 80017ae:	4a47      	ldr	r2, [pc, #284]	; (80018cc <HAL_RCC_ClockConfig+0x240>)
 80017b0:	4293      	cmp	r3, r2
 80017b2:	d901      	bls.n	80017b8 <HAL_RCC_ClockConfig+0x12c>
        {
          return HAL_TIMEOUT;
 80017b4:	2303      	movs	r3, #3
 80017b6:	e081      	b.n	80018bc <HAL_RCC_ClockConfig+0x230>
      while (__HAL_RCC_GET_SYSCLK_SOURCE() != RCC_SYSCLKSOURCE_STATUS_PLLCLK)
 80017b8:	4b43      	ldr	r3, [pc, #268]	; (80018c8 <HAL_RCC_ClockConfig+0x23c>)
 80017ba:	68db      	ldr	r3, [r3, #12]
 80017bc:	220c      	movs	r2, #12
 80017be:	4013      	ands	r3, r2
 80017c0:	2b0c      	cmp	r3, #12
 80017c2:	d1ef      	bne.n	80017a4 <HAL_RCC_ClockConfig+0x118>
 80017c4:	e024      	b.n	8001810 <HAL_RCC_ClockConfig+0x184>
        }
      }
    }
    else if(RCC_ClkInitStruct->SYSCLKSource == RCC_SYSCLKSOURCE_HSI)
 80017c6:	687b      	ldr	r3, [r7, #4]
 80017c8:	685b      	ldr	r3, [r3, #4]
 80017ca:	2b01      	cmp	r3, #1
 80017cc:	d11b      	bne.n	8001806 <HAL_RCC_ClockConfig+0x17a>
    {
      while (__HAL_RCC_GET_SYSCLK_SOURCE() != RCC_SYSCLKSOURCE_STATUS_HSI)
 80017ce:	e009      	b.n	80017e4 <HAL_RCC_ClockConfig+0x158>
      {
        if((HAL_GetTick() - tickstart ) > CLOCKSWITCH_TIMEOUT_VALUE)
 80017d0:	f7ff f92e 	bl	8000a30 <HAL_GetTick>
 80017d4:	0002      	movs	r2, r0
 80017d6:	68fb      	ldr	r3, [r7, #12]
 80017d8:	1ad3      	subs	r3, r2, r3
 80017da:	4a3c      	ldr	r2, [pc, #240]	; (80018cc <HAL_RCC_ClockConfig+0x240>)
 80017dc:	4293      	cmp	r3, r2
 80017de:	d901      	bls.n	80017e4 <HAL_RCC_ClockConfig+0x158>
        {
          return HAL_TIMEOUT;
 80017e0:	2303      	movs	r3, #3
 80017e2:	e06b      	b.n	80018bc <HAL_RCC_ClockConfig+0x230>
      while (__HAL_RCC_GET_SYSCLK_SOURCE() != RCC_SYSCLKSOURCE_STATUS_HSI)
 80017e4:	4b38      	ldr	r3, [pc, #224]	; (80018c8 <HAL_RCC_ClockConfig+0x23c>)
 80017e6:	68db      	ldr	r3, [r3, #12]
 80017e8:	220c      	movs	r2, #12
 80017ea:	4013      	ands	r3, r2
 80017ec:	2b04      	cmp	r3, #4
 80017ee:	d1ef      	bne.n	80017d0 <HAL_RCC_ClockConfig+0x144>
 80017f0:	e00e      	b.n	8001810 <HAL_RCC_ClockConfig+0x184>
    }
    else
    {
      while(__HAL_RCC_GET_SYSCLK_SOURCE() != RCC_SYSCLKSOURCE_STATUS_MSI)
      {
        if((HAL_GetTick() - tickstart ) > CLOCKSWITCH_TIMEOUT_VALUE)
 80017f2:	f7ff f91d 	bl	8000a30 <HAL_GetTick>
 80017f6:	0002      	movs	r2, r0
 80017f8:	68fb      	ldr	r3, [r7, #12]
 80017fa:	1ad3      	subs	r3, r2, r3
 80017fc:	4a33      	ldr	r2, [pc, #204]	; (80018cc <HAL_RCC_ClockConfig+0x240>)
 80017fe:	4293      	cmp	r3, r2
 8001800:	d901      	bls.n	8001806 <HAL_RCC_ClockConfig+0x17a>
        {
          return HAL_TIMEOUT;
 8001802:	2303      	movs	r3, #3
 8001804:	e05a      	b.n	80018bc <HAL_RCC_ClockConfig+0x230>
      while(__HAL_RCC_GET_SYSCLK_SOURCE() != RCC_SYSCLKSOURCE_STATUS_MSI)
 8001806:	4b30      	ldr	r3, [pc, #192]	; (80018c8 <HAL_RCC_ClockConfig+0x23c>)
 8001808:	68db      	ldr	r3, [r3, #12]
 800180a:	220c      	movs	r2, #12
 800180c:	4013      	ands	r3, r2
 800180e:	d1f0      	bne.n	80017f2 <HAL_RCC_ClockConfig+0x166>
        }
      }
    }
  }
  /* Decreasing the number of wait states because of lower CPU frequency */
  if(FLatency < __HAL_FLASH_GET_LATENCY())
 8001810:	4b2c      	ldr	r3, [pc, #176]	; (80018c4 <HAL_RCC_ClockConfig+0x238>)
 8001812:	681b      	ldr	r3, [r3, #0]
 8001814:	2201      	movs	r2, #1
 8001816:	4013      	ands	r3, r2
 8001818:	683a      	ldr	r2, [r7, #0]
 800181a:	429a      	cmp	r2, r3
 800181c:	d211      	bcs.n	8001842 <HAL_RCC_ClockConfig+0x1b6>
  {
    /* Program the new number of wait states to the LATENCY bits in the FLASH_ACR register */
    __HAL_FLASH_SET_LATENCY(FLatency);
 800181e:	4b29      	ldr	r3, [pc, #164]	; (80018c4 <HAL_RCC_ClockConfig+0x238>)
 8001820:	681b      	ldr	r3, [r3, #0]
 8001822:	2201      	movs	r2, #1
 8001824:	4393      	bics	r3, r2
 8001826:	0019      	movs	r1, r3
 8001828:	4b26      	ldr	r3, [pc, #152]	; (80018c4 <HAL_RCC_ClockConfig+0x238>)
 800182a:	683a      	ldr	r2, [r7, #0]
 800182c:	430a      	orrs	r2, r1
 800182e:	601a      	str	r2, [r3, #0]

    /* Check that the new number of wait states is taken into account to access the Flash
    memory by reading the FLASH_ACR register */
    if(__HAL_FLASH_GET_LATENCY() != FLatency)
 8001830:	4b24      	ldr	r3, [pc, #144]	; (80018c4 <HAL_RCC_ClockConfig+0x238>)
 8001832:	681b      	ldr	r3, [r3, #0]
 8001834:	2201      	movs	r2, #1
 8001836:	4013      	ands	r3, r2
 8001838:	683a      	ldr	r2, [r7, #0]
 800183a:	429a      	cmp	r2, r3
 800183c:	d001      	beq.n	8001842 <HAL_RCC_ClockConfig+0x1b6>
    {
      return HAL_ERROR;
 800183e:	2301      	movs	r3, #1
 8001840:	e03c      	b.n	80018bc <HAL_RCC_ClockConfig+0x230>
    }
  }

  /*-------------------------- PCLK1 Configuration ---------------------------*/
  if(((RCC_ClkInitStruct->ClockType) & RCC_CLOCKTYPE_PCLK1) == RCC_CLOCKTYPE_PCLK1)
 8001842:	687b      	ldr	r3, [r7, #4]
 8001844:	681b      	ldr	r3, [r3, #0]
 8001846:	2204      	movs	r2, #4
 8001848:	4013      	ands	r3, r2
 800184a:	d009      	beq.n	8001860 <HAL_RCC_ClockConfig+0x1d4>
  {
    assert_param(IS_RCC_PCLK(RCC_ClkInitStruct->APB1CLKDivider));
    MODIFY_REG(RCC->CFGR, RCC_CFGR_PPRE1, RCC_ClkInitStruct->APB1CLKDivider);
 800184c:	4b1e      	ldr	r3, [pc, #120]	; (80018c8 <HAL_RCC_ClockConfig+0x23c>)
 800184e:	68db      	ldr	r3, [r3, #12]
 8001850:	4a1f      	ldr	r2, [pc, #124]	; (80018d0 <HAL_RCC_ClockConfig+0x244>)
 8001852:	4013      	ands	r3, r2
 8001854:	0019      	movs	r1, r3
 8001856:	687b      	ldr	r3, [r7, #4]
 8001858:	68da      	ldr	r2, [r3, #12]
 800185a:	4b1b      	ldr	r3, [pc, #108]	; (80018c8 <HAL_RCC_ClockConfig+0x23c>)
 800185c:	430a      	orrs	r2, r1
 800185e:	60da      	str	r2, [r3, #12]
  }

  /*-------------------------- PCLK2 Configuration ---------------------------*/
  if(((RCC_ClkInitStruct->ClockType) & RCC_CLOCKTYPE_PCLK2) == RCC_CLOCKTYPE_PCLK2)
 8001860:	687b      	ldr	r3, [r7, #4]
 8001862:	681b      	ldr	r3, [r3, #0]
 8001864:	2208      	movs	r2, #8
 8001866:	4013      	ands	r3, r2
 8001868:	d00a      	beq.n	8001880 <HAL_RCC_ClockConfig+0x1f4>
  {
    assert_param(IS_RCC_PCLK(RCC_ClkInitStruct->APB2CLKDivider));
    MODIFY_REG(RCC->CFGR, RCC_CFGR_PPRE2, ((RCC_ClkInitStruct->APB2CLKDivider) << 3));
 800186a:	4b17      	ldr	r3, [pc, #92]	; (80018c8 <HAL_RCC_ClockConfig+0x23c>)
 800186c:	68db      	ldr	r3, [r3, #12]
 800186e:	4a19      	ldr	r2, [pc, #100]	; (80018d4 <HAL_RCC_ClockConfig+0x248>)
 8001870:	4013      	ands	r3, r2
 8001872:	0019      	movs	r1, r3
 8001874:	687b      	ldr	r3, [r7, #4]
 8001876:	691b      	ldr	r3, [r3, #16]
 8001878:	00da      	lsls	r2, r3, #3
 800187a:	4b13      	ldr	r3, [pc, #76]	; (80018c8 <HAL_RCC_ClockConfig+0x23c>)
 800187c:	430a      	orrs	r2, r1
 800187e:	60da      	str	r2, [r3, #12]
  }

  /* Update the SystemCoreClock global variable */
  SystemCoreClock = HAL_RCC_GetSysClockFreq() >> AHBPrescTable[(RCC->CFGR & RCC_CFGR_HPRE)>> RCC_CFGR_HPRE_Pos];
 8001880:	f000 f82e 	bl	80018e0 <HAL_RCC_GetSysClockFreq>
 8001884:	0001      	movs	r1, r0
 8001886:	4b10      	ldr	r3, [pc, #64]	; (80018c8 <HAL_RCC_ClockConfig+0x23c>)
 8001888:	68db      	ldr	r3, [r3, #12]
 800188a:	091b      	lsrs	r3, r3, #4
 800188c:	220f      	movs	r2, #15
 800188e:	4013      	ands	r3, r2
 8001890:	4a11      	ldr	r2, [pc, #68]	; (80018d8 <HAL_RCC_ClockConfig+0x24c>)
 8001892:	5cd3      	ldrb	r3, [r2, r3]
 8001894:	000a      	movs	r2, r1
 8001896:	40da      	lsrs	r2, r3
 8001898:	4b10      	ldr	r3, [pc, #64]	; (80018dc <HAL_RCC_ClockConfig+0x250>)
 800189a:	601a      	str	r2, [r3, #0]

  /* Configure the source of time base considering new system clocks settings*/
  status = HAL_InitTick(TICK_INT_PRIORITY);
 800189c:	250b      	movs	r5, #11
 800189e:	197c      	adds	r4, r7, r5
 80018a0:	2000      	movs	r0, #0
 80018a2:	f7ff f88f 	bl	80009c4 <HAL_InitTick>
 80018a6:	0003      	movs	r3, r0
 80018a8:	7023      	strb	r3, [r4, #0]
  if(status != HAL_OK)
 80018aa:	197b      	adds	r3, r7, r5
 80018ac:	781b      	ldrb	r3, [r3, #0]
 80018ae:	2b00      	cmp	r3, #0
 80018b0:	d003      	beq.n	80018ba <HAL_RCC_ClockConfig+0x22e>
  {
    return status;
 80018b2:	230b      	movs	r3, #11
 80018b4:	18fb      	adds	r3, r7, r3
 80018b6:	781b      	ldrb	r3, [r3, #0]
 80018b8:	e000      	b.n	80018bc <HAL_RCC_ClockConfig+0x230>
  }

  return HAL_OK;
 80018ba:	2300      	movs	r3, #0
}
 80018bc:	0018      	movs	r0, r3
 80018be:	46bd      	mov	sp, r7
 80018c0:	b004      	add	sp, #16
 80018c2:	bdb0      	pop	{r4, r5, r7, pc}
 80018c4:	40022000 	.word	0x40022000
 80018c8:	40021000 	.word	0x40021000
 80018cc:	00001388 	.word	0x00001388
 80018d0:	fffff8ff 	.word	0xfffff8ff
 80018d4:	ffffc7ff 	.word	0xffffc7ff
 80018d8:	08001a58 	.word	0x08001a58
 80018dc:	20000000 	.word	0x20000000

080018e0 <HAL_RCC_GetSysClockFreq>:
  *         right SYSCLK value. Otherwise, any configuration based on this function will be incorrect.
  *
  * @retval SYSCLK frequency
  */
uint32_t HAL_RCC_GetSysClockFreq(void)
{
 80018e0:	b580      	push	{r7, lr}
 80018e2:	b086      	sub	sp, #24
 80018e4:	af00      	add	r7, sp, #0
  uint32_t tmpreg, pllm, plld, pllvco, msiclkrange;    /* no init needed */
  uint32_t sysclockfreq;

  tmpreg = RCC->CFGR;
 80018e6:	4b3b      	ldr	r3, [pc, #236]	; (80019d4 <HAL_RCC_GetSysClockFreq+0xf4>)
 80018e8:	68db      	ldr	r3, [r3, #12]
 80018ea:	60fb      	str	r3, [r7, #12]

  /* Get SYSCLK source -------------------------------------------------------*/
  switch (tmpreg & RCC_CFGR_SWS)
 80018ec:	68fb      	ldr	r3, [r7, #12]
 80018ee:	220c      	movs	r2, #12
 80018f0:	4013      	ands	r3, r2
 80018f2:	2b08      	cmp	r3, #8
 80018f4:	d00e      	beq.n	8001914 <HAL_RCC_GetSysClockFreq+0x34>
 80018f6:	2b0c      	cmp	r3, #12
 80018f8:	d00f      	beq.n	800191a <HAL_RCC_GetSysClockFreq+0x3a>
 80018fa:	2b04      	cmp	r3, #4
 80018fc:	d157      	bne.n	80019ae <HAL_RCC_GetSysClockFreq+0xce>
  {
    case RCC_SYSCLKSOURCE_STATUS_HSI:  /* HSI used as system clock source */
    {
      if ((RCC->CR & RCC_CR_HSIDIVF) != 0U)
 80018fe:	4b35      	ldr	r3, [pc, #212]	; (80019d4 <HAL_RCC_GetSysClockFreq+0xf4>)
 8001900:	681b      	ldr	r3, [r3, #0]
 8001902:	2210      	movs	r2, #16
 8001904:	4013      	ands	r3, r2
 8001906:	d002      	beq.n	800190e <HAL_RCC_GetSysClockFreq+0x2e>
      {
        sysclockfreq =  (HSI_VALUE >> 2);
 8001908:	4b33      	ldr	r3, [pc, #204]	; (80019d8 <HAL_RCC_GetSysClockFreq+0xf8>)
 800190a:	613b      	str	r3, [r7, #16]
      }
      else
      {
        sysclockfreq =  HSI_VALUE;
      }
      break;
 800190c:	e05d      	b.n	80019ca <HAL_RCC_GetSysClockFreq+0xea>
        sysclockfreq =  HSI_VALUE;
 800190e:	4b33      	ldr	r3, [pc, #204]	; (80019dc <HAL_RCC_GetSysClockFreq+0xfc>)
 8001910:	613b      	str	r3, [r7, #16]
      break;
 8001912:	e05a      	b.n	80019ca <HAL_RCC_GetSysClockFreq+0xea>
    }
    case RCC_SYSCLKSOURCE_STATUS_HSE:  /* HSE used as system clock */
    {
      sysclockfreq = HSE_VALUE;
 8001914:	4b32      	ldr	r3, [pc, #200]	; (80019e0 <HAL_RCC_GetSysClockFreq+0x100>)
 8001916:	613b      	str	r3, [r7, #16]
      break;
 8001918:	e057      	b.n	80019ca <HAL_RCC_GetSysClockFreq+0xea>
    }
    case RCC_SYSCLKSOURCE_STATUS_PLLCLK:  /* PLL used as system clock */
    {
      pllm = PLLMulTable[(uint32_t)(tmpreg & RCC_CFGR_PLLMUL) >> RCC_CFGR_PLLMUL_Pos];
 800191a:	68fb      	ldr	r3, [r7, #12]
 800191c:	0c9b      	lsrs	r3, r3, #18
 800191e:	220f      	movs	r2, #15
 8001920:	4013      	ands	r3, r2
 8001922:	4a30      	ldr	r2, [pc, #192]	; (80019e4 <HAL_RCC_GetSysClockFreq+0x104>)
 8001924:	5cd3      	ldrb	r3, [r2, r3]
 8001926:	60bb      	str	r3, [r7, #8]
      plld = ((uint32_t)(tmpreg & RCC_CFGR_PLLDIV) >> RCC_CFGR_PLLDIV_Pos) + 1U;
 8001928:	68fb      	ldr	r3, [r7, #12]
 800192a:	0d9b      	lsrs	r3, r3, #22
 800192c:	2203      	movs	r2, #3
 800192e:	4013      	ands	r3, r2
 8001930:	3301      	adds	r3, #1
 8001932:	607b      	str	r3, [r7, #4]
      if (__HAL_RCC_GET_PLL_OSCSOURCE() != RCC_PLLSOURCE_HSI)
 8001934:	4b27      	ldr	r3, [pc, #156]	; (80019d4 <HAL_RCC_GetSysClockFreq+0xf4>)
 8001936:	68da      	ldr	r2, [r3, #12]
 8001938:	2380      	movs	r3, #128	; 0x80
 800193a:	025b      	lsls	r3, r3, #9
 800193c:	4013      	ands	r3, r2
 800193e:	d00f      	beq.n	8001960 <HAL_RCC_GetSysClockFreq+0x80>
      {
        /* HSE used as PLL clock source */
        pllvco = (HSE_VALUE * pllm) / plld;
 8001940:	68b9      	ldr	r1, [r7, #8]
 8001942:	000a      	movs	r2, r1
 8001944:	0152      	lsls	r2, r2, #5
 8001946:	1a52      	subs	r2, r2, r1
 8001948:	0193      	lsls	r3, r2, #6
 800194a:	1a9b      	subs	r3, r3, r2
 800194c:	00db      	lsls	r3, r3, #3
 800194e:	185b      	adds	r3, r3, r1
 8001950:	025b      	lsls	r3, r3, #9
 8001952:	6879      	ldr	r1, [r7, #4]
 8001954:	0018      	movs	r0, r3
 8001956:	f7fe fbd7 	bl	8000108 <__udivsi3>
 800195a:	0003      	movs	r3, r0
 800195c:	617b      	str	r3, [r7, #20]
 800195e:	e023      	b.n	80019a8 <HAL_RCC_GetSysClockFreq+0xc8>
      }
      else
      {
        if ((RCC->CR & RCC_CR_HSIDIVF) != 0U)
 8001960:	4b1c      	ldr	r3, [pc, #112]	; (80019d4 <HAL_RCC_GetSysClockFreq+0xf4>)
 8001962:	681b      	ldr	r3, [r3, #0]
 8001964:	2210      	movs	r2, #16
 8001966:	4013      	ands	r3, r2
 8001968:	d00f      	beq.n	800198a <HAL_RCC_GetSysClockFreq+0xaa>
        {
          pllvco = ((HSI_VALUE >> 2) * pllm) / plld;
 800196a:	68b9      	ldr	r1, [r7, #8]
 800196c:	000a      	movs	r2, r1
 800196e:	0152      	lsls	r2, r2, #5
 8001970:	1a52      	subs	r2, r2, r1
 8001972:	0193      	lsls	r3, r2, #6
 8001974:	1a9b      	subs	r3, r3, r2
 8001976:	00db      	lsls	r3, r3, #3
 8001978:	185b      	adds	r3, r3, r1
 800197a:	021b      	lsls	r3, r3, #8
 800197c:	6879      	ldr	r1, [r7, #4]
 800197e:	0018      	movs	r0, r3
 8001980:	f7fe fbc2 	bl	8000108 <__udivsi3>
 8001984:	0003      	movs	r3, r0
 8001986:	617b      	str	r3, [r7, #20]
 8001988:	e00e      	b.n	80019a8 <HAL_RCC_GetSysClockFreq+0xc8>
        }
        else
        {
         pllvco = (HSI_VALUE * pllm) / plld;
 800198a:	68b9      	ldr	r1, [r7, #8]
 800198c:	000a      	movs	r2, r1
 800198e:	0152      	lsls	r2, r2, #5
 8001990:	1a52      	subs	r2, r2, r1
 8001992:	0193      	lsls	r3, r2, #6
 8001994:	1a9b      	subs	r3, r3, r2
 8001996:	00db      	lsls	r3, r3, #3
 8001998:	185b      	adds	r3, r3, r1
 800199a:	029b      	lsls	r3, r3, #10
 800199c:	6879      	ldr	r1, [r7, #4]
 800199e:	0018      	movs	r0, r3
 80019a0:	f7fe fbb2 	bl	8000108 <__udivsi3>
 80019a4:	0003      	movs	r3, r0
 80019a6:	617b      	str	r3, [r7, #20]
        }
      }
      sysclockfreq = pllvco;
 80019a8:	697b      	ldr	r3, [r7, #20]
 80019aa:	613b      	str	r3, [r7, #16]
      break;
 80019ac:	e00d      	b.n	80019ca <HAL_RCC_GetSysClockFreq+0xea>
    }
    case RCC_SYSCLKSOURCE_STATUS_MSI:  /* MSI used as system clock source */
    default: /* MSI used as system clock */
    {
      msiclkrange = (RCC->ICSCR & RCC_ICSCR_MSIRANGE ) >> RCC_ICSCR_MSIRANGE_Pos;
 80019ae:	4b09      	ldr	r3, [pc, #36]	; (80019d4 <HAL_RCC_GetSysClockFreq+0xf4>)
 80019b0:	685b      	ldr	r3, [r3, #4]
 80019b2:	0b5b      	lsrs	r3, r3, #13
 80019b4:	2207      	movs	r2, #7
 80019b6:	4013      	ands	r3, r2
 80019b8:	603b      	str	r3, [r7, #0]
      sysclockfreq = (32768U * (1UL << (msiclkrange + 1U)));
 80019ba:	683b      	ldr	r3, [r7, #0]
 80019bc:	3301      	adds	r3, #1
 80019be:	2280      	movs	r2, #128	; 0x80
 80019c0:	0212      	lsls	r2, r2, #8
 80019c2:	409a      	lsls	r2, r3
 80019c4:	0013      	movs	r3, r2
 80019c6:	613b      	str	r3, [r7, #16]
      break;
 80019c8:	46c0      	nop			; (mov r8, r8)
    }
  }
  return sysclockfreq;
 80019ca:	693b      	ldr	r3, [r7, #16]
}
 80019cc:	0018      	movs	r0, r3
 80019ce:	46bd      	mov	sp, r7
 80019d0:	b006      	add	sp, #24
 80019d2:	bd80      	pop	{r7, pc}
 80019d4:	40021000 	.word	0x40021000
 80019d8:	003d0900 	.word	0x003d0900
 80019dc:	00f42400 	.word	0x00f42400
 80019e0:	007a1200 	.word	0x007a1200
 80019e4:	08001a68 	.word	0x08001a68

080019e8 <__libc_init_array>:
 80019e8:	b570      	push	{r4, r5, r6, lr}
 80019ea:	2600      	movs	r6, #0
 80019ec:	4d0c      	ldr	r5, [pc, #48]	; (8001a20 <__libc_init_array+0x38>)
 80019ee:	4c0d      	ldr	r4, [pc, #52]	; (8001a24 <__libc_init_array+0x3c>)
 80019f0:	1b64      	subs	r4, r4, r5
 80019f2:	10a4      	asrs	r4, r4, #2
 80019f4:	42a6      	cmp	r6, r4
 80019f6:	d109      	bne.n	8001a0c <__libc_init_array+0x24>
 80019f8:	2600      	movs	r6, #0
 80019fa:	f000 f821 	bl	8001a40 <_init>
 80019fe:	4d0a      	ldr	r5, [pc, #40]	; (8001a28 <__libc_init_array+0x40>)
 8001a00:	4c0a      	ldr	r4, [pc, #40]	; (8001a2c <__libc_init_array+0x44>)
 8001a02:	1b64      	subs	r4, r4, r5
 8001a04:	10a4      	asrs	r4, r4, #2
 8001a06:	42a6      	cmp	r6, r4
 8001a08:	d105      	bne.n	8001a16 <__libc_init_array+0x2e>
 8001a0a:	bd70      	pop	{r4, r5, r6, pc}
 8001a0c:	00b3      	lsls	r3, r6, #2
 8001a0e:	58eb      	ldr	r3, [r5, r3]
 8001a10:	4798      	blx	r3
 8001a12:	3601      	adds	r6, #1
 8001a14:	e7ee      	b.n	80019f4 <__libc_init_array+0xc>
 8001a16:	00b3      	lsls	r3, r6, #2
 8001a18:	58eb      	ldr	r3, [r5, r3]
 8001a1a:	4798      	blx	r3
 8001a1c:	3601      	adds	r6, #1
 8001a1e:	e7f2      	b.n	8001a06 <__libc_init_array+0x1e>
 8001a20:	08001a74 	.word	0x08001a74
 8001a24:	08001a74 	.word	0x08001a74
 8001a28:	08001a74 	.word	0x08001a74
 8001a2c:	08001a78 	.word	0x08001a78

08001a30 <memset>:
 8001a30:	0003      	movs	r3, r0
 8001a32:	1812      	adds	r2, r2, r0
 8001a34:	4293      	cmp	r3, r2
 8001a36:	d100      	bne.n	8001a3a <memset+0xa>
 8001a38:	4770      	bx	lr
 8001a3a:	7019      	strb	r1, [r3, #0]
 8001a3c:	3301      	adds	r3, #1
 8001a3e:	e7f9      	b.n	8001a34 <memset+0x4>

08001a40 <_init>:
 8001a40:	b5f8      	push	{r3, r4, r5, r6, r7, lr}
 8001a42:	46c0      	nop			; (mov r8, r8)
 8001a44:	bcf8      	pop	{r3, r4, r5, r6, r7}
 8001a46:	bc08      	pop	{r3}
 8001a48:	469e      	mov	lr, r3
 8001a4a:	4770      	bx	lr

08001a4c <_fini>:
 8001a4c:	b5f8      	push	{r3, r4, r5, r6, r7, lr}
 8001a4e:	46c0      	nop			; (mov r8, r8)
 8001a50:	bcf8      	pop	{r3, r4, r5, r6, r7}
 8001a52:	bc08      	pop	{r3}
 8001a54:	469e      	mov	lr, r3
 8001a56:	4770      	bx	lr
