
BombHonor2.elf:     file format elf32-littlearm

Sections:
Idx Name          Size      VMA       LMA       File off  Algn
  0 .isr_vector   000000c0  08000000  08000000  00010000  2**0
                  CONTENTS, ALLOC, LOAD, READONLY, DATA
  1 .text         000017b0  080000c0  080000c0  000100c0  2**2
                  CONTENTS, ALLOC, LOAD, READONLY, CODE
  2 .rodata       0000001c  08001870  08001870  00011870  2**2
                  CONTENTS, ALLOC, LOAD, READONLY, DATA
  3 .ARM.extab    00000000  0800188c  0800188c  00020004  2**0
                  CONTENTS
  4 .ARM          00000000  0800188c  0800188c  00020004  2**0
                  CONTENTS
  5 .preinit_array 00000000  0800188c  0800188c  00020004  2**0
                  CONTENTS, ALLOC, LOAD, DATA
  6 .init_array   00000004  0800188c  0800188c  0001188c  2**2
                  CONTENTS, ALLOC, LOAD, DATA
  7 .fini_array   00000004  08001890  08001890  00011890  2**2
                  CONTENTS, ALLOC, LOAD, DATA
  8 .data         00000004  20000000  08001894  00020000  2**2
                  CONTENTS, ALLOC, LOAD, DATA
  9 .bss          00000020  20000004  08001898  00020004  2**2
                  ALLOC
 10 ._user_heap_stack 00000604  20000024  08001898  00020024  2**0
                  ALLOC
 11 .ARM.attributes 00000028  00000000  00000000  00020004  2**0
                  CONTENTS, READONLY
 12 .debug_info   000032e5  00000000  00000000  0002002c  2**0
                  CONTENTS, READONLY, DEBUGGING
 13 .debug_abbrev 00000dfb  00000000  00000000  00023311  2**0
                  CONTENTS, READONLY, DEBUGGING
 14 .debug_aranges 00000448  00000000  00000000  00024110  2**3
                  CONTENTS, READONLY, DEBUGGING
 15 .debug_ranges 000003b0  00000000  00000000  00024558  2**3
                  CONTENTS, READONLY, DEBUGGING
 16 .debug_macro  0000eff0  00000000  00000000  00024908  2**0
                  CONTENTS, READONLY, DEBUGGING
 17 .debug_line   00004548  00000000  00000000  000338f8  2**0
                  CONTENTS, READONLY, DEBUGGING
 18 .debug_str    0005a763  00000000  00000000  00037e40  2**0
                  CONTENTS, READONLY, DEBUGGING
 19 .comment      0000007b  00000000  00000000  000925a3  2**0
                  CONTENTS, READONLY
 20 .debug_frame  00000d64  00000000  00000000  00092620  2**2
                  CONTENTS, READONLY, DEBUGGING

Disassembly of section .text:

080000c0 <__do_global_dtors_aux>:
 80000c0:	b510      	push	{r4, lr}
 80000c2:	4c06      	ldr	r4, [pc, #24]	; (80000dc <__do_global_dtors_aux+0x1c>)
 80000c4:	7823      	ldrb	r3, [r4, #0]
 80000c6:	2b00      	cmp	r3, #0
 80000c8:	d107      	bne.n	80000da <__do_global_dtors_aux+0x1a>
 80000ca:	4b05      	ldr	r3, [pc, #20]	; (80000e0 <__do_global_dtors_aux+0x20>)
 80000cc:	2b00      	cmp	r3, #0
 80000ce:	d002      	beq.n	80000d6 <__do_global_dtors_aux+0x16>
 80000d0:	4804      	ldr	r0, [pc, #16]	; (80000e4 <__do_global_dtors_aux+0x24>)
 80000d2:	e000      	b.n	80000d6 <__do_global_dtors_aux+0x16>
 80000d4:	bf00      	nop
 80000d6:	2301      	movs	r3, #1
 80000d8:	7023      	strb	r3, [r4, #0]
 80000da:	bd10      	pop	{r4, pc}
 80000dc:	20000004 	.word	0x20000004
 80000e0:	00000000 	.word	0x00000000
 80000e4:	08001858 	.word	0x08001858

080000e8 <frame_dummy>:
 80000e8:	4b04      	ldr	r3, [pc, #16]	; (80000fc <frame_dummy+0x14>)
 80000ea:	b510      	push	{r4, lr}
 80000ec:	2b00      	cmp	r3, #0
 80000ee:	d003      	beq.n	80000f8 <frame_dummy+0x10>
 80000f0:	4903      	ldr	r1, [pc, #12]	; (8000100 <frame_dummy+0x18>)
 80000f2:	4804      	ldr	r0, [pc, #16]	; (8000104 <frame_dummy+0x1c>)
 80000f4:	e000      	b.n	80000f8 <frame_dummy+0x10>
 80000f6:	bf00      	nop
 80000f8:	bd10      	pop	{r4, pc}
 80000fa:	46c0      	nop			; (mov r8, r8)
 80000fc:	00000000 	.word	0x00000000
 8000100:	20000008 	.word	0x20000008
 8000104:	08001858 	.word	0x08001858

08000108 <__udivsi3>:
 8000108:	2200      	movs	r2, #0
 800010a:	0843      	lsrs	r3, r0, #1
 800010c:	428b      	cmp	r3, r1
 800010e:	d374      	bcc.n	80001fa <__udivsi3+0xf2>
 8000110:	0903      	lsrs	r3, r0, #4
 8000112:	428b      	cmp	r3, r1
 8000114:	d35f      	bcc.n	80001d6 <__udivsi3+0xce>
 8000116:	0a03      	lsrs	r3, r0, #8
 8000118:	428b      	cmp	r3, r1
 800011a:	d344      	bcc.n	80001a6 <__udivsi3+0x9e>
 800011c:	0b03      	lsrs	r3, r0, #12
 800011e:	428b      	cmp	r3, r1
 8000120:	d328      	bcc.n	8000174 <__udivsi3+0x6c>
 8000122:	0c03      	lsrs	r3, r0, #16
 8000124:	428b      	cmp	r3, r1
 8000126:	d30d      	bcc.n	8000144 <__udivsi3+0x3c>
 8000128:	22ff      	movs	r2, #255	; 0xff
 800012a:	0209      	lsls	r1, r1, #8
 800012c:	ba12      	rev	r2, r2
 800012e:	0c03      	lsrs	r3, r0, #16
 8000130:	428b      	cmp	r3, r1
 8000132:	d302      	bcc.n	800013a <__udivsi3+0x32>
 8000134:	1212      	asrs	r2, r2, #8
 8000136:	0209      	lsls	r1, r1, #8
 8000138:	d065      	beq.n	8000206 <__udivsi3+0xfe>
 800013a:	0b03      	lsrs	r3, r0, #12
 800013c:	428b      	cmp	r3, r1
 800013e:	d319      	bcc.n	8000174 <__udivsi3+0x6c>
 8000140:	e000      	b.n	8000144 <__udivsi3+0x3c>
 8000142:	0a09      	lsrs	r1, r1, #8
 8000144:	0bc3      	lsrs	r3, r0, #15
 8000146:	428b      	cmp	r3, r1
 8000148:	d301      	bcc.n	800014e <__udivsi3+0x46>
 800014a:	03cb      	lsls	r3, r1, #15
 800014c:	1ac0      	subs	r0, r0, r3
 800014e:	4152      	adcs	r2, r2
 8000150:	0b83      	lsrs	r3, r0, #14
 8000152:	428b      	cmp	r3, r1
 8000154:	d301      	bcc.n	800015a <__udivsi3+0x52>
 8000156:	038b      	lsls	r3, r1, #14
 8000158:	1ac0      	subs	r0, r0, r3
 800015a:	4152      	adcs	r2, r2
 800015c:	0b43      	lsrs	r3, r0, #13
 800015e:	428b      	cmp	r3, r1
 8000160:	d301      	bcc.n	8000166 <__udivsi3+0x5e>
 8000162:	034b      	lsls	r3, r1, #13
 8000164:	1ac0      	subs	r0, r0, r3
 8000166:	4152      	adcs	r2, r2
 8000168:	0b03      	lsrs	r3, r0, #12
 800016a:	428b      	cmp	r3, r1
 800016c:	d301      	bcc.n	8000172 <__udivsi3+0x6a>
 800016e:	030b      	lsls	r3, r1, #12
 8000170:	1ac0      	subs	r0, r0, r3
 8000172:	4152      	adcs	r2, r2
 8000174:	0ac3      	lsrs	r3, r0, #11
 8000176:	428b      	cmp	r3, r1
 8000178:	d301      	bcc.n	800017e <__udivsi3+0x76>
 800017a:	02cb      	lsls	r3, r1, #11
 800017c:	1ac0      	subs	r0, r0, r3
 800017e:	4152      	adcs	r2, r2
 8000180:	0a83      	lsrs	r3, r0, #10
 8000182:	428b      	cmp	r3, r1
 8000184:	d301      	bcc.n	800018a <__udivsi3+0x82>
 8000186:	028b      	lsls	r3, r1, #10
 8000188:	1ac0      	subs	r0, r0, r3
 800018a:	4152      	adcs	r2, r2
 800018c:	0a43      	lsrs	r3, r0, #9
 800018e:	428b      	cmp	r3, r1
 8000190:	d301      	bcc.n	8000196 <__udivsi3+0x8e>
 8000192:	024b      	lsls	r3, r1, #9
 8000194:	1ac0      	subs	r0, r0, r3
 8000196:	4152      	adcs	r2, r2
 8000198:	0a03      	lsrs	r3, r0, #8
 800019a:	428b      	cmp	r3, r1
 800019c:	d301      	bcc.n	80001a2 <__udivsi3+0x9a>
 800019e:	020b      	lsls	r3, r1, #8
 80001a0:	1ac0      	subs	r0, r0, r3
 80001a2:	4152      	adcs	r2, r2
 80001a4:	d2cd      	bcs.n	8000142 <__udivsi3+0x3a>
 80001a6:	09c3      	lsrs	r3, r0, #7
 80001a8:	428b      	cmp	r3, r1
 80001aa:	d301      	bcc.n	80001b0 <__udivsi3+0xa8>
 80001ac:	01cb      	lsls	r3, r1, #7
 80001ae:	1ac0      	subs	r0, r0, r3
 80001b0:	4152      	adcs	r2, r2
 80001b2:	0983      	lsrs	r3, r0, #6
 80001b4:	428b      	cmp	r3, r1
 80001b6:	d301      	bcc.n	80001bc <__udivsi3+0xb4>
 80001b8:	018b      	lsls	r3, r1, #6
 80001ba:	1ac0      	subs	r0, r0, r3
 80001bc:	4152      	adcs	r2, r2
 80001be:	0943      	lsrs	r3, r0, #5
 80001c0:	428b      	cmp	r3, r1
 80001c2:	d301      	bcc.n	80001c8 <__udivsi3+0xc0>
 80001c4:	014b      	lsls	r3, r1, #5
 80001c6:	1ac0      	subs	r0, r0, r3
 80001c8:	4152      	adcs	r2, r2
 80001ca:	0903      	lsrs	r3, r0, #4
 80001cc:	428b      	cmp	r3, r1
 80001ce:	d301      	bcc.n	80001d4 <__udivsi3+0xcc>
 80001d0:	010b      	lsls	r3, r1, #4
 80001d2:	1ac0      	subs	r0, r0, r3
 80001d4:	4152      	adcs	r2, r2
 80001d6:	08c3      	lsrs	r3, r0, #3
 80001d8:	428b      	cmp	r3, r1
 80001da:	d301      	bcc.n	80001e0 <__udivsi3+0xd8>
 80001dc:	00cb      	lsls	r3, r1, #3
 80001de:	1ac0      	subs	r0, r0, r3
 80001e0:	4152      	adcs	r2, r2
 80001e2:	0883      	lsrs	r3, r0, #2
 80001e4:	428b      	cmp	r3, r1
 80001e6:	d301      	bcc.n	80001ec <__udivsi3+0xe4>
 80001e8:	008b      	lsls	r3, r1, #2
 80001ea:	1ac0      	subs	r0, r0, r3
 80001ec:	4152      	adcs	r2, r2
 80001ee:	0843      	lsrs	r3, r0, #1
 80001f0:	428b      	cmp	r3, r1
 80001f2:	d301      	bcc.n	80001f8 <__udivsi3+0xf0>
 80001f4:	004b      	lsls	r3, r1, #1
 80001f6:	1ac0      	subs	r0, r0, r3
 80001f8:	4152      	adcs	r2, r2
 80001fa:	1a41      	subs	r1, r0, r1
 80001fc:	d200      	bcs.n	8000200 <__udivsi3+0xf8>
 80001fe:	4601      	mov	r1, r0
 8000200:	4152      	adcs	r2, r2
 8000202:	4610      	mov	r0, r2
 8000204:	4770      	bx	lr
 8000206:	e7ff      	b.n	8000208 <__udivsi3+0x100>
 8000208:	b501      	push	{r0, lr}
 800020a:	2000      	movs	r0, #0
 800020c:	f000 f806 	bl	800021c <__aeabi_idiv0>
 8000210:	bd02      	pop	{r1, pc}
 8000212:	46c0      	nop			; (mov r8, r8)

08000214 <__aeabi_uidivmod>:
 8000214:	2900      	cmp	r1, #0
 8000216:	d0f7      	beq.n	8000208 <__udivsi3+0x100>
 8000218:	e776      	b.n	8000108 <__udivsi3>
 800021a:	4770      	bx	lr

0800021c <__aeabi_idiv0>:
 800021c:	4770      	bx	lr
 800021e:	46c0      	nop			; (mov r8, r8)

08000220 <main>:
/**
  * @brief  The application entry point.
  * @retval int
  */
int main(void)
{
 8000220:	b580      	push	{r7, lr}
 8000222:	b082      	sub	sp, #8
 8000224:	af00      	add	r7, sp, #0
  

  /* MCU Configuration--------------------------------------------------------*/

  /* Reset of all peripherals, Initializes the Flash interface and the Systick. */
  HAL_Init();
 8000226:	f000 fae7 	bl	80007f8 <HAL_Init>
  /* USER CODE BEGIN Init */

  /* USER CODE END Init */

  /* Configure the system clock */
  SystemClock_Config();
 800022a:	f000 f833 	bl	8000294 <SystemClock_Config>
  /* USER CODE BEGIN SysInit */

  /* USER CODE END SysInit */

  /* Initialize all configured peripherals */
  MX_GPIO_Init();
 800022e:	f000 f88d 	bl	800034c <MX_GPIO_Init>
  /* USER CODE BEGIN 2 */
  HAL_PWR_EnableWakeUpPin(PWR_WAKEUP_PIN1);
 8000232:	2380      	movs	r3, #128	; 0x80
 8000234:	005b      	lsls	r3, r3, #1
 8000236:	0018      	movs	r0, r3
 8000238:	f000 fd94 	bl	8000d64 <HAL_PWR_EnableWakeUpPin>
  while (1)
  {
    /* USER CODE END WHILE */

    /* USER CODE BEGIN 3 */
  	HAL_PWR_EnterSTANDBYMode();
 800023c:	f000 fda2 	bl	8000d84 <HAL_PWR_EnterSTANDBYMode>
  	uint32_t delay1=50, delay2=600;
 8000240:	2332      	movs	r3, #50	; 0x32
 8000242:	607b      	str	r3, [r7, #4]
 8000244:	2396      	movs	r3, #150	; 0x96
 8000246:	009b      	lsls	r3, r3, #2
 8000248:	603b      	str	r3, [r7, #0]
  	wheel(delay1);
 800024a:	687b      	ldr	r3, [r7, #4]
 800024c:	0018      	movs	r0, r3
 800024e:	f000 f95e 	bl	800050e <wheel>
  	wheel(delay1);
 8000252:	687b      	ldr	r3, [r7, #4]
 8000254:	0018      	movs	r0, r3
 8000256:	f000 f95a 	bl	800050e <wheel>
  	wheel(delay1);
 800025a:	687b      	ldr	r3, [r7, #4]
 800025c:	0018      	movs	r0, r3
 800025e:	f000 f956 	bl	800050e <wheel>
  	wheel(delay1);
 8000262:	687b      	ldr	r3, [r7, #4]
 8000264:	0018      	movs	r0, r3
 8000266:	f000 f952 	bl	800050e <wheel>
  	half_wheel(delay1);
 800026a:	687b      	ldr	r3, [r7, #4]
 800026c:	0018      	movs	r0, r3
 800026e:	f000 f99c 	bl	80005aa <half_wheel>
		delay_onoff(delay2);
 8000272:	683b      	ldr	r3, [r7, #0]
 8000274:	0018      	movs	r0, r3
 8000276:	f000 f9f1 	bl	800065c <delay_onoff>
		onoff(delay2);
 800027a:	683b      	ldr	r3, [r7, #0]
 800027c:	0018      	movs	r0, r3
 800027e:	f000 f9bf 	bl	8000600 <onoff>
		onoff(delay2);
 8000282:	683b      	ldr	r3, [r7, #0]
 8000284:	0018      	movs	r0, r3
 8000286:	f000 f9bb 	bl	8000600 <onoff>
		HAL_Delay(delay2);
 800028a:	683b      	ldr	r3, [r7, #0]
 800028c:	0018      	movs	r0, r3
 800028e:	f000 fb13 	bl	80008b8 <HAL_Delay>
  {
 8000292:	e7d3      	b.n	800023c <main+0x1c>

08000294 <SystemClock_Config>:
/**
  * @brief System Clock Configuration
  * @retval None
  */
void SystemClock_Config(void)
{
 8000294:	b590      	push	{r4, r7, lr}
 8000296:	b093      	sub	sp, #76	; 0x4c
 8000298:	af00      	add	r7, sp, #0
  RCC_OscInitTypeDef RCC_OscInitStruct = {0};
 800029a:	2414      	movs	r4, #20
 800029c:	193b      	adds	r3, r7, r4
 800029e:	0018      	movs	r0, r3
 80002a0:	2334      	movs	r3, #52	; 0x34
 80002a2:	001a      	movs	r2, r3
 80002a4:	2100      	movs	r1, #0
 80002a6:	f001 facf 	bl	8001848 <memset>
  RCC_ClkInitTypeDef RCC_ClkInitStruct = {0};
 80002aa:	003b      	movs	r3, r7
 80002ac:	0018      	movs	r0, r3
 80002ae:	2314      	movs	r3, #20
 80002b0:	001a      	movs	r2, r3
 80002b2:	2100      	movs	r1, #0
 80002b4:	f001 fac8 	bl	8001848 <memset>

  /** Configure the main internal regulator output voltage 
  */
  __HAL_PWR_VOLTAGESCALING_CONFIG(PWR_REGULATOR_VOLTAGE_SCALE1);
 80002b8:	4b22      	ldr	r3, [pc, #136]	; (8000344 <SystemClock_Config+0xb0>)
 80002ba:	681b      	ldr	r3, [r3, #0]
 80002bc:	4a22      	ldr	r2, [pc, #136]	; (8000348 <SystemClock_Config+0xb4>)
 80002be:	401a      	ands	r2, r3
 80002c0:	4b20      	ldr	r3, [pc, #128]	; (8000344 <SystemClock_Config+0xb0>)
 80002c2:	2180      	movs	r1, #128	; 0x80
 80002c4:	0109      	lsls	r1, r1, #4
 80002c6:	430a      	orrs	r2, r1
 80002c8:	601a      	str	r2, [r3, #0]
  /** Initializes the CPU, AHB and APB busses clocks 
  */
  RCC_OscInitStruct.OscillatorType = RCC_OSCILLATORTYPE_HSI;
 80002ca:	0021      	movs	r1, r4
 80002cc:	187b      	adds	r3, r7, r1
 80002ce:	2202      	movs	r2, #2
 80002d0:	601a      	str	r2, [r3, #0]
  RCC_OscInitStruct.HSIState = RCC_HSI_ON;
 80002d2:	187b      	adds	r3, r7, r1
 80002d4:	2201      	movs	r2, #1
 80002d6:	60da      	str	r2, [r3, #12]
  RCC_OscInitStruct.HSICalibrationValue = RCC_HSICALIBRATION_DEFAULT;
 80002d8:	187b      	adds	r3, r7, r1
 80002da:	2210      	movs	r2, #16
 80002dc:	611a      	str	r2, [r3, #16]
  RCC_OscInitStruct.PLL.PLLState = RCC_PLL_ON;
 80002de:	187b      	adds	r3, r7, r1
 80002e0:	2202      	movs	r2, #2
 80002e2:	625a      	str	r2, [r3, #36]	; 0x24
  RCC_OscInitStruct.PLL.PLLSource = RCC_PLLSOURCE_HSI;
 80002e4:	187b      	adds	r3, r7, r1
 80002e6:	2200      	movs	r2, #0
 80002e8:	629a      	str	r2, [r3, #40]	; 0x28
  RCC_OscInitStruct.PLL.PLLMUL = RCC_PLLMUL_4;
 80002ea:	187b      	adds	r3, r7, r1
 80002ec:	2280      	movs	r2, #128	; 0x80
 80002ee:	02d2      	lsls	r2, r2, #11
 80002f0:	62da      	str	r2, [r3, #44]	; 0x2c
  RCC_OscInitStruct.PLL.PLLDIV = RCC_PLLDIV_4;
 80002f2:	187b      	adds	r3, r7, r1
 80002f4:	22c0      	movs	r2, #192	; 0xc0
 80002f6:	0412      	lsls	r2, r2, #16
 80002f8:	631a      	str	r2, [r3, #48]	; 0x30
  if (HAL_RCC_OscConfig(&RCC_OscInitStruct) != HAL_OK)
 80002fa:	187b      	adds	r3, r7, r1
 80002fc:	0018      	movs	r0, r3
 80002fe:	f000 fd57 	bl	8000db0 <HAL_RCC_OscConfig>
 8000302:	1e03      	subs	r3, r0, #0
 8000304:	d001      	beq.n	800030a <SystemClock_Config+0x76>
  {
    Error_Handler();
 8000306:	f000 f9c4 	bl	8000692 <Error_Handler>
  }
  /** Initializes the CPU, AHB and APB busses clocks 
  */
  RCC_ClkInitStruct.ClockType = RCC_CLOCKTYPE_HCLK|RCC_CLOCKTYPE_SYSCLK
 800030a:	003b      	movs	r3, r7
 800030c:	220f      	movs	r2, #15
 800030e:	601a      	str	r2, [r3, #0]
                              |RCC_CLOCKTYPE_PCLK1|RCC_CLOCKTYPE_PCLK2;
  RCC_ClkInitStruct.SYSCLKSource = RCC_SYSCLKSOURCE_PLLCLK;
 8000310:	003b      	movs	r3, r7
 8000312:	2203      	movs	r2, #3
 8000314:	605a      	str	r2, [r3, #4]
  RCC_ClkInitStruct.AHBCLKDivider = RCC_SYSCLK_DIV64;
 8000316:	003b      	movs	r3, r7
 8000318:	22c0      	movs	r2, #192	; 0xc0
 800031a:	609a      	str	r2, [r3, #8]
  RCC_ClkInitStruct.APB1CLKDivider = RCC_HCLK_DIV1;
 800031c:	003b      	movs	r3, r7
 800031e:	2200      	movs	r2, #0
 8000320:	60da      	str	r2, [r3, #12]
  RCC_ClkInitStruct.APB2CLKDivider = RCC_HCLK_DIV1;
 8000322:	003b      	movs	r3, r7
 8000324:	2200      	movs	r2, #0
 8000326:	611a      	str	r2, [r3, #16]

  if (HAL_RCC_ClockConfig(&RCC_ClkInitStruct, FLASH_LATENCY_0) != HAL_OK)
 8000328:	003b      	movs	r3, r7
 800032a:	2100      	movs	r1, #0
 800032c:	0018      	movs	r0, r3
 800032e:	f001 f8b9 	bl	80014a4 <HAL_RCC_ClockConfig>
 8000332:	1e03      	subs	r3, r0, #0
 8000334:	d001      	beq.n	800033a <SystemClock_Config+0xa6>
  {
    Error_Handler();
 8000336:	f000 f9ac 	bl	8000692 <Error_Handler>
  }
}
 800033a:	46c0      	nop			; (mov r8, r8)
 800033c:	46bd      	mov	sp, r7
 800033e:	b013      	add	sp, #76	; 0x4c
 8000340:	bd90      	pop	{r4, r7, pc}
 8000342:	46c0      	nop			; (mov r8, r8)
 8000344:	40007000 	.word	0x40007000
 8000348:	ffffe7ff 	.word	0xffffe7ff

0800034c <MX_GPIO_Init>:
  * @brief GPIO Initialization Function
  * @param None
  * @retval None
  */
static void MX_GPIO_Init(void)
{
 800034c:	b590      	push	{r4, r7, lr}
 800034e:	b089      	sub	sp, #36	; 0x24
 8000350:	af00      	add	r7, sp, #0
  GPIO_InitTypeDef GPIO_InitStruct = {0};
 8000352:	240c      	movs	r4, #12
 8000354:	193b      	adds	r3, r7, r4
 8000356:	0018      	movs	r0, r3
 8000358:	2314      	movs	r3, #20
 800035a:	001a      	movs	r2, r3
 800035c:	2100      	movs	r1, #0
 800035e:	f001 fa73 	bl	8001848 <memset>

  /* GPIO Ports Clock Enable */
  __HAL_RCC_GPIOC_CLK_ENABLE();
 8000362:	4b39      	ldr	r3, [pc, #228]	; (8000448 <MX_GPIO_Init+0xfc>)
 8000364:	6ada      	ldr	r2, [r3, #44]	; 0x2c
 8000366:	4b38      	ldr	r3, [pc, #224]	; (8000448 <MX_GPIO_Init+0xfc>)
 8000368:	2104      	movs	r1, #4
 800036a:	430a      	orrs	r2, r1
 800036c:	62da      	str	r2, [r3, #44]	; 0x2c
 800036e:	4b36      	ldr	r3, [pc, #216]	; (8000448 <MX_GPIO_Init+0xfc>)
 8000370:	6adb      	ldr	r3, [r3, #44]	; 0x2c
 8000372:	2204      	movs	r2, #4
 8000374:	4013      	ands	r3, r2
 8000376:	60bb      	str	r3, [r7, #8]
 8000378:	68bb      	ldr	r3, [r7, #8]
  __HAL_RCC_GPIOA_CLK_ENABLE();
 800037a:	4b33      	ldr	r3, [pc, #204]	; (8000448 <MX_GPIO_Init+0xfc>)
 800037c:	6ada      	ldr	r2, [r3, #44]	; 0x2c
 800037e:	4b32      	ldr	r3, [pc, #200]	; (8000448 <MX_GPIO_Init+0xfc>)
 8000380:	2101      	movs	r1, #1
 8000382:	430a      	orrs	r2, r1
 8000384:	62da      	str	r2, [r3, #44]	; 0x2c
 8000386:	4b30      	ldr	r3, [pc, #192]	; (8000448 <MX_GPIO_Init+0xfc>)
 8000388:	6adb      	ldr	r3, [r3, #44]	; 0x2c
 800038a:	2201      	movs	r2, #1
 800038c:	4013      	ands	r3, r2
 800038e:	607b      	str	r3, [r7, #4]
 8000390:	687b      	ldr	r3, [r7, #4]
  __HAL_RCC_GPIOB_CLK_ENABLE();
 8000392:	4b2d      	ldr	r3, [pc, #180]	; (8000448 <MX_GPIO_Init+0xfc>)
 8000394:	6ada      	ldr	r2, [r3, #44]	; 0x2c
 8000396:	4b2c      	ldr	r3, [pc, #176]	; (8000448 <MX_GPIO_Init+0xfc>)
 8000398:	2102      	movs	r1, #2
 800039a:	430a      	orrs	r2, r1
 800039c:	62da      	str	r2, [r3, #44]	; 0x2c
 800039e:	4b2a      	ldr	r3, [pc, #168]	; (8000448 <MX_GPIO_Init+0xfc>)
 80003a0:	6adb      	ldr	r3, [r3, #44]	; 0x2c
 80003a2:	2202      	movs	r2, #2
 80003a4:	4013      	ands	r3, r2
 80003a6:	603b      	str	r3, [r7, #0]
 80003a8:	683b      	ldr	r3, [r7, #0]

  /*Configure GPIO pin Output Level */
  HAL_GPIO_WritePin(GPIOA, LED4_Pin|LED3_Pin|LED2_Pin|LED1_Pin 
 80003aa:	4928      	ldr	r1, [pc, #160]	; (800044c <MX_GPIO_Init+0x100>)
 80003ac:	23a0      	movs	r3, #160	; 0xa0
 80003ae:	05db      	lsls	r3, r3, #23
 80003b0:	2200      	movs	r2, #0
 80003b2:	0018      	movs	r0, r3
 80003b4:	f000 fcb8 	bl	8000d28 <HAL_GPIO_WritePin>
                          |LED5_Pin, GPIO_PIN_RESET);

  /*Configure GPIO pins : PC14 PC15 */
  GPIO_InitStruct.Pin = GPIO_PIN_14|GPIO_PIN_15;
 80003b8:	193b      	adds	r3, r7, r4
 80003ba:	22c0      	movs	r2, #192	; 0xc0
 80003bc:	0212      	lsls	r2, r2, #8
 80003be:	601a      	str	r2, [r3, #0]
  GPIO_InitStruct.Mode = GPIO_MODE_ANALOG;
 80003c0:	193b      	adds	r3, r7, r4
 80003c2:	2203      	movs	r2, #3
 80003c4:	605a      	str	r2, [r3, #4]
  GPIO_InitStruct.Pull = GPIO_NOPULL;
 80003c6:	193b      	adds	r3, r7, r4
 80003c8:	2200      	movs	r2, #0
 80003ca:	609a      	str	r2, [r3, #8]
  HAL_GPIO_Init(GPIOC, &GPIO_InitStruct);
 80003cc:	193b      	adds	r3, r7, r4
 80003ce:	4a20      	ldr	r2, [pc, #128]	; (8000450 <MX_GPIO_Init+0x104>)
 80003d0:	0019      	movs	r1, r3
 80003d2:	0010      	movs	r0, r2
 80003d4:	f000 fb42 	bl	8000a5c <HAL_GPIO_Init>

  /*Configure GPIO pins : LED4_Pin LED3_Pin LED2_Pin LED1_Pin 
                           LED5_Pin */
  GPIO_InitStruct.Pin = LED4_Pin|LED3_Pin|LED2_Pin|LED1_Pin 
 80003d8:	193b      	adds	r3, r7, r4
 80003da:	4a1c      	ldr	r2, [pc, #112]	; (800044c <MX_GPIO_Init+0x100>)
 80003dc:	601a      	str	r2, [r3, #0]
                          |LED5_Pin;
  GPIO_InitStruct.Mode = GPIO_MODE_OUTPUT_PP;
 80003de:	193b      	adds	r3, r7, r4
 80003e0:	2201      	movs	r2, #1
 80003e2:	605a      	str	r2, [r3, #4]
  GPIO_InitStruct.Pull = GPIO_NOPULL;
 80003e4:	193b      	adds	r3, r7, r4
 80003e6:	2200      	movs	r2, #0
 80003e8:	609a      	str	r2, [r3, #8]
  GPIO_InitStruct.Speed = GPIO_SPEED_FREQ_LOW;
 80003ea:	193b      	adds	r3, r7, r4
 80003ec:	2200      	movs	r2, #0
 80003ee:	60da      	str	r2, [r3, #12]
  HAL_GPIO_Init(GPIOA, &GPIO_InitStruct);
 80003f0:	193a      	adds	r2, r7, r4
 80003f2:	23a0      	movs	r3, #160	; 0xa0
 80003f4:	05db      	lsls	r3, r3, #23
 80003f6:	0011      	movs	r1, r2
 80003f8:	0018      	movs	r0, r3
 80003fa:	f000 fb2f 	bl	8000a5c <HAL_GPIO_Init>

  /*Configure GPIO pins : PA5 PA6 PA7 PA10 */
  GPIO_InitStruct.Pin = GPIO_PIN_5|GPIO_PIN_6|GPIO_PIN_7|GPIO_PIN_10;
 80003fe:	193b      	adds	r3, r7, r4
 8000400:	229c      	movs	r2, #156	; 0x9c
 8000402:	00d2      	lsls	r2, r2, #3
 8000404:	601a      	str	r2, [r3, #0]
  GPIO_InitStruct.Mode = GPIO_MODE_ANALOG;
 8000406:	193b      	adds	r3, r7, r4
 8000408:	2203      	movs	r2, #3
 800040a:	605a      	str	r2, [r3, #4]
  GPIO_InitStruct.Pull = GPIO_NOPULL;
 800040c:	193b      	adds	r3, r7, r4
 800040e:	2200      	movs	r2, #0
 8000410:	609a      	str	r2, [r3, #8]
  HAL_GPIO_Init(GPIOA, &GPIO_InitStruct);
 8000412:	193a      	adds	r2, r7, r4
 8000414:	23a0      	movs	r3, #160	; 0xa0
 8000416:	05db      	lsls	r3, r3, #23
 8000418:	0011      	movs	r1, r2
 800041a:	0018      	movs	r0, r3
 800041c:	f000 fb1e 	bl	8000a5c <HAL_GPIO_Init>

  /*Configure GPIO pin : PB1 */
  GPIO_InitStruct.Pin = GPIO_PIN_1;
 8000420:	193b      	adds	r3, r7, r4
 8000422:	2202      	movs	r2, #2
 8000424:	601a      	str	r2, [r3, #0]
  GPIO_InitStruct.Mode = GPIO_MODE_ANALOG;
 8000426:	193b      	adds	r3, r7, r4
 8000428:	2203      	movs	r2, #3
 800042a:	605a      	str	r2, [r3, #4]
  GPIO_InitStruct.Pull = GPIO_NOPULL;
 800042c:	193b      	adds	r3, r7, r4
 800042e:	2200      	movs	r2, #0
 8000430:	609a      	str	r2, [r3, #8]
  HAL_GPIO_Init(GPIOB, &GPIO_InitStruct);
 8000432:	193b      	adds	r3, r7, r4
 8000434:	4a07      	ldr	r2, [pc, #28]	; (8000454 <MX_GPIO_Init+0x108>)
 8000436:	0019      	movs	r1, r3
 8000438:	0010      	movs	r0, r2
 800043a:	f000 fb0f 	bl	8000a5c <HAL_GPIO_Init>

}
 800043e:	46c0      	nop			; (mov r8, r8)
 8000440:	46bd      	mov	sp, r7
 8000442:	b009      	add	sp, #36	; 0x24
 8000444:	bd90      	pop	{r4, r7, pc}
 8000446:	46c0      	nop			; (mov r8, r8)
 8000448:	40021000 	.word	0x40021000
 800044c:	0000021e 	.word	0x0000021e
 8000450:	50000800 	.word	0x50000800
 8000454:	50000400 	.word	0x50000400

08000458 <led1>:

/* USER CODE BEGIN 4 */
void led1(GPIO_PinState state){
 8000458:	b580      	push	{r7, lr}
 800045a:	b082      	sub	sp, #8
 800045c:	af00      	add	r7, sp, #0
 800045e:	0002      	movs	r2, r0
 8000460:	1dfb      	adds	r3, r7, #7
 8000462:	701a      	strb	r2, [r3, #0]
	HAL_GPIO_WritePin(LED1_GPIO_Port,LED1_Pin,state);
 8000464:	1dfb      	adds	r3, r7, #7
 8000466:	781a      	ldrb	r2, [r3, #0]
 8000468:	23a0      	movs	r3, #160	; 0xa0
 800046a:	05db      	lsls	r3, r3, #23
 800046c:	2110      	movs	r1, #16
 800046e:	0018      	movs	r0, r3
 8000470:	f000 fc5a 	bl	8000d28 <HAL_GPIO_WritePin>
}
 8000474:	46c0      	nop			; (mov r8, r8)
 8000476:	46bd      	mov	sp, r7
 8000478:	b002      	add	sp, #8
 800047a:	bd80      	pop	{r7, pc}

0800047c <led2>:

void led2(GPIO_PinState state){
 800047c:	b580      	push	{r7, lr}
 800047e:	b082      	sub	sp, #8
 8000480:	af00      	add	r7, sp, #0
 8000482:	0002      	movs	r2, r0
 8000484:	1dfb      	adds	r3, r7, #7
 8000486:	701a      	strb	r2, [r3, #0]
	HAL_GPIO_WritePin(LED2_GPIO_Port,LED2_Pin,state);
 8000488:	1dfb      	adds	r3, r7, #7
 800048a:	781a      	ldrb	r2, [r3, #0]
 800048c:	23a0      	movs	r3, #160	; 0xa0
 800048e:	05db      	lsls	r3, r3, #23
 8000490:	2108      	movs	r1, #8
 8000492:	0018      	movs	r0, r3
 8000494:	f000 fc48 	bl	8000d28 <HAL_GPIO_WritePin>
}
 8000498:	46c0      	nop			; (mov r8, r8)
 800049a:	46bd      	mov	sp, r7
 800049c:	b002      	add	sp, #8
 800049e:	bd80      	pop	{r7, pc}

080004a0 <led3>:

void led3(GPIO_PinState state){
 80004a0:	b580      	push	{r7, lr}
 80004a2:	b082      	sub	sp, #8
 80004a4:	af00      	add	r7, sp, #0
 80004a6:	0002      	movs	r2, r0
 80004a8:	1dfb      	adds	r3, r7, #7
 80004aa:	701a      	strb	r2, [r3, #0]
	HAL_GPIO_WritePin(LED3_GPIO_Port,LED3_Pin,state);
 80004ac:	1dfb      	adds	r3, r7, #7
 80004ae:	781a      	ldrb	r2, [r3, #0]
 80004b0:	23a0      	movs	r3, #160	; 0xa0
 80004b2:	05db      	lsls	r3, r3, #23
 80004b4:	2104      	movs	r1, #4
 80004b6:	0018      	movs	r0, r3
 80004b8:	f000 fc36 	bl	8000d28 <HAL_GPIO_WritePin>
}
 80004bc:	46c0      	nop			; (mov r8, r8)
 80004be:	46bd      	mov	sp, r7
 80004c0:	b002      	add	sp, #8
 80004c2:	bd80      	pop	{r7, pc}

080004c4 <led4>:

void led4(GPIO_PinState state){
 80004c4:	b580      	push	{r7, lr}
 80004c6:	b082      	sub	sp, #8
 80004c8:	af00      	add	r7, sp, #0
 80004ca:	0002      	movs	r2, r0
 80004cc:	1dfb      	adds	r3, r7, #7
 80004ce:	701a      	strb	r2, [r3, #0]
	HAL_GPIO_WritePin(LED4_GPIO_Port,LED4_Pin,state);
 80004d0:	1dfb      	adds	r3, r7, #7
 80004d2:	781a      	ldrb	r2, [r3, #0]
 80004d4:	23a0      	movs	r3, #160	; 0xa0
 80004d6:	05db      	lsls	r3, r3, #23
 80004d8:	2102      	movs	r1, #2
 80004da:	0018      	movs	r0, r3
 80004dc:	f000 fc24 	bl	8000d28 <HAL_GPIO_WritePin>
}
 80004e0:	46c0      	nop			; (mov r8, r8)
 80004e2:	46bd      	mov	sp, r7
 80004e4:	b002      	add	sp, #8
 80004e6:	bd80      	pop	{r7, pc}

080004e8 <led5>:

void led5(GPIO_PinState state){
 80004e8:	b580      	push	{r7, lr}
 80004ea:	b082      	sub	sp, #8
 80004ec:	af00      	add	r7, sp, #0
 80004ee:	0002      	movs	r2, r0
 80004f0:	1dfb      	adds	r3, r7, #7
 80004f2:	701a      	strb	r2, [r3, #0]
	HAL_GPIO_WritePin(LED5_GPIO_Port,LED5_Pin,state);
 80004f4:	1dfb      	adds	r3, r7, #7
 80004f6:	781a      	ldrb	r2, [r3, #0]
 80004f8:	2380      	movs	r3, #128	; 0x80
 80004fa:	0099      	lsls	r1, r3, #2
 80004fc:	23a0      	movs	r3, #160	; 0xa0
 80004fe:	05db      	lsls	r3, r3, #23
 8000500:	0018      	movs	r0, r3
 8000502:	f000 fc11 	bl	8000d28 <HAL_GPIO_WritePin>
}
 8000506:	46c0      	nop			; (mov r8, r8)
 8000508:	46bd      	mov	sp, r7
 800050a:	b002      	add	sp, #8
 800050c:	bd80      	pop	{r7, pc}

0800050e <wheel>:

void wheel(uint32_t delay){
 800050e:	b580      	push	{r7, lr}
 8000510:	b082      	sub	sp, #8
 8000512:	af00      	add	r7, sp, #0
 8000514:	6078      	str	r0, [r7, #4]
	led1(1);
 8000516:	2001      	movs	r0, #1
 8000518:	f7ff ff9e 	bl	8000458 <led1>
	HAL_Delay(delay);
 800051c:	687b      	ldr	r3, [r7, #4]
 800051e:	0018      	movs	r0, r3
 8000520:	f000 f9ca 	bl	80008b8 <HAL_Delay>
	led2(1);
 8000524:	2001      	movs	r0, #1
 8000526:	f7ff ffa9 	bl	800047c <led2>
	HAL_Delay(delay);
 800052a:	687b      	ldr	r3, [r7, #4]
 800052c:	0018      	movs	r0, r3
 800052e:	f000 f9c3 	bl	80008b8 <HAL_Delay>
	led3(1);
 8000532:	2001      	movs	r0, #1
 8000534:	f7ff ffb4 	bl	80004a0 <led3>
	HAL_Delay(delay);
 8000538:	687b      	ldr	r3, [r7, #4]
 800053a:	0018      	movs	r0, r3
 800053c:	f000 f9bc 	bl	80008b8 <HAL_Delay>
	led4(1);
 8000540:	2001      	movs	r0, #1
 8000542:	f7ff ffbf 	bl	80004c4 <led4>
	HAL_Delay(delay);
 8000546:	687b      	ldr	r3, [r7, #4]
 8000548:	0018      	movs	r0, r3
 800054a:	f000 f9b5 	bl	80008b8 <HAL_Delay>
	led5(1);
 800054e:	2001      	movs	r0, #1
 8000550:	f7ff ffca 	bl	80004e8 <led5>
	HAL_Delay(delay);
 8000554:	687b      	ldr	r3, [r7, #4]
 8000556:	0018      	movs	r0, r3
 8000558:	f000 f9ae 	bl	80008b8 <HAL_Delay>
	led1(0);
 800055c:	2000      	movs	r0, #0
 800055e:	f7ff ff7b 	bl	8000458 <led1>
	HAL_Delay(delay);
 8000562:	687b      	ldr	r3, [r7, #4]
 8000564:	0018      	movs	r0, r3
 8000566:	f000 f9a7 	bl	80008b8 <HAL_Delay>
	led2(0);
 800056a:	2000      	movs	r0, #0
 800056c:	f7ff ff86 	bl	800047c <led2>
	HAL_Delay(delay);
 8000570:	687b      	ldr	r3, [r7, #4]
 8000572:	0018      	movs	r0, r3
 8000574:	f000 f9a0 	bl	80008b8 <HAL_Delay>
	led3(0);
 8000578:	2000      	movs	r0, #0
 800057a:	f7ff ff91 	bl	80004a0 <led3>
	HAL_Delay(delay);
 800057e:	687b      	ldr	r3, [r7, #4]
 8000580:	0018      	movs	r0, r3
 8000582:	f000 f999 	bl	80008b8 <HAL_Delay>
	led4(0);
 8000586:	2000      	movs	r0, #0
 8000588:	f7ff ff9c 	bl	80004c4 <led4>
	HAL_Delay(delay);
 800058c:	687b      	ldr	r3, [r7, #4]
 800058e:	0018      	movs	r0, r3
 8000590:	f000 f992 	bl	80008b8 <HAL_Delay>
	led5(0);
 8000594:	2000      	movs	r0, #0
 8000596:	f7ff ffa7 	bl	80004e8 <led5>
	HAL_Delay(delay);
 800059a:	687b      	ldr	r3, [r7, #4]
 800059c:	0018      	movs	r0, r3
 800059e:	f000 f98b 	bl	80008b8 <HAL_Delay>
}
 80005a2:	46c0      	nop			; (mov r8, r8)
 80005a4:	46bd      	mov	sp, r7
 80005a6:	b002      	add	sp, #8
 80005a8:	bd80      	pop	{r7, pc}

080005aa <half_wheel>:

void half_wheel(uint32_t delay){
 80005aa:	b580      	push	{r7, lr}
 80005ac:	b082      	sub	sp, #8
 80005ae:	af00      	add	r7, sp, #0
 80005b0:	6078      	str	r0, [r7, #4]
	led1(1);
 80005b2:	2001      	movs	r0, #1
 80005b4:	f7ff ff50 	bl	8000458 <led1>
	HAL_Delay(delay);
 80005b8:	687b      	ldr	r3, [r7, #4]
 80005ba:	0018      	movs	r0, r3
 80005bc:	f000 f97c 	bl	80008b8 <HAL_Delay>
	led2(1);
 80005c0:	2001      	movs	r0, #1
 80005c2:	f7ff ff5b 	bl	800047c <led2>
	HAL_Delay(delay);
 80005c6:	687b      	ldr	r3, [r7, #4]
 80005c8:	0018      	movs	r0, r3
 80005ca:	f000 f975 	bl	80008b8 <HAL_Delay>
	led3(1);
 80005ce:	2001      	movs	r0, #1
 80005d0:	f7ff ff66 	bl	80004a0 <led3>
	HAL_Delay(delay);
 80005d4:	687b      	ldr	r3, [r7, #4]
 80005d6:	0018      	movs	r0, r3
 80005d8:	f000 f96e 	bl	80008b8 <HAL_Delay>
	led4(1);
 80005dc:	2001      	movs	r0, #1
 80005de:	f7ff ff71 	bl	80004c4 <led4>
	HAL_Delay(delay);
 80005e2:	687b      	ldr	r3, [r7, #4]
 80005e4:	0018      	movs	r0, r3
 80005e6:	f000 f967 	bl	80008b8 <HAL_Delay>
	led5(1);
 80005ea:	2001      	movs	r0, #1
 80005ec:	f7ff ff7c 	bl	80004e8 <led5>
	HAL_Delay(delay);
 80005f0:	687b      	ldr	r3, [r7, #4]
 80005f2:	0018      	movs	r0, r3
 80005f4:	f000 f960 	bl	80008b8 <HAL_Delay>
}
 80005f8:	46c0      	nop			; (mov r8, r8)
 80005fa:	46bd      	mov	sp, r7
 80005fc:	b002      	add	sp, #8
 80005fe:	bd80      	pop	{r7, pc}

08000600 <onoff>:

void onoff(uint32_t delay) {
 8000600:	b580      	push	{r7, lr}
 8000602:	b082      	sub	sp, #8
 8000604:	af00      	add	r7, sp, #0
 8000606:	6078      	str	r0, [r7, #4]
	HAL_Delay(delay);
 8000608:	687b      	ldr	r3, [r7, #4]
 800060a:	0018      	movs	r0, r3
 800060c:	f000 f954 	bl	80008b8 <HAL_Delay>
	led1(1);
 8000610:	2001      	movs	r0, #1
 8000612:	f7ff ff21 	bl	8000458 <led1>
	led2(1);
 8000616:	2001      	movs	r0, #1
 8000618:	f7ff ff30 	bl	800047c <led2>
	led3(1);
 800061c:	2001      	movs	r0, #1
 800061e:	f7ff ff3f 	bl	80004a0 <led3>
	led4(1);
 8000622:	2001      	movs	r0, #1
 8000624:	f7ff ff4e 	bl	80004c4 <led4>
	led5(1);
 8000628:	2001      	movs	r0, #1
 800062a:	f7ff ff5d 	bl	80004e8 <led5>
	HAL_Delay(delay);
 800062e:	687b      	ldr	r3, [r7, #4]
 8000630:	0018      	movs	r0, r3
 8000632:	f000 f941 	bl	80008b8 <HAL_Delay>
	led1(0);
 8000636:	2000      	movs	r0, #0
 8000638:	f7ff ff0e 	bl	8000458 <led1>
	led2(0);
 800063c:	2000      	movs	r0, #0
 800063e:	f7ff ff1d 	bl	800047c <led2>
	led3(0);
 8000642:	2000      	movs	r0, #0
 8000644:	f7ff ff2c 	bl	80004a0 <led3>
	led4(0);
 8000648:	2000      	movs	r0, #0
 800064a:	f7ff ff3b 	bl	80004c4 <led4>
	led5(0);
 800064e:	2000      	movs	r0, #0
 8000650:	f7ff ff4a 	bl	80004e8 <led5>
}
 8000654:	46c0      	nop			; (mov r8, r8)
 8000656:	46bd      	mov	sp, r7
 8000658:	b002      	add	sp, #8
 800065a:	bd80      	pop	{r7, pc}

0800065c <delay_onoff>:

void delay_onoff(uint32_t delay){
 800065c:	b580      	push	{r7, lr}
 800065e:	b082      	sub	sp, #8
 8000660:	af00      	add	r7, sp, #0
 8000662:	6078      	str	r0, [r7, #4]
	HAL_Delay(delay);
 8000664:	687b      	ldr	r3, [r7, #4]
 8000666:	0018      	movs	r0, r3
 8000668:	f000 f926 	bl	80008b8 <HAL_Delay>
	led1(0);
 800066c:	2000      	movs	r0, #0
 800066e:	f7ff fef3 	bl	8000458 <led1>
	led2(0);
 8000672:	2000      	movs	r0, #0
 8000674:	f7ff ff02 	bl	800047c <led2>
	led3(0);
 8000678:	2000      	movs	r0, #0
 800067a:	f7ff ff11 	bl	80004a0 <led3>
	led4(0);
 800067e:	2000      	movs	r0, #0
 8000680:	f7ff ff20 	bl	80004c4 <led4>
	led5(0);
 8000684:	2000      	movs	r0, #0
 8000686:	f7ff ff2f 	bl	80004e8 <led5>
}
 800068a:	46c0      	nop			; (mov r8, r8)
 800068c:	46bd      	mov	sp, r7
 800068e:	b002      	add	sp, #8
 8000690:	bd80      	pop	{r7, pc}

08000692 <Error_Handler>:
/**
  * @brief  This function is executed in case of error occurrence.
  * @retval None
  */
void Error_Handler(void)
{
 8000692:	b580      	push	{r7, lr}
 8000694:	af00      	add	r7, sp, #0
  /* USER CODE BEGIN Error_Handler_Debug */
  /* User can add his own implementation to report the HAL error return state */

  /* USER CODE END Error_Handler_Debug */
}
 8000696:	46c0      	nop			; (mov r8, r8)
 8000698:	46bd      	mov	sp, r7
 800069a:	bd80      	pop	{r7, pc}

0800069c <HAL_MspInit>:
/* USER CODE END 0 */
/**
  * Initializes the Global MSP.
  */
void HAL_MspInit(void)
{
 800069c:	b580      	push	{r7, lr}
 800069e:	af00      	add	r7, sp, #0
  /* USER CODE BEGIN MspInit 0 */

  /* USER CODE END MspInit 0 */

  __HAL_RCC_SYSCFG_CLK_ENABLE();
 80006a0:	4b07      	ldr	r3, [pc, #28]	; (80006c0 <HAL_MspInit+0x24>)
 80006a2:	6b5a      	ldr	r2, [r3, #52]	; 0x34
 80006a4:	4b06      	ldr	r3, [pc, #24]	; (80006c0 <HAL_MspInit+0x24>)
 80006a6:	2101      	movs	r1, #1
 80006a8:	430a      	orrs	r2, r1
 80006aa:	635a      	str	r2, [r3, #52]	; 0x34
  __HAL_RCC_PWR_CLK_ENABLE();
 80006ac:	4b04      	ldr	r3, [pc, #16]	; (80006c0 <HAL_MspInit+0x24>)
 80006ae:	6b9a      	ldr	r2, [r3, #56]	; 0x38
 80006b0:	4b03      	ldr	r3, [pc, #12]	; (80006c0 <HAL_MspInit+0x24>)
 80006b2:	2180      	movs	r1, #128	; 0x80
 80006b4:	0549      	lsls	r1, r1, #21
 80006b6:	430a      	orrs	r2, r1
 80006b8:	639a      	str	r2, [r3, #56]	; 0x38
  /* System interrupt init*/

  /* USER CODE BEGIN MspInit 1 */

  /* USER CODE END MspInit 1 */
}
 80006ba:	46c0      	nop			; (mov r8, r8)
 80006bc:	46bd      	mov	sp, r7
 80006be:	bd80      	pop	{r7, pc}
 80006c0:	40021000 	.word	0x40021000

080006c4 <NMI_Handler>:
/******************************************************************************/
/**
  * @brief This function handles Non maskable interrupt.
  */
void NMI_Handler(void)
{
 80006c4:	b580      	push	{r7, lr}
 80006c6:	af00      	add	r7, sp, #0

  /* USER CODE END NonMaskableInt_IRQn 0 */
  /* USER CODE BEGIN NonMaskableInt_IRQn 1 */

  /* USER CODE END NonMaskableInt_IRQn 1 */
}
 80006c8:	46c0      	nop			; (mov r8, r8)
 80006ca:	46bd      	mov	sp, r7
 80006cc:	bd80      	pop	{r7, pc}

080006ce <HardFault_Handler>:

/**
  * @brief This function handles Hard fault interrupt.
  */
void HardFault_Handler(void)
{
 80006ce:	b580      	push	{r7, lr}
 80006d0:	af00      	add	r7, sp, #0
  /* USER CODE BEGIN HardFault_IRQn 0 */

  /* USER CODE END HardFault_IRQn 0 */
  while (1)
 80006d2:	e7fe      	b.n	80006d2 <HardFault_Handler+0x4>

080006d4 <SVC_Handler>:

/**
  * @brief This function handles System service call via SWI instruction.
  */
void SVC_Handler(void)
{
 80006d4:	b580      	push	{r7, lr}
 80006d6:	af00      	add	r7, sp, #0

  /* USER CODE END SVC_IRQn 0 */
  /* USER CODE BEGIN SVC_IRQn 1 */

  /* USER CODE END SVC_IRQn 1 */
}
 80006d8:	46c0      	nop			; (mov r8, r8)
 80006da:	46bd      	mov	sp, r7
 80006dc:	bd80      	pop	{r7, pc}

080006de <PendSV_Handler>:

/**
  * @brief This function handles Pendable request for system service.
  */
void PendSV_Handler(void)
{
 80006de:	b580      	push	{r7, lr}
 80006e0:	af00      	add	r7, sp, #0

  /* USER CODE END PendSV_IRQn 0 */
  /* USER CODE BEGIN PendSV_IRQn 1 */

  /* USER CODE END PendSV_IRQn 1 */
}
 80006e2:	46c0      	nop			; (mov r8, r8)
 80006e4:	46bd      	mov	sp, r7
 80006e6:	bd80      	pop	{r7, pc}

080006e8 <SysTick_Handler>:

/**
  * @brief This function handles System tick timer.
  */
void SysTick_Handler(void)
{
 80006e8:	b580      	push	{r7, lr}
 80006ea:	af00      	add	r7, sp, #0
  /* USER CODE BEGIN SysTick_IRQn 0 */

  /* USER CODE END SysTick_IRQn 0 */
  HAL_IncTick();
 80006ec:	f000 f8ce 	bl	800088c <HAL_IncTick>
  /* USER CODE BEGIN SysTick_IRQn 1 */

  /* USER CODE END SysTick_IRQn 1 */
}
 80006f0:	46c0      	nop			; (mov r8, r8)
 80006f2:	46bd      	mov	sp, r7
 80006f4:	bd80      	pop	{r7, pc}
	...

080006f8 <SystemInit>:
  * @brief  Setup the microcontroller system.
  * @param  None
  * @retval None
  */
void SystemInit (void)
{
 80006f8:	b580      	push	{r7, lr}
 80006fa:	af00      	add	r7, sp, #0
/*!< Set MSION bit */
  RCC->CR |= (uint32_t)0x00000100U;
 80006fc:	4b17      	ldr	r3, [pc, #92]	; (800075c <SystemInit+0x64>)
 80006fe:	681a      	ldr	r2, [r3, #0]
 8000700:	4b16      	ldr	r3, [pc, #88]	; (800075c <SystemInit+0x64>)
 8000702:	2180      	movs	r1, #128	; 0x80
 8000704:	0049      	lsls	r1, r1, #1
 8000706:	430a      	orrs	r2, r1
 8000708:	601a      	str	r2, [r3, #0]

  /*!< Reset SW[1:0], HPRE[3:0], PPRE1[2:0], PPRE2[2:0], MCOSEL[2:0] and MCOPRE[2:0] bits */
  RCC->CFGR &= (uint32_t) 0x88FF400CU;
 800070a:	4b14      	ldr	r3, [pc, #80]	; (800075c <SystemInit+0x64>)
 800070c:	68da      	ldr	r2, [r3, #12]
 800070e:	4b13      	ldr	r3, [pc, #76]	; (800075c <SystemInit+0x64>)
 8000710:	4913      	ldr	r1, [pc, #76]	; (8000760 <SystemInit+0x68>)
 8000712:	400a      	ands	r2, r1
 8000714:	60da      	str	r2, [r3, #12]

  /*!< Reset HSION, HSIDIVEN, HSEON, CSSON and PLLON bits */
  RCC->CR &= (uint32_t)0xFEF6FFF6U;
 8000716:	4b11      	ldr	r3, [pc, #68]	; (800075c <SystemInit+0x64>)
 8000718:	681a      	ldr	r2, [r3, #0]
 800071a:	4b10      	ldr	r3, [pc, #64]	; (800075c <SystemInit+0x64>)
 800071c:	4911      	ldr	r1, [pc, #68]	; (8000764 <SystemInit+0x6c>)
 800071e:	400a      	ands	r2, r1
 8000720:	601a      	str	r2, [r3, #0]

  /*!< Reset HSI48ON  bit */
  RCC->CRRCR &= (uint32_t)0xFFFFFFFEU;
 8000722:	4b0e      	ldr	r3, [pc, #56]	; (800075c <SystemInit+0x64>)
 8000724:	689a      	ldr	r2, [r3, #8]
 8000726:	4b0d      	ldr	r3, [pc, #52]	; (800075c <SystemInit+0x64>)
 8000728:	2101      	movs	r1, #1
 800072a:	438a      	bics	r2, r1
 800072c:	609a      	str	r2, [r3, #8]

  /*!< Reset HSEBYP bit */
  RCC->CR &= (uint32_t)0xFFFBFFFFU;
 800072e:	4b0b      	ldr	r3, [pc, #44]	; (800075c <SystemInit+0x64>)
 8000730:	681a      	ldr	r2, [r3, #0]
 8000732:	4b0a      	ldr	r3, [pc, #40]	; (800075c <SystemInit+0x64>)
 8000734:	490c      	ldr	r1, [pc, #48]	; (8000768 <SystemInit+0x70>)
 8000736:	400a      	ands	r2, r1
 8000738:	601a      	str	r2, [r3, #0]

  /*!< Reset PLLSRC, PLLMUL[3:0] and PLLDIV[1:0] bits */
  RCC->CFGR &= (uint32_t)0xFF02FFFFU;
 800073a:	4b08      	ldr	r3, [pc, #32]	; (800075c <SystemInit+0x64>)
 800073c:	68da      	ldr	r2, [r3, #12]
 800073e:	4b07      	ldr	r3, [pc, #28]	; (800075c <SystemInit+0x64>)
 8000740:	490a      	ldr	r1, [pc, #40]	; (800076c <SystemInit+0x74>)
 8000742:	400a      	ands	r2, r1
 8000744:	60da      	str	r2, [r3, #12]

  /*!< Disable all interrupts */
  RCC->CIER = 0x00000000U;
 8000746:	4b05      	ldr	r3, [pc, #20]	; (800075c <SystemInit+0x64>)
 8000748:	2200      	movs	r2, #0
 800074a:	611a      	str	r2, [r3, #16]

  /* Configure the Vector Table location add offset address ------------------*/
#ifdef VECT_TAB_SRAM
  SCB->VTOR = SRAM_BASE | VECT_TAB_OFFSET; /* Vector Table Relocation in Internal SRAM */
#else
  SCB->VTOR = FLASH_BASE | VECT_TAB_OFFSET; /* Vector Table Relocation in Internal FLASH */
 800074c:	4b08      	ldr	r3, [pc, #32]	; (8000770 <SystemInit+0x78>)
 800074e:	2280      	movs	r2, #128	; 0x80
 8000750:	0512      	lsls	r2, r2, #20
 8000752:	609a      	str	r2, [r3, #8]
#endif
}
 8000754:	46c0      	nop			; (mov r8, r8)
 8000756:	46bd      	mov	sp, r7
 8000758:	bd80      	pop	{r7, pc}
 800075a:	46c0      	nop			; (mov r8, r8)
 800075c:	40021000 	.word	0x40021000
 8000760:	88ff400c 	.word	0x88ff400c
 8000764:	fef6fff6 	.word	0xfef6fff6
 8000768:	fffbffff 	.word	0xfffbffff
 800076c:	ff02ffff 	.word	0xff02ffff
 8000770:	e000ed00 	.word	0xe000ed00

08000774 <Reset_Handler>:

    .section  .text.Reset_Handler
  .weak  Reset_Handler
  .type  Reset_Handler, %function
Reset_Handler:  
   ldr   r0, =_estack
 8000774:	4813      	ldr	r0, [pc, #76]	; (80007c4 <LoopForever+0x2>)
   mov   sp, r0          /* set stack pointer */
 8000776:	4685      	mov	sp, r0

/*Check if boot space corresponds to system memory*/

    LDR R0,=0x00000004
 8000778:	4813      	ldr	r0, [pc, #76]	; (80007c8 <LoopForever+0x6>)
    LDR R1, [R0]
 800077a:	6801      	ldr	r1, [r0, #0]
    LSRS R1, R1, #24
 800077c:	0e09      	lsrs	r1, r1, #24
    LDR R2,=0x1F
 800077e:	4a13      	ldr	r2, [pc, #76]	; (80007cc <LoopForever+0xa>)
    CMP R1, R2
 8000780:	4291      	cmp	r1, r2
    BNE ApplicationStart
 8000782:	d105      	bne.n	8000790 <ApplicationStart>

 /*SYSCFG clock enable*/
    LDR R0,=0x40021034
 8000784:	4812      	ldr	r0, [pc, #72]	; (80007d0 <LoopForever+0xe>)
    LDR R1,=0x00000001
 8000786:	4913      	ldr	r1, [pc, #76]	; (80007d4 <LoopForever+0x12>)
    STR R1, [R0]
 8000788:	6001      	str	r1, [r0, #0]

/*Set CFGR1 register with flash memory remap at address 0*/
    LDR R0,=0x40010000
 800078a:	4813      	ldr	r0, [pc, #76]	; (80007d8 <LoopForever+0x16>)
    LDR R1,=0x00000000
 800078c:	4913      	ldr	r1, [pc, #76]	; (80007dc <LoopForever+0x1a>)
    STR R1, [R0]
 800078e:	6001      	str	r1, [r0, #0]

08000790 <ApplicationStart>:

ApplicationStart:
/* Copy the data segment initializers from flash to SRAM */
  movs  r1, #0
 8000790:	2100      	movs	r1, #0
  b  LoopCopyDataInit
 8000792:	e003      	b.n	800079c <LoopCopyDataInit>

08000794 <CopyDataInit>:

CopyDataInit:
  ldr  r3, =_sidata
 8000794:	4b12      	ldr	r3, [pc, #72]	; (80007e0 <LoopForever+0x1e>)
  ldr  r3, [r3, r1]
 8000796:	585b      	ldr	r3, [r3, r1]
  str  r3, [r0, r1]
 8000798:	5043      	str	r3, [r0, r1]
  adds  r1, r1, #4
 800079a:	3104      	adds	r1, #4

0800079c <LoopCopyDataInit>:

LoopCopyDataInit:
  ldr  r0, =_sdata
 800079c:	4811      	ldr	r0, [pc, #68]	; (80007e4 <LoopForever+0x22>)
  ldr  r3, =_edata
 800079e:	4b12      	ldr	r3, [pc, #72]	; (80007e8 <LoopForever+0x26>)
  adds  r2, r0, r1
 80007a0:	1842      	adds	r2, r0, r1
  cmp  r2, r3
 80007a2:	429a      	cmp	r2, r3
  bcc  CopyDataInit
 80007a4:	d3f6      	bcc.n	8000794 <CopyDataInit>
  ldr  r2, =_sbss
 80007a6:	4a11      	ldr	r2, [pc, #68]	; (80007ec <LoopForever+0x2a>)
  b  LoopFillZerobss
 80007a8:	e002      	b.n	80007b0 <LoopFillZerobss>

080007aa <FillZerobss>:
/* Zero fill the bss segment. */
FillZerobss:
  movs  r3, #0
 80007aa:	2300      	movs	r3, #0
  str  r3, [r2]
 80007ac:	6013      	str	r3, [r2, #0]
  adds r2, r2, #4
 80007ae:	3204      	adds	r2, #4

080007b0 <LoopFillZerobss>:


LoopFillZerobss:
  ldr  r3, = _ebss
 80007b0:	4b0f      	ldr	r3, [pc, #60]	; (80007f0 <LoopForever+0x2e>)
  cmp  r2, r3
 80007b2:	429a      	cmp	r2, r3
  bcc  FillZerobss
 80007b4:	d3f9      	bcc.n	80007aa <FillZerobss>

/* Call the clock system intitialization function.*/
  bl  SystemInit
 80007b6:	f7ff ff9f 	bl	80006f8 <SystemInit>
/* Call static constructors */
    bl __libc_init_array
 80007ba:	f001 f821 	bl	8001800 <__libc_init_array>
/* Call the application's entry point.*/
  bl  main
 80007be:	f7ff fd2f 	bl	8000220 <main>

080007c2 <LoopForever>:

LoopForever:
    b LoopForever
 80007c2:	e7fe      	b.n	80007c2 <LoopForever>
   ldr   r0, =_estack
 80007c4:	20000800 	.word	0x20000800
    LDR R0,=0x00000004
 80007c8:	00000004 	.word	0x00000004
    LDR R2,=0x1F
 80007cc:	0000001f 	.word	0x0000001f
    LDR R0,=0x40021034
 80007d0:	40021034 	.word	0x40021034
    LDR R1,=0x00000001
 80007d4:	00000001 	.word	0x00000001
    LDR R0,=0x40010000
 80007d8:	40010000 	.word	0x40010000
    LDR R1,=0x00000000
 80007dc:	00000000 	.word	0x00000000
  ldr  r3, =_sidata
 80007e0:	08001894 	.word	0x08001894
  ldr  r0, =_sdata
 80007e4:	20000000 	.word	0x20000000
  ldr  r3, =_edata
 80007e8:	20000004 	.word	0x20000004
  ldr  r2, =_sbss
 80007ec:	20000004 	.word	0x20000004
  ldr  r3, = _ebss
 80007f0:	20000024 	.word	0x20000024

080007f4 <ADC1_COMP_IRQHandler>:
 * @retval : None
*/
    .section  .text.Default_Handler,"ax",%progbits
Default_Handler:
Infinite_Loop:
  b  Infinite_Loop
 80007f4:	e7fe      	b.n	80007f4 <ADC1_COMP_IRQHandler>
	...

080007f8 <HAL_Init>:
  *        In the default implementation,Systick is used as source of time base.
  *        the tick variable is incremented each 1ms in its ISR.
  * @retval HAL status
  */
HAL_StatusTypeDef HAL_Init(void)
{
 80007f8:	b580      	push	{r7, lr}
 80007fa:	b082      	sub	sp, #8
 80007fc:	af00      	add	r7, sp, #0
  HAL_StatusTypeDef  status = HAL_OK;
 80007fe:	1dfb      	adds	r3, r7, #7
 8000800:	2200      	movs	r2, #0
 8000802:	701a      	strb	r2, [r3, #0]
#if (BUFFER_CACHE_DISABLE != 0)
  __HAL_FLASH_BUFFER_CACHE_DISABLE();
#endif /* BUFFER_CACHE_DISABLE */

#if (PREREAD_ENABLE != 0)
  __HAL_FLASH_PREREAD_BUFFER_ENABLE();
 8000804:	4b0b      	ldr	r3, [pc, #44]	; (8000834 <HAL_Init+0x3c>)
 8000806:	681a      	ldr	r2, [r3, #0]
 8000808:	4b0a      	ldr	r3, [pc, #40]	; (8000834 <HAL_Init+0x3c>)
 800080a:	2140      	movs	r1, #64	; 0x40
 800080c:	430a      	orrs	r2, r1
 800080e:	601a      	str	r2, [r3, #0]
#if (PREFETCH_ENABLE != 0)
  __HAL_FLASH_PREFETCH_BUFFER_ENABLE();
#endif /* PREFETCH_ENABLE */

  /* Use SysTick as time base source and configure 1ms tick (default clock after Reset is MSI) */
  if (HAL_InitTick(TICK_INT_PRIORITY) != HAL_OK)
 8000810:	2000      	movs	r0, #0
 8000812:	f000 f811 	bl	8000838 <HAL_InitTick>
 8000816:	1e03      	subs	r3, r0, #0
 8000818:	d003      	beq.n	8000822 <HAL_Init+0x2a>
  {
    status = HAL_ERROR;
 800081a:	1dfb      	adds	r3, r7, #7
 800081c:	2201      	movs	r2, #1
 800081e:	701a      	strb	r2, [r3, #0]
 8000820:	e001      	b.n	8000826 <HAL_Init+0x2e>
  }
  else
  {
    /* Init the low level hardware */
    HAL_MspInit();
 8000822:	f7ff ff3b 	bl	800069c <HAL_MspInit>
  }

  /* Return function status */
  return status;
 8000826:	1dfb      	adds	r3, r7, #7
 8000828:	781b      	ldrb	r3, [r3, #0]
}
 800082a:	0018      	movs	r0, r3
 800082c:	46bd      	mov	sp, r7
 800082e:	b002      	add	sp, #8
 8000830:	bd80      	pop	{r7, pc}
 8000832:	46c0      	nop			; (mov r8, r8)
 8000834:	40022000 	.word	0x40022000

08000838 <HAL_InitTick>:
  *       implementation  in user file.
  * @param TickPriority Tick interrupt priority.
  * @retval HAL status
  */
__weak HAL_StatusTypeDef HAL_InitTick(uint32_t TickPriority)
{
 8000838:	b580      	push	{r7, lr}
 800083a:	b084      	sub	sp, #16
 800083c:	af00      	add	r7, sp, #0
 800083e:	6078      	str	r0, [r7, #4]
  HAL_StatusTypeDef  status = HAL_OK;
 8000840:	230f      	movs	r3, #15
 8000842:	18fb      	adds	r3, r7, r3
 8000844:	2200      	movs	r2, #0
 8000846:	701a      	strb	r2, [r3, #0]

  /*Configure the SysTick to have interrupt in 1ms time basis*/
  if (HAL_SYSTICK_Config(SystemCoreClock/1000UL) != 0U)
 8000848:	4b0f      	ldr	r3, [pc, #60]	; (8000888 <HAL_InitTick+0x50>)
 800084a:	681a      	ldr	r2, [r3, #0]
 800084c:	23fa      	movs	r3, #250	; 0xfa
 800084e:	0099      	lsls	r1, r3, #2
 8000850:	0010      	movs	r0, r2
 8000852:	f7ff fc59 	bl	8000108 <__udivsi3>
 8000856:	0003      	movs	r3, r0
 8000858:	0018      	movs	r0, r3
 800085a:	f000 f8f2 	bl	8000a42 <HAL_SYSTICK_Config>
 800085e:	1e03      	subs	r3, r0, #0
 8000860:	d004      	beq.n	800086c <HAL_InitTick+0x34>
  {
    status = HAL_ERROR;
 8000862:	230f      	movs	r3, #15
 8000864:	18fb      	adds	r3, r7, r3
 8000866:	2201      	movs	r2, #1
 8000868:	701a      	strb	r2, [r3, #0]
 800086a:	e006      	b.n	800087a <HAL_InitTick+0x42>
  }
  else
  {
    /*Configure the SysTick IRQ priority */
    HAL_NVIC_SetPriority(SysTick_IRQn, TickPriority, 0);
 800086c:	6879      	ldr	r1, [r7, #4]
 800086e:	2301      	movs	r3, #1
 8000870:	425b      	negs	r3, r3
 8000872:	2200      	movs	r2, #0
 8000874:	0018      	movs	r0, r3
 8000876:	f000 f8cf 	bl	8000a18 <HAL_NVIC_SetPriority>
  }

  /* Return function status */
  return status;
 800087a:	230f      	movs	r3, #15
 800087c:	18fb      	adds	r3, r7, r3
 800087e:	781b      	ldrb	r3, [r3, #0]
}
 8000880:	0018      	movs	r0, r3
 8000882:	46bd      	mov	sp, r7
 8000884:	b004      	add	sp, #16
 8000886:	bd80      	pop	{r7, pc}
 8000888:	20000000 	.word	0x20000000

0800088c <HAL_IncTick>:
 * @note This function is declared as __weak to be overwritten in case of other
  *      implementations in user file.
  * @retval None
  */
__weak void HAL_IncTick(void)
{
 800088c:	b580      	push	{r7, lr}
 800088e:	af00      	add	r7, sp, #0
  uwTick++;
 8000890:	4b03      	ldr	r3, [pc, #12]	; (80008a0 <HAL_IncTick+0x14>)
 8000892:	681b      	ldr	r3, [r3, #0]
 8000894:	1c5a      	adds	r2, r3, #1
 8000896:	4b02      	ldr	r3, [pc, #8]	; (80008a0 <HAL_IncTick+0x14>)
 8000898:	601a      	str	r2, [r3, #0]
}
 800089a:	46c0      	nop			; (mov r8, r8)
 800089c:	46bd      	mov	sp, r7
 800089e:	bd80      	pop	{r7, pc}
 80008a0:	20000020 	.word	0x20000020

080008a4 <HAL_GetTick>:
  * @note This function is declared as __weak to be overwritten in case of other
  *       implementations in user file.
  * @retval tick value
  */
__weak uint32_t HAL_GetTick(void)
{
 80008a4:	b580      	push	{r7, lr}
 80008a6:	af00      	add	r7, sp, #0
  return uwTick;
 80008a8:	4b02      	ldr	r3, [pc, #8]	; (80008b4 <HAL_GetTick+0x10>)
 80008aa:	681b      	ldr	r3, [r3, #0]
}
 80008ac:	0018      	movs	r0, r3
 80008ae:	46bd      	mov	sp, r7
 80008b0:	bd80      	pop	{r7, pc}
 80008b2:	46c0      	nop			; (mov r8, r8)
 80008b4:	20000020 	.word	0x20000020

080008b8 <HAL_Delay>:
  *       implementations in user file.
  * @param Delay specifies the delay time length, in milliseconds.
  * @retval None
  */
__weak void HAL_Delay(uint32_t Delay)
{
 80008b8:	b580      	push	{r7, lr}
 80008ba:	b084      	sub	sp, #16
 80008bc:	af00      	add	r7, sp, #0
 80008be:	6078      	str	r0, [r7, #4]
  uint32_t tickstart = HAL_GetTick();
 80008c0:	f7ff fff0 	bl	80008a4 <HAL_GetTick>
 80008c4:	0003      	movs	r3, r0
 80008c6:	60bb      	str	r3, [r7, #8]
  uint32_t wait = Delay;
 80008c8:	687b      	ldr	r3, [r7, #4]
 80008ca:	60fb      	str	r3, [r7, #12]

  /* Add a period to guaranty minimum wait */
  if (wait < HAL_MAX_DELAY)
 80008cc:	68fb      	ldr	r3, [r7, #12]
 80008ce:	3301      	adds	r3, #1
 80008d0:	d002      	beq.n	80008d8 <HAL_Delay+0x20>
  {
    wait++;
 80008d2:	68fb      	ldr	r3, [r7, #12]
 80008d4:	3301      	adds	r3, #1
 80008d6:	60fb      	str	r3, [r7, #12]
  }

  while((HAL_GetTick() - tickstart) < wait)
 80008d8:	46c0      	nop			; (mov r8, r8)
 80008da:	f7ff ffe3 	bl	80008a4 <HAL_GetTick>
 80008de:	0002      	movs	r2, r0
 80008e0:	68bb      	ldr	r3, [r7, #8]
 80008e2:	1ad3      	subs	r3, r2, r3
 80008e4:	68fa      	ldr	r2, [r7, #12]
 80008e6:	429a      	cmp	r2, r3
 80008e8:	d8f7      	bhi.n	80008da <HAL_Delay+0x22>
  {
  }
}
 80008ea:	46c0      	nop			; (mov r8, r8)
 80008ec:	46bd      	mov	sp, r7
 80008ee:	b004      	add	sp, #16
 80008f0:	bd80      	pop	{r7, pc}
	...

080008f4 <NVIC_SetPriority>:
  \note    The priority cannot be set for every core interrupt.
  \param [in]      IRQn  Interrupt number.
  \param [in]  priority  Priority to set.
 */
__STATIC_INLINE void NVIC_SetPriority(IRQn_Type IRQn, uint32_t priority)
{
 80008f4:	b590      	push	{r4, r7, lr}
 80008f6:	b083      	sub	sp, #12
 80008f8:	af00      	add	r7, sp, #0
 80008fa:	0002      	movs	r2, r0
 80008fc:	6039      	str	r1, [r7, #0]
 80008fe:	1dfb      	adds	r3, r7, #7
 8000900:	701a      	strb	r2, [r3, #0]
  if ((int32_t)(IRQn) < 0)
 8000902:	1dfb      	adds	r3, r7, #7
 8000904:	781b      	ldrb	r3, [r3, #0]
 8000906:	2b7f      	cmp	r3, #127	; 0x7f
 8000908:	d932      	bls.n	8000970 <NVIC_SetPriority+0x7c>
  {
    SCB->SHP[_SHP_IDX(IRQn)] = ((uint32_t)(SCB->SHP[_SHP_IDX(IRQn)] & ~(0xFFUL << _BIT_SHIFT(IRQn))) |
 800090a:	4a2f      	ldr	r2, [pc, #188]	; (80009c8 <NVIC_SetPriority+0xd4>)
 800090c:	1dfb      	adds	r3, r7, #7
 800090e:	781b      	ldrb	r3, [r3, #0]
 8000910:	0019      	movs	r1, r3
 8000912:	230f      	movs	r3, #15
 8000914:	400b      	ands	r3, r1
 8000916:	3b08      	subs	r3, #8
 8000918:	089b      	lsrs	r3, r3, #2
 800091a:	3306      	adds	r3, #6
 800091c:	009b      	lsls	r3, r3, #2
 800091e:	18d3      	adds	r3, r2, r3
 8000920:	3304      	adds	r3, #4
 8000922:	681b      	ldr	r3, [r3, #0]
 8000924:	1dfa      	adds	r2, r7, #7
 8000926:	7812      	ldrb	r2, [r2, #0]
 8000928:	0011      	movs	r1, r2
 800092a:	2203      	movs	r2, #3
 800092c:	400a      	ands	r2, r1
 800092e:	00d2      	lsls	r2, r2, #3
 8000930:	21ff      	movs	r1, #255	; 0xff
 8000932:	4091      	lsls	r1, r2
 8000934:	000a      	movs	r2, r1
 8000936:	43d2      	mvns	r2, r2
 8000938:	401a      	ands	r2, r3
 800093a:	0011      	movs	r1, r2
       (((priority << (8U - __NVIC_PRIO_BITS)) & (uint32_t)0xFFUL) << _BIT_SHIFT(IRQn)));
 800093c:	683b      	ldr	r3, [r7, #0]
 800093e:	019b      	lsls	r3, r3, #6
 8000940:	22ff      	movs	r2, #255	; 0xff
 8000942:	401a      	ands	r2, r3
 8000944:	1dfb      	adds	r3, r7, #7
 8000946:	781b      	ldrb	r3, [r3, #0]
 8000948:	0018      	movs	r0, r3
 800094a:	2303      	movs	r3, #3
 800094c:	4003      	ands	r3, r0
 800094e:	00db      	lsls	r3, r3, #3
 8000950:	409a      	lsls	r2, r3
    SCB->SHP[_SHP_IDX(IRQn)] = ((uint32_t)(SCB->SHP[_SHP_IDX(IRQn)] & ~(0xFFUL << _BIT_SHIFT(IRQn))) |
 8000952:	481d      	ldr	r0, [pc, #116]	; (80009c8 <NVIC_SetPriority+0xd4>)
 8000954:	1dfb      	adds	r3, r7, #7
 8000956:	781b      	ldrb	r3, [r3, #0]
 8000958:	001c      	movs	r4, r3
 800095a:	230f      	movs	r3, #15
 800095c:	4023      	ands	r3, r4
 800095e:	3b08      	subs	r3, #8
 8000960:	089b      	lsrs	r3, r3, #2
 8000962:	430a      	orrs	r2, r1
 8000964:	3306      	adds	r3, #6
 8000966:	009b      	lsls	r3, r3, #2
 8000968:	18c3      	adds	r3, r0, r3
 800096a:	3304      	adds	r3, #4
 800096c:	601a      	str	r2, [r3, #0]
  else
  {
    NVIC->IP[_IP_IDX(IRQn)]  = ((uint32_t)(NVIC->IP[_IP_IDX(IRQn)]  & ~(0xFFUL << _BIT_SHIFT(IRQn))) |
       (((priority << (8U - __NVIC_PRIO_BITS)) & (uint32_t)0xFFUL) << _BIT_SHIFT(IRQn)));
  }
}
 800096e:	e027      	b.n	80009c0 <NVIC_SetPriority+0xcc>
    NVIC->IP[_IP_IDX(IRQn)]  = ((uint32_t)(NVIC->IP[_IP_IDX(IRQn)]  & ~(0xFFUL << _BIT_SHIFT(IRQn))) |
 8000970:	4a16      	ldr	r2, [pc, #88]	; (80009cc <NVIC_SetPriority+0xd8>)
 8000972:	1dfb      	adds	r3, r7, #7
 8000974:	781b      	ldrb	r3, [r3, #0]
 8000976:	b25b      	sxtb	r3, r3
 8000978:	089b      	lsrs	r3, r3, #2
 800097a:	33c0      	adds	r3, #192	; 0xc0
 800097c:	009b      	lsls	r3, r3, #2
 800097e:	589b      	ldr	r3, [r3, r2]
 8000980:	1dfa      	adds	r2, r7, #7
 8000982:	7812      	ldrb	r2, [r2, #0]
 8000984:	0011      	movs	r1, r2
 8000986:	2203      	movs	r2, #3
 8000988:	400a      	ands	r2, r1
 800098a:	00d2      	lsls	r2, r2, #3
 800098c:	21ff      	movs	r1, #255	; 0xff
 800098e:	4091      	lsls	r1, r2
 8000990:	000a      	movs	r2, r1
 8000992:	43d2      	mvns	r2, r2
 8000994:	401a      	ands	r2, r3
 8000996:	0011      	movs	r1, r2
       (((priority << (8U - __NVIC_PRIO_BITS)) & (uint32_t)0xFFUL) << _BIT_SHIFT(IRQn)));
 8000998:	683b      	ldr	r3, [r7, #0]
 800099a:	019b      	lsls	r3, r3, #6
 800099c:	22ff      	movs	r2, #255	; 0xff
 800099e:	401a      	ands	r2, r3
 80009a0:	1dfb      	adds	r3, r7, #7
 80009a2:	781b      	ldrb	r3, [r3, #0]
 80009a4:	0018      	movs	r0, r3
 80009a6:	2303      	movs	r3, #3
 80009a8:	4003      	ands	r3, r0
 80009aa:	00db      	lsls	r3, r3, #3
 80009ac:	409a      	lsls	r2, r3
    NVIC->IP[_IP_IDX(IRQn)]  = ((uint32_t)(NVIC->IP[_IP_IDX(IRQn)]  & ~(0xFFUL << _BIT_SHIFT(IRQn))) |
 80009ae:	4807      	ldr	r0, [pc, #28]	; (80009cc <NVIC_SetPriority+0xd8>)
 80009b0:	1dfb      	adds	r3, r7, #7
 80009b2:	781b      	ldrb	r3, [r3, #0]
 80009b4:	b25b      	sxtb	r3, r3
 80009b6:	089b      	lsrs	r3, r3, #2
 80009b8:	430a      	orrs	r2, r1
 80009ba:	33c0      	adds	r3, #192	; 0xc0
 80009bc:	009b      	lsls	r3, r3, #2
 80009be:	501a      	str	r2, [r3, r0]
}
 80009c0:	46c0      	nop			; (mov r8, r8)
 80009c2:	46bd      	mov	sp, r7
 80009c4:	b003      	add	sp, #12
 80009c6:	bd90      	pop	{r4, r7, pc}
 80009c8:	e000ed00 	.word	0xe000ed00
 80009cc:	e000e100 	.word	0xe000e100

080009d0 <SysTick_Config>:
  \note    When the variable <b>__Vendor_SysTickConfig</b> is set to 1, then the
           function <b>SysTick_Config</b> is not included. In this case, the file <b><i>device</i>.h</b>
           must contain a vendor-specific implementation of this function.
 */
__STATIC_INLINE uint32_t SysTick_Config(uint32_t ticks)
{
 80009d0:	b580      	push	{r7, lr}
 80009d2:	b082      	sub	sp, #8
 80009d4:	af00      	add	r7, sp, #0
 80009d6:	6078      	str	r0, [r7, #4]
  if ((ticks - 1UL) > SysTick_LOAD_RELOAD_Msk)
 80009d8:	687b      	ldr	r3, [r7, #4]
 80009da:	3b01      	subs	r3, #1
 80009dc:	4a0c      	ldr	r2, [pc, #48]	; (8000a10 <SysTick_Config+0x40>)
 80009de:	4293      	cmp	r3, r2
 80009e0:	d901      	bls.n	80009e6 <SysTick_Config+0x16>
  {
    return (1UL);                                                   /* Reload value impossible */
 80009e2:	2301      	movs	r3, #1
 80009e4:	e010      	b.n	8000a08 <SysTick_Config+0x38>
  }

  SysTick->LOAD  = (uint32_t)(ticks - 1UL);                         /* set reload register */
 80009e6:	4b0b      	ldr	r3, [pc, #44]	; (8000a14 <SysTick_Config+0x44>)
 80009e8:	687a      	ldr	r2, [r7, #4]
 80009ea:	3a01      	subs	r2, #1
 80009ec:	605a      	str	r2, [r3, #4]
  NVIC_SetPriority (SysTick_IRQn, (1UL << __NVIC_PRIO_BITS) - 1UL); /* set Priority for Systick Interrupt */
 80009ee:	2301      	movs	r3, #1
 80009f0:	425b      	negs	r3, r3
 80009f2:	2103      	movs	r1, #3
 80009f4:	0018      	movs	r0, r3
 80009f6:	f7ff ff7d 	bl	80008f4 <NVIC_SetPriority>
  SysTick->VAL   = 0UL;                                             /* Load the SysTick Counter Value */
 80009fa:	4b06      	ldr	r3, [pc, #24]	; (8000a14 <SysTick_Config+0x44>)
 80009fc:	2200      	movs	r2, #0
 80009fe:	609a      	str	r2, [r3, #8]
  SysTick->CTRL  = SysTick_CTRL_CLKSOURCE_Msk |
 8000a00:	4b04      	ldr	r3, [pc, #16]	; (8000a14 <SysTick_Config+0x44>)
 8000a02:	2207      	movs	r2, #7
 8000a04:	601a      	str	r2, [r3, #0]
                   SysTick_CTRL_TICKINT_Msk   |
                   SysTick_CTRL_ENABLE_Msk;                         /* Enable SysTick IRQ and SysTick Timer */
  return (0UL);                                                     /* Function successful */
 8000a06:	2300      	movs	r3, #0
}
 8000a08:	0018      	movs	r0, r3
 8000a0a:	46bd      	mov	sp, r7
 8000a0c:	b002      	add	sp, #8
 8000a0e:	bd80      	pop	{r7, pc}
 8000a10:	00ffffff 	.word	0x00ffffff
 8000a14:	e000e010 	.word	0xe000e010

08000a18 <HAL_NVIC_SetPriority>:
  *         with stm32l0xx devices, this parameter is a dummy value and it is ignored, because 
  *         no subpriority supported in Cortex M0+ based products.   
  * @retval None
  */
void HAL_NVIC_SetPriority(IRQn_Type IRQn, uint32_t PreemptPriority, uint32_t SubPriority)
{ 
 8000a18:	b580      	push	{r7, lr}
 8000a1a:	b084      	sub	sp, #16
 8000a1c:	af00      	add	r7, sp, #0
 8000a1e:	60b9      	str	r1, [r7, #8]
 8000a20:	607a      	str	r2, [r7, #4]
 8000a22:	210f      	movs	r1, #15
 8000a24:	187b      	adds	r3, r7, r1
 8000a26:	1c02      	adds	r2, r0, #0
 8000a28:	701a      	strb	r2, [r3, #0]
    /* Check the parameters */
  assert_param(IS_NVIC_PREEMPTION_PRIORITY(PreemptPriority));
  NVIC_SetPriority(IRQn,PreemptPriority);
 8000a2a:	68ba      	ldr	r2, [r7, #8]
 8000a2c:	187b      	adds	r3, r7, r1
 8000a2e:	781b      	ldrb	r3, [r3, #0]
 8000a30:	b25b      	sxtb	r3, r3
 8000a32:	0011      	movs	r1, r2
 8000a34:	0018      	movs	r0, r3
 8000a36:	f7ff ff5d 	bl	80008f4 <NVIC_SetPriority>
}
 8000a3a:	46c0      	nop			; (mov r8, r8)
 8000a3c:	46bd      	mov	sp, r7
 8000a3e:	b004      	add	sp, #16
 8000a40:	bd80      	pop	{r7, pc}

08000a42 <HAL_SYSTICK_Config>:
  * @param  TicksNumb Specifies the ticks Number of ticks between two interrupts.
  * @retval status:  - 0  Function succeeded.
  *                  - 1  Function failed.
  */
uint32_t HAL_SYSTICK_Config(uint32_t TicksNumb)
{
 8000a42:	b580      	push	{r7, lr}
 8000a44:	b082      	sub	sp, #8
 8000a46:	af00      	add	r7, sp, #0
 8000a48:	6078      	str	r0, [r7, #4]
   return SysTick_Config(TicksNumb);
 8000a4a:	687b      	ldr	r3, [r7, #4]
 8000a4c:	0018      	movs	r0, r3
 8000a4e:	f7ff ffbf 	bl	80009d0 <SysTick_Config>
 8000a52:	0003      	movs	r3, r0
}
 8000a54:	0018      	movs	r0, r3
 8000a56:	46bd      	mov	sp, r7
 8000a58:	b002      	add	sp, #8
 8000a5a:	bd80      	pop	{r7, pc}

08000a5c <HAL_GPIO_Init>:
  * @param  GPIO_Init pointer to a GPIO_InitTypeDef structure that contains
  *                    the configuration information for the specified GPIO peripheral.
  * @retval None
  */
void HAL_GPIO_Init(GPIO_TypeDef  *GPIOx, GPIO_InitTypeDef *GPIO_Init)
{
 8000a5c:	b580      	push	{r7, lr}
 8000a5e:	b086      	sub	sp, #24
 8000a60:	af00      	add	r7, sp, #0
 8000a62:	6078      	str	r0, [r7, #4]
 8000a64:	6039      	str	r1, [r7, #0]
  uint32_t position = 0x00U;
 8000a66:	2300      	movs	r3, #0
 8000a68:	617b      	str	r3, [r7, #20]
  uint32_t iocurrent = 0x00U;
 8000a6a:	2300      	movs	r3, #0
 8000a6c:	60fb      	str	r3, [r7, #12]
  uint32_t temp = 0x00U;
 8000a6e:	2300      	movs	r3, #0
 8000a70:	613b      	str	r3, [r7, #16]
  assert_param(IS_GPIO_MODE(GPIO_Init->Mode));
  assert_param(IS_GPIO_PULL(GPIO_Init->Pull));
  assert_param(IS_GPIO_PIN_AVAILABLE(GPIOx,(GPIO_Init->Pin)));

  /* Configure the port pins */
  while (((GPIO_Init->Pin) >> position) != 0)
 8000a72:	e143      	b.n	8000cfc <HAL_GPIO_Init+0x2a0>
  {
    /* Get the IO position */
    iocurrent = (GPIO_Init->Pin) & (1U << position);
 8000a74:	683b      	ldr	r3, [r7, #0]
 8000a76:	681b      	ldr	r3, [r3, #0]
 8000a78:	2101      	movs	r1, #1
 8000a7a:	697a      	ldr	r2, [r7, #20]
 8000a7c:	4091      	lsls	r1, r2
 8000a7e:	000a      	movs	r2, r1
 8000a80:	4013      	ands	r3, r2
 8000a82:	60fb      	str	r3, [r7, #12]
    
    if(iocurrent)
 8000a84:	68fb      	ldr	r3, [r7, #12]
 8000a86:	2b00      	cmp	r3, #0
 8000a88:	d100      	bne.n	8000a8c <HAL_GPIO_Init+0x30>
 8000a8a:	e134      	b.n	8000cf6 <HAL_GPIO_Init+0x29a>
    {
      /*--------------------- GPIO Mode Configuration ------------------------*/
      /* In case of Alternate function mode selection */
      if((GPIO_Init->Mode == GPIO_MODE_AF_PP) || (GPIO_Init->Mode == GPIO_MODE_AF_OD)) 
 8000a8c:	683b      	ldr	r3, [r7, #0]
 8000a8e:	685b      	ldr	r3, [r3, #4]
 8000a90:	2b02      	cmp	r3, #2
 8000a92:	d003      	beq.n	8000a9c <HAL_GPIO_Init+0x40>
 8000a94:	683b      	ldr	r3, [r7, #0]
 8000a96:	685b      	ldr	r3, [r3, #4]
 8000a98:	2b12      	cmp	r3, #18
 8000a9a:	d123      	bne.n	8000ae4 <HAL_GPIO_Init+0x88>
        /* Check the Alternate function parameters */
        assert_param(IS_GPIO_AF_INSTANCE(GPIOx));
        assert_param(IS_GPIO_AF(GPIO_Init->Alternate));

        /* Configure Alternate function mapped with the current IO */ 
        temp = GPIOx->AFR[position >> 3U];
 8000a9c:	697b      	ldr	r3, [r7, #20]
 8000a9e:	08da      	lsrs	r2, r3, #3
 8000aa0:	687b      	ldr	r3, [r7, #4]
 8000aa2:	3208      	adds	r2, #8
 8000aa4:	0092      	lsls	r2, r2, #2
 8000aa6:	58d3      	ldr	r3, [r2, r3]
 8000aa8:	613b      	str	r3, [r7, #16]
        temp &= ~((uint32_t)0xFU << ((uint32_t)(position & (uint32_t)0x07U) * 4U)) ;
 8000aaa:	697b      	ldr	r3, [r7, #20]
 8000aac:	2207      	movs	r2, #7
 8000aae:	4013      	ands	r3, r2
 8000ab0:	009b      	lsls	r3, r3, #2
 8000ab2:	220f      	movs	r2, #15
 8000ab4:	409a      	lsls	r2, r3
 8000ab6:	0013      	movs	r3, r2
 8000ab8:	43da      	mvns	r2, r3
 8000aba:	693b      	ldr	r3, [r7, #16]
 8000abc:	4013      	ands	r3, r2
 8000abe:	613b      	str	r3, [r7, #16]
        temp |= ((uint32_t)(GPIO_Init->Alternate) << (((uint32_t)position & (uint32_t)0x07U) * 4U)) ;
 8000ac0:	683b      	ldr	r3, [r7, #0]
 8000ac2:	691a      	ldr	r2, [r3, #16]
 8000ac4:	697b      	ldr	r3, [r7, #20]
 8000ac6:	2107      	movs	r1, #7
 8000ac8:	400b      	ands	r3, r1
 8000aca:	009b      	lsls	r3, r3, #2
 8000acc:	409a      	lsls	r2, r3
 8000ace:	0013      	movs	r3, r2
 8000ad0:	693a      	ldr	r2, [r7, #16]
 8000ad2:	4313      	orrs	r3, r2
 8000ad4:	613b      	str	r3, [r7, #16]
        GPIOx->AFR[position >> 3U] = temp;
 8000ad6:	697b      	ldr	r3, [r7, #20]
 8000ad8:	08da      	lsrs	r2, r3, #3
 8000ada:	687b      	ldr	r3, [r7, #4]
 8000adc:	3208      	adds	r2, #8
 8000ade:	0092      	lsls	r2, r2, #2
 8000ae0:	6939      	ldr	r1, [r7, #16]
 8000ae2:	50d1      	str	r1, [r2, r3]
      } 

      /* In case of Output or Alternate function mode selection */
      if((GPIO_Init->Mode == GPIO_MODE_OUTPUT_PP) || (GPIO_Init->Mode == GPIO_MODE_AF_PP) ||
 8000ae4:	683b      	ldr	r3, [r7, #0]
 8000ae6:	685b      	ldr	r3, [r3, #4]
 8000ae8:	2b01      	cmp	r3, #1
 8000aea:	d00b      	beq.n	8000b04 <HAL_GPIO_Init+0xa8>
 8000aec:	683b      	ldr	r3, [r7, #0]
 8000aee:	685b      	ldr	r3, [r3, #4]
 8000af0:	2b02      	cmp	r3, #2
 8000af2:	d007      	beq.n	8000b04 <HAL_GPIO_Init+0xa8>
         (GPIO_Init->Mode == GPIO_MODE_OUTPUT_OD) || (GPIO_Init->Mode == GPIO_MODE_AF_OD))
 8000af4:	683b      	ldr	r3, [r7, #0]
 8000af6:	685b      	ldr	r3, [r3, #4]
      if((GPIO_Init->Mode == GPIO_MODE_OUTPUT_PP) || (GPIO_Init->Mode == GPIO_MODE_AF_PP) ||
 8000af8:	2b11      	cmp	r3, #17
 8000afa:	d003      	beq.n	8000b04 <HAL_GPIO_Init+0xa8>
         (GPIO_Init->Mode == GPIO_MODE_OUTPUT_OD) || (GPIO_Init->Mode == GPIO_MODE_AF_OD))
 8000afc:	683b      	ldr	r3, [r7, #0]
 8000afe:	685b      	ldr	r3, [r3, #4]
 8000b00:	2b12      	cmp	r3, #18
 8000b02:	d130      	bne.n	8000b66 <HAL_GPIO_Init+0x10a>
      {
        /* Check the Speed parameter */
        assert_param(IS_GPIO_SPEED(GPIO_Init->Speed));
        /* Configure the IO Speed */
        temp = GPIOx->OSPEEDR;
 8000b04:	687b      	ldr	r3, [r7, #4]
 8000b06:	689b      	ldr	r3, [r3, #8]
 8000b08:	613b      	str	r3, [r7, #16]
        temp &= ~(GPIO_OSPEEDER_OSPEED0 << (position * 2U));
 8000b0a:	697b      	ldr	r3, [r7, #20]
 8000b0c:	005b      	lsls	r3, r3, #1
 8000b0e:	2203      	movs	r2, #3
 8000b10:	409a      	lsls	r2, r3
 8000b12:	0013      	movs	r3, r2
 8000b14:	43da      	mvns	r2, r3
 8000b16:	693b      	ldr	r3, [r7, #16]
 8000b18:	4013      	ands	r3, r2
 8000b1a:	613b      	str	r3, [r7, #16]
        temp |= (GPIO_Init->Speed << (position * 2U));
 8000b1c:	683b      	ldr	r3, [r7, #0]
 8000b1e:	68da      	ldr	r2, [r3, #12]
 8000b20:	697b      	ldr	r3, [r7, #20]
 8000b22:	005b      	lsls	r3, r3, #1
 8000b24:	409a      	lsls	r2, r3
 8000b26:	0013      	movs	r3, r2
 8000b28:	693a      	ldr	r2, [r7, #16]
 8000b2a:	4313      	orrs	r3, r2
 8000b2c:	613b      	str	r3, [r7, #16]
        GPIOx->OSPEEDR = temp;
 8000b2e:	687b      	ldr	r3, [r7, #4]
 8000b30:	693a      	ldr	r2, [r7, #16]
 8000b32:	609a      	str	r2, [r3, #8]

        /* Configure the IO Output Type */
        temp= GPIOx->OTYPER;
 8000b34:	687b      	ldr	r3, [r7, #4]
 8000b36:	685b      	ldr	r3, [r3, #4]
 8000b38:	613b      	str	r3, [r7, #16]
        temp &= ~(GPIO_OTYPER_OT_0 << position) ;
 8000b3a:	2201      	movs	r2, #1
 8000b3c:	697b      	ldr	r3, [r7, #20]
 8000b3e:	409a      	lsls	r2, r3
 8000b40:	0013      	movs	r3, r2
 8000b42:	43da      	mvns	r2, r3
 8000b44:	693b      	ldr	r3, [r7, #16]
 8000b46:	4013      	ands	r3, r2
 8000b48:	613b      	str	r3, [r7, #16]
        temp |= (((GPIO_Init->Mode & GPIO_OUTPUT_TYPE) >> 4U) << position);
 8000b4a:	683b      	ldr	r3, [r7, #0]
 8000b4c:	685b      	ldr	r3, [r3, #4]
 8000b4e:	091b      	lsrs	r3, r3, #4
 8000b50:	2201      	movs	r2, #1
 8000b52:	401a      	ands	r2, r3
 8000b54:	697b      	ldr	r3, [r7, #20]
 8000b56:	409a      	lsls	r2, r3
 8000b58:	0013      	movs	r3, r2
 8000b5a:	693a      	ldr	r2, [r7, #16]
 8000b5c:	4313      	orrs	r3, r2
 8000b5e:	613b      	str	r3, [r7, #16]
        GPIOx->OTYPER = temp;
 8000b60:	687b      	ldr	r3, [r7, #4]
 8000b62:	693a      	ldr	r2, [r7, #16]
 8000b64:	605a      	str	r2, [r3, #4]
      }

      /* Configure IO Direction mode (Input, Output, Alternate or Analog) */
      temp = GPIOx->MODER;
 8000b66:	687b      	ldr	r3, [r7, #4]
 8000b68:	681b      	ldr	r3, [r3, #0]
 8000b6a:	613b      	str	r3, [r7, #16]
      temp &= ~(GPIO_MODER_MODE0 << (position * 2U));
 8000b6c:	697b      	ldr	r3, [r7, #20]
 8000b6e:	005b      	lsls	r3, r3, #1
 8000b70:	2203      	movs	r2, #3
 8000b72:	409a      	lsls	r2, r3
 8000b74:	0013      	movs	r3, r2
 8000b76:	43da      	mvns	r2, r3
 8000b78:	693b      	ldr	r3, [r7, #16]
 8000b7a:	4013      	ands	r3, r2
 8000b7c:	613b      	str	r3, [r7, #16]
      temp |= ((GPIO_Init->Mode & GPIO_MODE) << (position * 2U));
 8000b7e:	683b      	ldr	r3, [r7, #0]
 8000b80:	685b      	ldr	r3, [r3, #4]
 8000b82:	2203      	movs	r2, #3
 8000b84:	401a      	ands	r2, r3
 8000b86:	697b      	ldr	r3, [r7, #20]
 8000b88:	005b      	lsls	r3, r3, #1
 8000b8a:	409a      	lsls	r2, r3
 8000b8c:	0013      	movs	r3, r2
 8000b8e:	693a      	ldr	r2, [r7, #16]
 8000b90:	4313      	orrs	r3, r2
 8000b92:	613b      	str	r3, [r7, #16]
      GPIOx->MODER = temp;
 8000b94:	687b      	ldr	r3, [r7, #4]
 8000b96:	693a      	ldr	r2, [r7, #16]
 8000b98:	601a      	str	r2, [r3, #0]

      /* Activate the Pull-up or Pull down resistor for the current IO */
      temp = GPIOx->PUPDR;
 8000b9a:	687b      	ldr	r3, [r7, #4]
 8000b9c:	68db      	ldr	r3, [r3, #12]
 8000b9e:	613b      	str	r3, [r7, #16]
      temp &= ~(GPIO_PUPDR_PUPD0 << (position * 2U));
 8000ba0:	697b      	ldr	r3, [r7, #20]
 8000ba2:	005b      	lsls	r3, r3, #1
 8000ba4:	2203      	movs	r2, #3
 8000ba6:	409a      	lsls	r2, r3
 8000ba8:	0013      	movs	r3, r2
 8000baa:	43da      	mvns	r2, r3
 8000bac:	693b      	ldr	r3, [r7, #16]
 8000bae:	4013      	ands	r3, r2
 8000bb0:	613b      	str	r3, [r7, #16]
      temp |= ((GPIO_Init->Pull) << (position * 2U)); 
 8000bb2:	683b      	ldr	r3, [r7, #0]
 8000bb4:	689a      	ldr	r2, [r3, #8]
 8000bb6:	697b      	ldr	r3, [r7, #20]
 8000bb8:	005b      	lsls	r3, r3, #1
 8000bba:	409a      	lsls	r2, r3
 8000bbc:	0013      	movs	r3, r2
 8000bbe:	693a      	ldr	r2, [r7, #16]
 8000bc0:	4313      	orrs	r3, r2
 8000bc2:	613b      	str	r3, [r7, #16]
      GPIOx->PUPDR = temp;
 8000bc4:	687b      	ldr	r3, [r7, #4]
 8000bc6:	693a      	ldr	r2, [r7, #16]
 8000bc8:	60da      	str	r2, [r3, #12]

      /*--------------------- EXTI Mode Configuration ------------------------*/
      /* Configure the External Interrupt or event for the current IO */
      if((GPIO_Init->Mode & EXTI_MODE) == EXTI_MODE) 
 8000bca:	683b      	ldr	r3, [r7, #0]
 8000bcc:	685a      	ldr	r2, [r3, #4]
 8000bce:	2380      	movs	r3, #128	; 0x80
 8000bd0:	055b      	lsls	r3, r3, #21
 8000bd2:	4013      	ands	r3, r2
 8000bd4:	d100      	bne.n	8000bd8 <HAL_GPIO_Init+0x17c>
 8000bd6:	e08e      	b.n	8000cf6 <HAL_GPIO_Init+0x29a>
      {
        /* Enable SYSCFG Clock */
        __HAL_RCC_SYSCFG_CLK_ENABLE();
 8000bd8:	4b4e      	ldr	r3, [pc, #312]	; (8000d14 <HAL_GPIO_Init+0x2b8>)
 8000bda:	6b5a      	ldr	r2, [r3, #52]	; 0x34
 8000bdc:	4b4d      	ldr	r3, [pc, #308]	; (8000d14 <HAL_GPIO_Init+0x2b8>)
 8000bde:	2101      	movs	r1, #1
 8000be0:	430a      	orrs	r2, r1
 8000be2:	635a      	str	r2, [r3, #52]	; 0x34
        
        temp = SYSCFG->EXTICR[position >> 2U];
 8000be4:	4a4c      	ldr	r2, [pc, #304]	; (8000d18 <HAL_GPIO_Init+0x2bc>)
 8000be6:	697b      	ldr	r3, [r7, #20]
 8000be8:	089b      	lsrs	r3, r3, #2
 8000bea:	3302      	adds	r3, #2
 8000bec:	009b      	lsls	r3, r3, #2
 8000bee:	589b      	ldr	r3, [r3, r2]
 8000bf0:	613b      	str	r3, [r7, #16]
        CLEAR_BIT(temp, ((uint32_t)0x0FU) << (4U * (position & 0x03U)));
 8000bf2:	697b      	ldr	r3, [r7, #20]
 8000bf4:	2203      	movs	r2, #3
 8000bf6:	4013      	ands	r3, r2
 8000bf8:	009b      	lsls	r3, r3, #2
 8000bfa:	220f      	movs	r2, #15
 8000bfc:	409a      	lsls	r2, r3
 8000bfe:	0013      	movs	r3, r2
 8000c00:	43da      	mvns	r2, r3
 8000c02:	693b      	ldr	r3, [r7, #16]
 8000c04:	4013      	ands	r3, r2
 8000c06:	613b      	str	r3, [r7, #16]
        SET_BIT(temp, (GPIO_GET_INDEX(GPIOx)) << (4 * (position & 0x03U)));
 8000c08:	687a      	ldr	r2, [r7, #4]
 8000c0a:	23a0      	movs	r3, #160	; 0xa0
 8000c0c:	05db      	lsls	r3, r3, #23
 8000c0e:	429a      	cmp	r2, r3
 8000c10:	d00d      	beq.n	8000c2e <HAL_GPIO_Init+0x1d2>
 8000c12:	687b      	ldr	r3, [r7, #4]
 8000c14:	4a41      	ldr	r2, [pc, #260]	; (8000d1c <HAL_GPIO_Init+0x2c0>)
 8000c16:	4293      	cmp	r3, r2
 8000c18:	d007      	beq.n	8000c2a <HAL_GPIO_Init+0x1ce>
 8000c1a:	687b      	ldr	r3, [r7, #4]
 8000c1c:	4a40      	ldr	r2, [pc, #256]	; (8000d20 <HAL_GPIO_Init+0x2c4>)
 8000c1e:	4293      	cmp	r3, r2
 8000c20:	d101      	bne.n	8000c26 <HAL_GPIO_Init+0x1ca>
 8000c22:	2302      	movs	r3, #2
 8000c24:	e004      	b.n	8000c30 <HAL_GPIO_Init+0x1d4>
 8000c26:	2306      	movs	r3, #6
 8000c28:	e002      	b.n	8000c30 <HAL_GPIO_Init+0x1d4>
 8000c2a:	2301      	movs	r3, #1
 8000c2c:	e000      	b.n	8000c30 <HAL_GPIO_Init+0x1d4>
 8000c2e:	2300      	movs	r3, #0
 8000c30:	697a      	ldr	r2, [r7, #20]
 8000c32:	2103      	movs	r1, #3
 8000c34:	400a      	ands	r2, r1
 8000c36:	0092      	lsls	r2, r2, #2
 8000c38:	4093      	lsls	r3, r2
 8000c3a:	693a      	ldr	r2, [r7, #16]
 8000c3c:	4313      	orrs	r3, r2
 8000c3e:	613b      	str	r3, [r7, #16]
        SYSCFG->EXTICR[position >> 2U] = temp;
 8000c40:	4935      	ldr	r1, [pc, #212]	; (8000d18 <HAL_GPIO_Init+0x2bc>)
 8000c42:	697b      	ldr	r3, [r7, #20]
 8000c44:	089b      	lsrs	r3, r3, #2
 8000c46:	3302      	adds	r3, #2
 8000c48:	009b      	lsls	r3, r3, #2
 8000c4a:	693a      	ldr	r2, [r7, #16]
 8000c4c:	505a      	str	r2, [r3, r1]
                  
        /* Clear EXTI line configuration */
        temp = EXTI->IMR;
 8000c4e:	4b35      	ldr	r3, [pc, #212]	; (8000d24 <HAL_GPIO_Init+0x2c8>)
 8000c50:	681b      	ldr	r3, [r3, #0]
 8000c52:	613b      	str	r3, [r7, #16]
        temp &= ~((uint32_t)iocurrent);
 8000c54:	68fb      	ldr	r3, [r7, #12]
 8000c56:	43da      	mvns	r2, r3
 8000c58:	693b      	ldr	r3, [r7, #16]
 8000c5a:	4013      	ands	r3, r2
 8000c5c:	613b      	str	r3, [r7, #16]
        if((GPIO_Init->Mode & GPIO_MODE_IT) == GPIO_MODE_IT)
 8000c5e:	683b      	ldr	r3, [r7, #0]
 8000c60:	685a      	ldr	r2, [r3, #4]
 8000c62:	2380      	movs	r3, #128	; 0x80
 8000c64:	025b      	lsls	r3, r3, #9
 8000c66:	4013      	ands	r3, r2
 8000c68:	d003      	beq.n	8000c72 <HAL_GPIO_Init+0x216>
        {
          temp |= iocurrent;
 8000c6a:	693a      	ldr	r2, [r7, #16]
 8000c6c:	68fb      	ldr	r3, [r7, #12]
 8000c6e:	4313      	orrs	r3, r2
 8000c70:	613b      	str	r3, [r7, #16]
        }
        EXTI->IMR = temp;
 8000c72:	4b2c      	ldr	r3, [pc, #176]	; (8000d24 <HAL_GPIO_Init+0x2c8>)
 8000c74:	693a      	ldr	r2, [r7, #16]
 8000c76:	601a      	str	r2, [r3, #0]

        temp = EXTI->EMR;
 8000c78:	4b2a      	ldr	r3, [pc, #168]	; (8000d24 <HAL_GPIO_Init+0x2c8>)
 8000c7a:	685b      	ldr	r3, [r3, #4]
 8000c7c:	613b      	str	r3, [r7, #16]
        temp &= ~((uint32_t)iocurrent);
 8000c7e:	68fb      	ldr	r3, [r7, #12]
 8000c80:	43da      	mvns	r2, r3
 8000c82:	693b      	ldr	r3, [r7, #16]
 8000c84:	4013      	ands	r3, r2
 8000c86:	613b      	str	r3, [r7, #16]
        if((GPIO_Init->Mode & GPIO_MODE_EVT) == GPIO_MODE_EVT)
 8000c88:	683b      	ldr	r3, [r7, #0]
 8000c8a:	685a      	ldr	r2, [r3, #4]
 8000c8c:	2380      	movs	r3, #128	; 0x80
 8000c8e:	029b      	lsls	r3, r3, #10
 8000c90:	4013      	ands	r3, r2
 8000c92:	d003      	beq.n	8000c9c <HAL_GPIO_Init+0x240>
        {
          temp |= iocurrent;
 8000c94:	693a      	ldr	r2, [r7, #16]
 8000c96:	68fb      	ldr	r3, [r7, #12]
 8000c98:	4313      	orrs	r3, r2
 8000c9a:	613b      	str	r3, [r7, #16]
        }
        EXTI->EMR = temp;
 8000c9c:	4b21      	ldr	r3, [pc, #132]	; (8000d24 <HAL_GPIO_Init+0x2c8>)
 8000c9e:	693a      	ldr	r2, [r7, #16]
 8000ca0:	605a      	str	r2, [r3, #4]

        /* Clear Rising Falling edge configuration */
        temp = EXTI->RTSR;
 8000ca2:	4b20      	ldr	r3, [pc, #128]	; (8000d24 <HAL_GPIO_Init+0x2c8>)
 8000ca4:	689b      	ldr	r3, [r3, #8]
 8000ca6:	613b      	str	r3, [r7, #16]
        temp &= ~((uint32_t)iocurrent);
 8000ca8:	68fb      	ldr	r3, [r7, #12]
 8000caa:	43da      	mvns	r2, r3
 8000cac:	693b      	ldr	r3, [r7, #16]
 8000cae:	4013      	ands	r3, r2
 8000cb0:	613b      	str	r3, [r7, #16]
        if((GPIO_Init->Mode & RISING_EDGE) == RISING_EDGE)
 8000cb2:	683b      	ldr	r3, [r7, #0]
 8000cb4:	685a      	ldr	r2, [r3, #4]
 8000cb6:	2380      	movs	r3, #128	; 0x80
 8000cb8:	035b      	lsls	r3, r3, #13
 8000cba:	4013      	ands	r3, r2
 8000cbc:	d003      	beq.n	8000cc6 <HAL_GPIO_Init+0x26a>
        {
          temp |= iocurrent;
 8000cbe:	693a      	ldr	r2, [r7, #16]
 8000cc0:	68fb      	ldr	r3, [r7, #12]
 8000cc2:	4313      	orrs	r3, r2
 8000cc4:	613b      	str	r3, [r7, #16]
        }
        EXTI->RTSR = temp;
 8000cc6:	4b17      	ldr	r3, [pc, #92]	; (8000d24 <HAL_GPIO_Init+0x2c8>)
 8000cc8:	693a      	ldr	r2, [r7, #16]
 8000cca:	609a      	str	r2, [r3, #8]

        temp = EXTI->FTSR;
 8000ccc:	4b15      	ldr	r3, [pc, #84]	; (8000d24 <HAL_GPIO_Init+0x2c8>)
 8000cce:	68db      	ldr	r3, [r3, #12]
 8000cd0:	613b      	str	r3, [r7, #16]
        temp &= ~((uint32_t)iocurrent);
 8000cd2:	68fb      	ldr	r3, [r7, #12]
 8000cd4:	43da      	mvns	r2, r3
 8000cd6:	693b      	ldr	r3, [r7, #16]
 8000cd8:	4013      	ands	r3, r2
 8000cda:	613b      	str	r3, [r7, #16]
        if((GPIO_Init->Mode & FALLING_EDGE) == FALLING_EDGE)
 8000cdc:	683b      	ldr	r3, [r7, #0]
 8000cde:	685a      	ldr	r2, [r3, #4]
 8000ce0:	2380      	movs	r3, #128	; 0x80
 8000ce2:	039b      	lsls	r3, r3, #14
 8000ce4:	4013      	ands	r3, r2
 8000ce6:	d003      	beq.n	8000cf0 <HAL_GPIO_Init+0x294>
        {
          temp |= iocurrent;
 8000ce8:	693a      	ldr	r2, [r7, #16]
 8000cea:	68fb      	ldr	r3, [r7, #12]
 8000cec:	4313      	orrs	r3, r2
 8000cee:	613b      	str	r3, [r7, #16]
        }
        EXTI->FTSR = temp;
 8000cf0:	4b0c      	ldr	r3, [pc, #48]	; (8000d24 <HAL_GPIO_Init+0x2c8>)
 8000cf2:	693a      	ldr	r2, [r7, #16]
 8000cf4:	60da      	str	r2, [r3, #12]
      }
    }
    position++;
 8000cf6:	697b      	ldr	r3, [r7, #20]
 8000cf8:	3301      	adds	r3, #1
 8000cfa:	617b      	str	r3, [r7, #20]
  while (((GPIO_Init->Pin) >> position) != 0)
 8000cfc:	683b      	ldr	r3, [r7, #0]
 8000cfe:	681a      	ldr	r2, [r3, #0]
 8000d00:	697b      	ldr	r3, [r7, #20]
 8000d02:	40da      	lsrs	r2, r3
 8000d04:	1e13      	subs	r3, r2, #0
 8000d06:	d000      	beq.n	8000d0a <HAL_GPIO_Init+0x2ae>
 8000d08:	e6b4      	b.n	8000a74 <HAL_GPIO_Init+0x18>
  }
}
 8000d0a:	46c0      	nop			; (mov r8, r8)
 8000d0c:	46bd      	mov	sp, r7
 8000d0e:	b006      	add	sp, #24
 8000d10:	bd80      	pop	{r7, pc}
 8000d12:	46c0      	nop			; (mov r8, r8)
 8000d14:	40021000 	.word	0x40021000
 8000d18:	40010000 	.word	0x40010000
 8000d1c:	50000400 	.word	0x50000400
 8000d20:	50000800 	.word	0x50000800
 8000d24:	40010400 	.word	0x40010400

08000d28 <HAL_GPIO_WritePin>:
  *                        GPIO_PIN_RESET: to clear the port pin
  *                        GPIO_PIN_SET: to set the port pin
  * @retval None
  */
void HAL_GPIO_WritePin(GPIO_TypeDef* GPIOx, uint16_t GPIO_Pin, GPIO_PinState PinState)
{
 8000d28:	b580      	push	{r7, lr}
 8000d2a:	b082      	sub	sp, #8
 8000d2c:	af00      	add	r7, sp, #0
 8000d2e:	6078      	str	r0, [r7, #4]
 8000d30:	0008      	movs	r0, r1
 8000d32:	0011      	movs	r1, r2
 8000d34:	1cbb      	adds	r3, r7, #2
 8000d36:	1c02      	adds	r2, r0, #0
 8000d38:	801a      	strh	r2, [r3, #0]
 8000d3a:	1c7b      	adds	r3, r7, #1
 8000d3c:	1c0a      	adds	r2, r1, #0
 8000d3e:	701a      	strb	r2, [r3, #0]
  /* Check the parameters */
  assert_param(IS_GPIO_PIN_AVAILABLE(GPIOx,GPIO_Pin));
  assert_param(IS_GPIO_PIN_ACTION(PinState));
  
  if(PinState != GPIO_PIN_RESET)
 8000d40:	1c7b      	adds	r3, r7, #1
 8000d42:	781b      	ldrb	r3, [r3, #0]
 8000d44:	2b00      	cmp	r3, #0
 8000d46:	d004      	beq.n	8000d52 <HAL_GPIO_WritePin+0x2a>
  {
    GPIOx->BSRR = GPIO_Pin;
 8000d48:	1cbb      	adds	r3, r7, #2
 8000d4a:	881a      	ldrh	r2, [r3, #0]
 8000d4c:	687b      	ldr	r3, [r7, #4]
 8000d4e:	619a      	str	r2, [r3, #24]
  }
  else
  {
    GPIOx->BRR = GPIO_Pin ;
  }
}
 8000d50:	e003      	b.n	8000d5a <HAL_GPIO_WritePin+0x32>
    GPIOx->BRR = GPIO_Pin ;
 8000d52:	1cbb      	adds	r3, r7, #2
 8000d54:	881a      	ldrh	r2, [r3, #0]
 8000d56:	687b      	ldr	r3, [r7, #4]
 8000d58:	629a      	str	r2, [r3, #40]	; 0x28
}
 8000d5a:	46c0      	nop			; (mov r8, r8)
 8000d5c:	46bd      	mov	sp, r7
 8000d5e:	b002      	add	sp, #8
 8000d60:	bd80      	pop	{r7, pc}
	...

08000d64 <HAL_PWR_EnableWakeUpPin>:
  *           @arg PWR_WAKEUP_PIN2
  *           @arg PWR_WAKEUP_PIN3 for stm32l07xxx and stm32l08xxx devices only.
  * @retval None
  */
void HAL_PWR_EnableWakeUpPin(uint32_t WakeUpPinx)
{
 8000d64:	b580      	push	{r7, lr}
 8000d66:	b082      	sub	sp, #8
 8000d68:	af00      	add	r7, sp, #0
 8000d6a:	6078      	str	r0, [r7, #4]
  /* Check the parameter */
  assert_param(IS_PWR_WAKEUP_PIN(WakeUpPinx));
  /* Enable the EWUPx pin */
  SET_BIT(PWR->CSR, WakeUpPinx);
 8000d6c:	4b04      	ldr	r3, [pc, #16]	; (8000d80 <HAL_PWR_EnableWakeUpPin+0x1c>)
 8000d6e:	6859      	ldr	r1, [r3, #4]
 8000d70:	4b03      	ldr	r3, [pc, #12]	; (8000d80 <HAL_PWR_EnableWakeUpPin+0x1c>)
 8000d72:	687a      	ldr	r2, [r7, #4]
 8000d74:	430a      	orrs	r2, r1
 8000d76:	605a      	str	r2, [r3, #4]
}
 8000d78:	46c0      	nop			; (mov r8, r8)
 8000d7a:	46bd      	mov	sp, r7
 8000d7c:	b002      	add	sp, #8
 8000d7e:	bd80      	pop	{r7, pc}
 8000d80:	40007000 	.word	0x40007000

08000d84 <HAL_PWR_EnterSTANDBYMode>:
  *          - WKUP pin 3 (PE06) if enabled, for stm32l07xxx and stm32l08xxx devices only.
  *          - WKUP pin 3 (PA02) if enabled, for stm32l031xx devices only.
  * @retval None
  */
void HAL_PWR_EnterSTANDBYMode(void)
{
 8000d84:	b580      	push	{r7, lr}
 8000d86:	af00      	add	r7, sp, #0
  /* Select Standby mode */
  SET_BIT(PWR->CR, PWR_CR_PDDS);
 8000d88:	4b07      	ldr	r3, [pc, #28]	; (8000da8 <HAL_PWR_EnterSTANDBYMode+0x24>)
 8000d8a:	681a      	ldr	r2, [r3, #0]
 8000d8c:	4b06      	ldr	r3, [pc, #24]	; (8000da8 <HAL_PWR_EnterSTANDBYMode+0x24>)
 8000d8e:	2102      	movs	r1, #2
 8000d90:	430a      	orrs	r2, r1
 8000d92:	601a      	str	r2, [r3, #0]

  /* Set SLEEPDEEP bit of Cortex System Control Register */
  SET_BIT(SCB->SCR, SCB_SCR_SLEEPDEEP_Msk);
 8000d94:	4b05      	ldr	r3, [pc, #20]	; (8000dac <HAL_PWR_EnterSTANDBYMode+0x28>)
 8000d96:	691a      	ldr	r2, [r3, #16]
 8000d98:	4b04      	ldr	r3, [pc, #16]	; (8000dac <HAL_PWR_EnterSTANDBYMode+0x28>)
 8000d9a:	2104      	movs	r1, #4
 8000d9c:	430a      	orrs	r2, r1
 8000d9e:	611a      	str	r2, [r3, #16]
  \brief   Wait For Interrupt
  \details Wait For Interrupt is a hint instruction that suspends execution until one of a number of events occurs.
 */
__attribute__((always_inline)) __STATIC_INLINE void __WFI(void)
{
  __ASM volatile ("wfi");
 8000da0:	bf30      	wfi
#if defined ( __CC_ARM)
  __force_stores();
#endif
  /* Request Wait For Interrupt */
  __WFI();
}
 8000da2:	46c0      	nop			; (mov r8, r8)
 8000da4:	46bd      	mov	sp, r7
 8000da6:	bd80      	pop	{r7, pc}
 8000da8:	40007000 	.word	0x40007000
 8000dac:	e000ed00 	.word	0xe000ed00

08000db0 <HAL_RCC_OscConfig>:
  *         supported by this macro. User should request a transition to HSE Off
  *         first and then HSE On or HSE Bypass.
  * @retval HAL status
  */
HAL_StatusTypeDef HAL_RCC_OscConfig(RCC_OscInitTypeDef  *RCC_OscInitStruct)
{
 8000db0:	b5b0      	push	{r4, r5, r7, lr}
 8000db2:	b08a      	sub	sp, #40	; 0x28
 8000db4:	af00      	add	r7, sp, #0
 8000db6:	6078      	str	r0, [r7, #4]
  uint32_t hsi_state;
  HAL_StatusTypeDef status;
  uint32_t sysclk_source, pll_config;

  /* Check the parameters */
  if(RCC_OscInitStruct == NULL)
 8000db8:	687b      	ldr	r3, [r7, #4]
 8000dba:	2b00      	cmp	r3, #0
 8000dbc:	d102      	bne.n	8000dc4 <HAL_RCC_OscConfig+0x14>
  {
    return HAL_ERROR;
 8000dbe:	2301      	movs	r3, #1
 8000dc0:	f000 fb6a 	bl	8001498 <HAL_RCC_OscConfig+0x6e8>
  }

  assert_param(IS_RCC_OSCILLATORTYPE(RCC_OscInitStruct->OscillatorType));

  sysclk_source = __HAL_RCC_GET_SYSCLK_SOURCE();
 8000dc4:	4bc7      	ldr	r3, [pc, #796]	; (80010e4 <HAL_RCC_OscConfig+0x334>)
 8000dc6:	68db      	ldr	r3, [r3, #12]
 8000dc8:	220c      	movs	r2, #12
 8000dca:	4013      	ands	r3, r2
 8000dcc:	61fb      	str	r3, [r7, #28]
  pll_config = __HAL_RCC_GET_PLL_OSCSOURCE();
 8000dce:	4bc5      	ldr	r3, [pc, #788]	; (80010e4 <HAL_RCC_OscConfig+0x334>)
 8000dd0:	68da      	ldr	r2, [r3, #12]
 8000dd2:	2380      	movs	r3, #128	; 0x80
 8000dd4:	025b      	lsls	r3, r3, #9
 8000dd6:	4013      	ands	r3, r2
 8000dd8:	61bb      	str	r3, [r7, #24]

  /*------------------------------- HSE Configuration ------------------------*/
  if(((RCC_OscInitStruct->OscillatorType) & RCC_OSCILLATORTYPE_HSE) == RCC_OSCILLATORTYPE_HSE)
 8000dda:	687b      	ldr	r3, [r7, #4]
 8000ddc:	681b      	ldr	r3, [r3, #0]
 8000dde:	2201      	movs	r2, #1
 8000de0:	4013      	ands	r3, r2
 8000de2:	d100      	bne.n	8000de6 <HAL_RCC_OscConfig+0x36>
 8000de4:	e07d      	b.n	8000ee2 <HAL_RCC_OscConfig+0x132>
  {
    /* Check the parameters */
    assert_param(IS_RCC_HSE(RCC_OscInitStruct->HSEState));

    /* When the HSE is used as system clock or clock source for PLL in these cases it is not allowed to be disabled */
    if((sysclk_source == RCC_SYSCLKSOURCE_STATUS_HSE)
 8000de6:	69fb      	ldr	r3, [r7, #28]
 8000de8:	2b08      	cmp	r3, #8
 8000dea:	d007      	beq.n	8000dfc <HAL_RCC_OscConfig+0x4c>
       || ((sysclk_source == RCC_SYSCLKSOURCE_STATUS_PLLCLK) && (pll_config == RCC_PLLSOURCE_HSE)))
 8000dec:	69fb      	ldr	r3, [r7, #28]
 8000dee:	2b0c      	cmp	r3, #12
 8000df0:	d112      	bne.n	8000e18 <HAL_RCC_OscConfig+0x68>
 8000df2:	69ba      	ldr	r2, [r7, #24]
 8000df4:	2380      	movs	r3, #128	; 0x80
 8000df6:	025b      	lsls	r3, r3, #9
 8000df8:	429a      	cmp	r2, r3
 8000dfa:	d10d      	bne.n	8000e18 <HAL_RCC_OscConfig+0x68>
    {
      if((__HAL_RCC_GET_FLAG(RCC_FLAG_HSERDY) != 0U) && (RCC_OscInitStruct->HSEState == RCC_HSE_OFF))
 8000dfc:	4bb9      	ldr	r3, [pc, #740]	; (80010e4 <HAL_RCC_OscConfig+0x334>)
 8000dfe:	681a      	ldr	r2, [r3, #0]
 8000e00:	2380      	movs	r3, #128	; 0x80
 8000e02:	029b      	lsls	r3, r3, #10
 8000e04:	4013      	ands	r3, r2
 8000e06:	d100      	bne.n	8000e0a <HAL_RCC_OscConfig+0x5a>
 8000e08:	e06a      	b.n	8000ee0 <HAL_RCC_OscConfig+0x130>
 8000e0a:	687b      	ldr	r3, [r7, #4]
 8000e0c:	685b      	ldr	r3, [r3, #4]
 8000e0e:	2b00      	cmp	r3, #0
 8000e10:	d166      	bne.n	8000ee0 <HAL_RCC_OscConfig+0x130>
      {
        return HAL_ERROR;
 8000e12:	2301      	movs	r3, #1
 8000e14:	f000 fb40 	bl	8001498 <HAL_RCC_OscConfig+0x6e8>
      }
    }
    else
    {
      /* Set the new HSE configuration ---------------------------------------*/
      __HAL_RCC_HSE_CONFIG(RCC_OscInitStruct->HSEState);
 8000e18:	687b      	ldr	r3, [r7, #4]
 8000e1a:	685a      	ldr	r2, [r3, #4]
 8000e1c:	2380      	movs	r3, #128	; 0x80
 8000e1e:	025b      	lsls	r3, r3, #9
 8000e20:	429a      	cmp	r2, r3
 8000e22:	d107      	bne.n	8000e34 <HAL_RCC_OscConfig+0x84>
 8000e24:	4baf      	ldr	r3, [pc, #700]	; (80010e4 <HAL_RCC_OscConfig+0x334>)
 8000e26:	681a      	ldr	r2, [r3, #0]
 8000e28:	4bae      	ldr	r3, [pc, #696]	; (80010e4 <HAL_RCC_OscConfig+0x334>)
 8000e2a:	2180      	movs	r1, #128	; 0x80
 8000e2c:	0249      	lsls	r1, r1, #9
 8000e2e:	430a      	orrs	r2, r1
 8000e30:	601a      	str	r2, [r3, #0]
 8000e32:	e027      	b.n	8000e84 <HAL_RCC_OscConfig+0xd4>
 8000e34:	687b      	ldr	r3, [r7, #4]
 8000e36:	685a      	ldr	r2, [r3, #4]
 8000e38:	23a0      	movs	r3, #160	; 0xa0
 8000e3a:	02db      	lsls	r3, r3, #11
 8000e3c:	429a      	cmp	r2, r3
 8000e3e:	d10e      	bne.n	8000e5e <HAL_RCC_OscConfig+0xae>
 8000e40:	4ba8      	ldr	r3, [pc, #672]	; (80010e4 <HAL_RCC_OscConfig+0x334>)
 8000e42:	681a      	ldr	r2, [r3, #0]
 8000e44:	4ba7      	ldr	r3, [pc, #668]	; (80010e4 <HAL_RCC_OscConfig+0x334>)
 8000e46:	2180      	movs	r1, #128	; 0x80
 8000e48:	02c9      	lsls	r1, r1, #11
 8000e4a:	430a      	orrs	r2, r1
 8000e4c:	601a      	str	r2, [r3, #0]
 8000e4e:	4ba5      	ldr	r3, [pc, #660]	; (80010e4 <HAL_RCC_OscConfig+0x334>)
 8000e50:	681a      	ldr	r2, [r3, #0]
 8000e52:	4ba4      	ldr	r3, [pc, #656]	; (80010e4 <HAL_RCC_OscConfig+0x334>)
 8000e54:	2180      	movs	r1, #128	; 0x80
 8000e56:	0249      	lsls	r1, r1, #9
 8000e58:	430a      	orrs	r2, r1
 8000e5a:	601a      	str	r2, [r3, #0]
 8000e5c:	e012      	b.n	8000e84 <HAL_RCC_OscConfig+0xd4>
 8000e5e:	4ba1      	ldr	r3, [pc, #644]	; (80010e4 <HAL_RCC_OscConfig+0x334>)
 8000e60:	681a      	ldr	r2, [r3, #0]
 8000e62:	4ba0      	ldr	r3, [pc, #640]	; (80010e4 <HAL_RCC_OscConfig+0x334>)
 8000e64:	49a0      	ldr	r1, [pc, #640]	; (80010e8 <HAL_RCC_OscConfig+0x338>)
 8000e66:	400a      	ands	r2, r1
 8000e68:	601a      	str	r2, [r3, #0]
 8000e6a:	4b9e      	ldr	r3, [pc, #632]	; (80010e4 <HAL_RCC_OscConfig+0x334>)
 8000e6c:	681a      	ldr	r2, [r3, #0]
 8000e6e:	2380      	movs	r3, #128	; 0x80
 8000e70:	025b      	lsls	r3, r3, #9
 8000e72:	4013      	ands	r3, r2
 8000e74:	60fb      	str	r3, [r7, #12]
 8000e76:	68fb      	ldr	r3, [r7, #12]
 8000e78:	4b9a      	ldr	r3, [pc, #616]	; (80010e4 <HAL_RCC_OscConfig+0x334>)
 8000e7a:	681a      	ldr	r2, [r3, #0]
 8000e7c:	4b99      	ldr	r3, [pc, #612]	; (80010e4 <HAL_RCC_OscConfig+0x334>)
 8000e7e:	499b      	ldr	r1, [pc, #620]	; (80010ec <HAL_RCC_OscConfig+0x33c>)
 8000e80:	400a      	ands	r2, r1
 8000e82:	601a      	str	r2, [r3, #0]

      /* Check the HSE State */
      if(RCC_OscInitStruct->HSEState != RCC_HSE_OFF)
 8000e84:	687b      	ldr	r3, [r7, #4]
 8000e86:	685b      	ldr	r3, [r3, #4]
 8000e88:	2b00      	cmp	r3, #0
 8000e8a:	d014      	beq.n	8000eb6 <HAL_RCC_OscConfig+0x106>
      {
        /* Get Start Tick */
        tickstart = HAL_GetTick();
 8000e8c:	f7ff fd0a 	bl	80008a4 <HAL_GetTick>
 8000e90:	0003      	movs	r3, r0
 8000e92:	617b      	str	r3, [r7, #20]

        /* Wait till HSE is ready */
        while(__HAL_RCC_GET_FLAG(RCC_FLAG_HSERDY) == 0U)
 8000e94:	e008      	b.n	8000ea8 <HAL_RCC_OscConfig+0xf8>
        {
          if((HAL_GetTick() - tickstart ) > HSE_TIMEOUT_VALUE)
 8000e96:	f7ff fd05 	bl	80008a4 <HAL_GetTick>
 8000e9a:	0002      	movs	r2, r0
 8000e9c:	697b      	ldr	r3, [r7, #20]
 8000e9e:	1ad3      	subs	r3, r2, r3
 8000ea0:	2b64      	cmp	r3, #100	; 0x64
 8000ea2:	d901      	bls.n	8000ea8 <HAL_RCC_OscConfig+0xf8>
          {
            return HAL_TIMEOUT;
 8000ea4:	2303      	movs	r3, #3
 8000ea6:	e2f7      	b.n	8001498 <HAL_RCC_OscConfig+0x6e8>
        while(__HAL_RCC_GET_FLAG(RCC_FLAG_HSERDY) == 0U)
 8000ea8:	4b8e      	ldr	r3, [pc, #568]	; (80010e4 <HAL_RCC_OscConfig+0x334>)
 8000eaa:	681a      	ldr	r2, [r3, #0]
 8000eac:	2380      	movs	r3, #128	; 0x80
 8000eae:	029b      	lsls	r3, r3, #10
 8000eb0:	4013      	ands	r3, r2
 8000eb2:	d0f0      	beq.n	8000e96 <HAL_RCC_OscConfig+0xe6>
 8000eb4:	e015      	b.n	8000ee2 <HAL_RCC_OscConfig+0x132>
        }
      }
      else
      {
        /* Get Start Tick */
        tickstart = HAL_GetTick();
 8000eb6:	f7ff fcf5 	bl	80008a4 <HAL_GetTick>
 8000eba:	0003      	movs	r3, r0
 8000ebc:	617b      	str	r3, [r7, #20]

        /* Wait till HSE is disabled */
        while(__HAL_RCC_GET_FLAG(RCC_FLAG_HSERDY) != 0U)
 8000ebe:	e008      	b.n	8000ed2 <HAL_RCC_OscConfig+0x122>
        {
           if((HAL_GetTick() - tickstart ) > HSE_TIMEOUT_VALUE)
 8000ec0:	f7ff fcf0 	bl	80008a4 <HAL_GetTick>
 8000ec4:	0002      	movs	r2, r0
 8000ec6:	697b      	ldr	r3, [r7, #20]
 8000ec8:	1ad3      	subs	r3, r2, r3
 8000eca:	2b64      	cmp	r3, #100	; 0x64
 8000ecc:	d901      	bls.n	8000ed2 <HAL_RCC_OscConfig+0x122>
          {
            return HAL_TIMEOUT;
 8000ece:	2303      	movs	r3, #3
 8000ed0:	e2e2      	b.n	8001498 <HAL_RCC_OscConfig+0x6e8>
        while(__HAL_RCC_GET_FLAG(RCC_FLAG_HSERDY) != 0U)
 8000ed2:	4b84      	ldr	r3, [pc, #528]	; (80010e4 <HAL_RCC_OscConfig+0x334>)
 8000ed4:	681a      	ldr	r2, [r3, #0]
 8000ed6:	2380      	movs	r3, #128	; 0x80
 8000ed8:	029b      	lsls	r3, r3, #10
 8000eda:	4013      	ands	r3, r2
 8000edc:	d1f0      	bne.n	8000ec0 <HAL_RCC_OscConfig+0x110>
 8000ede:	e000      	b.n	8000ee2 <HAL_RCC_OscConfig+0x132>
      if((__HAL_RCC_GET_FLAG(RCC_FLAG_HSERDY) != 0U) && (RCC_OscInitStruct->HSEState == RCC_HSE_OFF))
 8000ee0:	46c0      	nop			; (mov r8, r8)
        }
      }
    }
  }
  /*----------------------------- HSI Configuration --------------------------*/
  if(((RCC_OscInitStruct->OscillatorType) & RCC_OSCILLATORTYPE_HSI) == RCC_OSCILLATORTYPE_HSI)
 8000ee2:	687b      	ldr	r3, [r7, #4]
 8000ee4:	681b      	ldr	r3, [r3, #0]
 8000ee6:	2202      	movs	r2, #2
 8000ee8:	4013      	ands	r3, r2
 8000eea:	d100      	bne.n	8000eee <HAL_RCC_OscConfig+0x13e>
 8000eec:	e098      	b.n	8001020 <HAL_RCC_OscConfig+0x270>
  {
    /* Check the parameters */
    assert_param(IS_RCC_HSI(RCC_OscInitStruct->HSIState));
    assert_param(IS_RCC_CALIBRATION_VALUE(RCC_OscInitStruct->HSICalibrationValue));

    hsi_state = RCC_OscInitStruct->HSIState;
 8000eee:	687b      	ldr	r3, [r7, #4]
 8000ef0:	68db      	ldr	r3, [r3, #12]
 8000ef2:	627b      	str	r3, [r7, #36]	; 0x24

#if defined(RCC_CR_HSIOUTEN)
    if((hsi_state & RCC_HSI_OUTEN) != 0U)
 8000ef4:	6a7b      	ldr	r3, [r7, #36]	; 0x24
 8000ef6:	2220      	movs	r2, #32
 8000ef8:	4013      	ands	r3, r2
 8000efa:	d009      	beq.n	8000f10 <HAL_RCC_OscConfig+0x160>
    {
      /* HSI Output enable for timer requested */
      SET_BIT(RCC->CR, RCC_CR_HSIOUTEN);
 8000efc:	4b79      	ldr	r3, [pc, #484]	; (80010e4 <HAL_RCC_OscConfig+0x334>)
 8000efe:	681a      	ldr	r2, [r3, #0]
 8000f00:	4b78      	ldr	r3, [pc, #480]	; (80010e4 <HAL_RCC_OscConfig+0x334>)
 8000f02:	2120      	movs	r1, #32
 8000f04:	430a      	orrs	r2, r1
 8000f06:	601a      	str	r2, [r3, #0]

      hsi_state &= ~RCC_CR_HSIOUTEN;
 8000f08:	6a7b      	ldr	r3, [r7, #36]	; 0x24
 8000f0a:	2220      	movs	r2, #32
 8000f0c:	4393      	bics	r3, r2
 8000f0e:	627b      	str	r3, [r7, #36]	; 0x24
    }
#endif

    /* Check if HSI is used as system clock or as PLL source when PLL is selected as system clock */
    if((sysclk_source == RCC_SYSCLKSOURCE_STATUS_HSI)
 8000f10:	69fb      	ldr	r3, [r7, #28]
 8000f12:	2b04      	cmp	r3, #4
 8000f14:	d005      	beq.n	8000f22 <HAL_RCC_OscConfig+0x172>
       || ((sysclk_source == RCC_SYSCLKSOURCE_STATUS_PLLCLK) && (pll_config == RCC_PLLSOURCE_HSI)))
 8000f16:	69fb      	ldr	r3, [r7, #28]
 8000f18:	2b0c      	cmp	r3, #12
 8000f1a:	d13d      	bne.n	8000f98 <HAL_RCC_OscConfig+0x1e8>
 8000f1c:	69bb      	ldr	r3, [r7, #24]
 8000f1e:	2b00      	cmp	r3, #0
 8000f20:	d13a      	bne.n	8000f98 <HAL_RCC_OscConfig+0x1e8>
    {
      /* When HSI is used as system clock it will not disabled */
      if((__HAL_RCC_GET_FLAG(RCC_FLAG_HSIRDY) != 0U) && (hsi_state == RCC_HSI_OFF))
 8000f22:	4b70      	ldr	r3, [pc, #448]	; (80010e4 <HAL_RCC_OscConfig+0x334>)
 8000f24:	681b      	ldr	r3, [r3, #0]
 8000f26:	2204      	movs	r2, #4
 8000f28:	4013      	ands	r3, r2
 8000f2a:	d004      	beq.n	8000f36 <HAL_RCC_OscConfig+0x186>
 8000f2c:	6a7b      	ldr	r3, [r7, #36]	; 0x24
 8000f2e:	2b00      	cmp	r3, #0
 8000f30:	d101      	bne.n	8000f36 <HAL_RCC_OscConfig+0x186>
      {
        return HAL_ERROR;
 8000f32:	2301      	movs	r3, #1
 8000f34:	e2b0      	b.n	8001498 <HAL_RCC_OscConfig+0x6e8>
      }
      /* Otherwise, just the calibration and HSI or HSIdiv4 are allowed */
      else
      {
        /* Adjusts the Internal High Speed oscillator (HSI) calibration value.*/
        __HAL_RCC_HSI_CALIBRATIONVALUE_ADJUST(RCC_OscInitStruct->HSICalibrationValue);
 8000f36:	4b6b      	ldr	r3, [pc, #428]	; (80010e4 <HAL_RCC_OscConfig+0x334>)
 8000f38:	685b      	ldr	r3, [r3, #4]
 8000f3a:	4a6d      	ldr	r2, [pc, #436]	; (80010f0 <HAL_RCC_OscConfig+0x340>)
 8000f3c:	4013      	ands	r3, r2
 8000f3e:	0019      	movs	r1, r3
 8000f40:	687b      	ldr	r3, [r7, #4]
 8000f42:	691b      	ldr	r3, [r3, #16]
 8000f44:	021a      	lsls	r2, r3, #8
 8000f46:	4b67      	ldr	r3, [pc, #412]	; (80010e4 <HAL_RCC_OscConfig+0x334>)
 8000f48:	430a      	orrs	r2, r1
 8000f4a:	605a      	str	r2, [r3, #4]

        /* Enable the Internal High Speed oscillator (HSI or HSIdiv4) */
        __HAL_RCC_HSI_CONFIG(hsi_state);
 8000f4c:	4b65      	ldr	r3, [pc, #404]	; (80010e4 <HAL_RCC_OscConfig+0x334>)
 8000f4e:	681b      	ldr	r3, [r3, #0]
 8000f50:	2209      	movs	r2, #9
 8000f52:	4393      	bics	r3, r2
 8000f54:	0019      	movs	r1, r3
 8000f56:	4b63      	ldr	r3, [pc, #396]	; (80010e4 <HAL_RCC_OscConfig+0x334>)
 8000f58:	6a7a      	ldr	r2, [r7, #36]	; 0x24
 8000f5a:	430a      	orrs	r2, r1
 8000f5c:	601a      	str	r2, [r3, #0]
      }

      /* Update the SystemCoreClock global variable */
      SystemCoreClock = HAL_RCC_GetSysClockFreq() >> AHBPrescTable[(RCC->CFGR & RCC_CFGR_HPRE)>> RCC_CFGR_HPRE_Pos];
 8000f5e:	f000 fbcb 	bl	80016f8 <HAL_RCC_GetSysClockFreq>
 8000f62:	0001      	movs	r1, r0
 8000f64:	4b5f      	ldr	r3, [pc, #380]	; (80010e4 <HAL_RCC_OscConfig+0x334>)
 8000f66:	68db      	ldr	r3, [r3, #12]
 8000f68:	091b      	lsrs	r3, r3, #4
 8000f6a:	220f      	movs	r2, #15
 8000f6c:	4013      	ands	r3, r2
 8000f6e:	4a61      	ldr	r2, [pc, #388]	; (80010f4 <HAL_RCC_OscConfig+0x344>)
 8000f70:	5cd3      	ldrb	r3, [r2, r3]
 8000f72:	000a      	movs	r2, r1
 8000f74:	40da      	lsrs	r2, r3
 8000f76:	4b60      	ldr	r3, [pc, #384]	; (80010f8 <HAL_RCC_OscConfig+0x348>)
 8000f78:	601a      	str	r2, [r3, #0]

      /* Configure the source of time base considering new system clocks settings*/
      status = HAL_InitTick (TICK_INT_PRIORITY);
 8000f7a:	2513      	movs	r5, #19
 8000f7c:	197c      	adds	r4, r7, r5
 8000f7e:	2000      	movs	r0, #0
 8000f80:	f7ff fc5a 	bl	8000838 <HAL_InitTick>
 8000f84:	0003      	movs	r3, r0
 8000f86:	7023      	strb	r3, [r4, #0]
      if(status != HAL_OK)
 8000f88:	197b      	adds	r3, r7, r5
 8000f8a:	781b      	ldrb	r3, [r3, #0]
 8000f8c:	2b00      	cmp	r3, #0
 8000f8e:	d047      	beq.n	8001020 <HAL_RCC_OscConfig+0x270>
      {
        return status;
 8000f90:	2313      	movs	r3, #19
 8000f92:	18fb      	adds	r3, r7, r3
 8000f94:	781b      	ldrb	r3, [r3, #0]
 8000f96:	e27f      	b.n	8001498 <HAL_RCC_OscConfig+0x6e8>
      }
    }
    else
    {
      /* Check the HSI State */
      if(hsi_state != RCC_HSI_OFF)
 8000f98:	6a7b      	ldr	r3, [r7, #36]	; 0x24
 8000f9a:	2b00      	cmp	r3, #0
 8000f9c:	d027      	beq.n	8000fee <HAL_RCC_OscConfig+0x23e>
      {
        /* Enable the Internal High Speed oscillator (HSI or HSIdiv4) */
        __HAL_RCC_HSI_CONFIG(hsi_state);
 8000f9e:	4b51      	ldr	r3, [pc, #324]	; (80010e4 <HAL_RCC_OscConfig+0x334>)
 8000fa0:	681b      	ldr	r3, [r3, #0]
 8000fa2:	2209      	movs	r2, #9
 8000fa4:	4393      	bics	r3, r2
 8000fa6:	0019      	movs	r1, r3
 8000fa8:	4b4e      	ldr	r3, [pc, #312]	; (80010e4 <HAL_RCC_OscConfig+0x334>)
 8000faa:	6a7a      	ldr	r2, [r7, #36]	; 0x24
 8000fac:	430a      	orrs	r2, r1
 8000fae:	601a      	str	r2, [r3, #0]

        /* Get Start Tick */
        tickstart = HAL_GetTick();
 8000fb0:	f7ff fc78 	bl	80008a4 <HAL_GetTick>
 8000fb4:	0003      	movs	r3, r0
 8000fb6:	617b      	str	r3, [r7, #20]

        /* Wait till HSI is ready */
        while(__HAL_RCC_GET_FLAG(RCC_FLAG_HSIRDY) == 0U)
 8000fb8:	e008      	b.n	8000fcc <HAL_RCC_OscConfig+0x21c>
        {
          if((HAL_GetTick() - tickstart ) > HSI_TIMEOUT_VALUE)
 8000fba:	f7ff fc73 	bl	80008a4 <HAL_GetTick>
 8000fbe:	0002      	movs	r2, r0
 8000fc0:	697b      	ldr	r3, [r7, #20]
 8000fc2:	1ad3      	subs	r3, r2, r3
 8000fc4:	2b02      	cmp	r3, #2
 8000fc6:	d901      	bls.n	8000fcc <HAL_RCC_OscConfig+0x21c>
          {
            return HAL_TIMEOUT;
 8000fc8:	2303      	movs	r3, #3
 8000fca:	e265      	b.n	8001498 <HAL_RCC_OscConfig+0x6e8>
        while(__HAL_RCC_GET_FLAG(RCC_FLAG_HSIRDY) == 0U)
 8000fcc:	4b45      	ldr	r3, [pc, #276]	; (80010e4 <HAL_RCC_OscConfig+0x334>)
 8000fce:	681b      	ldr	r3, [r3, #0]
 8000fd0:	2204      	movs	r2, #4
 8000fd2:	4013      	ands	r3, r2
 8000fd4:	d0f1      	beq.n	8000fba <HAL_RCC_OscConfig+0x20a>
          }
        }

        /* Adjusts the Internal High Speed oscillator (HSI) calibration value.*/
        __HAL_RCC_HSI_CALIBRATIONVALUE_ADJUST(RCC_OscInitStruct->HSICalibrationValue);
 8000fd6:	4b43      	ldr	r3, [pc, #268]	; (80010e4 <HAL_RCC_OscConfig+0x334>)
 8000fd8:	685b      	ldr	r3, [r3, #4]
 8000fda:	4a45      	ldr	r2, [pc, #276]	; (80010f0 <HAL_RCC_OscConfig+0x340>)
 8000fdc:	4013      	ands	r3, r2
 8000fde:	0019      	movs	r1, r3
 8000fe0:	687b      	ldr	r3, [r7, #4]
 8000fe2:	691b      	ldr	r3, [r3, #16]
 8000fe4:	021a      	lsls	r2, r3, #8
 8000fe6:	4b3f      	ldr	r3, [pc, #252]	; (80010e4 <HAL_RCC_OscConfig+0x334>)
 8000fe8:	430a      	orrs	r2, r1
 8000fea:	605a      	str	r2, [r3, #4]
 8000fec:	e018      	b.n	8001020 <HAL_RCC_OscConfig+0x270>
      }
      else
      {
        /* Disable the Internal High Speed oscillator (HSI). */
        __HAL_RCC_HSI_DISABLE();
 8000fee:	4b3d      	ldr	r3, [pc, #244]	; (80010e4 <HAL_RCC_OscConfig+0x334>)
 8000ff0:	681a      	ldr	r2, [r3, #0]
 8000ff2:	4b3c      	ldr	r3, [pc, #240]	; (80010e4 <HAL_RCC_OscConfig+0x334>)
 8000ff4:	2101      	movs	r1, #1
 8000ff6:	438a      	bics	r2, r1
 8000ff8:	601a      	str	r2, [r3, #0]

        /* Get Start Tick */
        tickstart = HAL_GetTick();
 8000ffa:	f7ff fc53 	bl	80008a4 <HAL_GetTick>
 8000ffe:	0003      	movs	r3, r0
 8001000:	617b      	str	r3, [r7, #20]

        /* Wait till HSI is disabled */
        while(__HAL_RCC_GET_FLAG(RCC_FLAG_HSIRDY) != 0U)
 8001002:	e008      	b.n	8001016 <HAL_RCC_OscConfig+0x266>
        {
          if((HAL_GetTick() - tickstart ) > HSI_TIMEOUT_VALUE)
 8001004:	f7ff fc4e 	bl	80008a4 <HAL_GetTick>
 8001008:	0002      	movs	r2, r0
 800100a:	697b      	ldr	r3, [r7, #20]
 800100c:	1ad3      	subs	r3, r2, r3
 800100e:	2b02      	cmp	r3, #2
 8001010:	d901      	bls.n	8001016 <HAL_RCC_OscConfig+0x266>
          {
            return HAL_TIMEOUT;
 8001012:	2303      	movs	r3, #3
 8001014:	e240      	b.n	8001498 <HAL_RCC_OscConfig+0x6e8>
        while(__HAL_RCC_GET_FLAG(RCC_FLAG_HSIRDY) != 0U)
 8001016:	4b33      	ldr	r3, [pc, #204]	; (80010e4 <HAL_RCC_OscConfig+0x334>)
 8001018:	681b      	ldr	r3, [r3, #0]
 800101a:	2204      	movs	r2, #4
 800101c:	4013      	ands	r3, r2
 800101e:	d1f1      	bne.n	8001004 <HAL_RCC_OscConfig+0x254>
        }
      }
    }
  }
  /*----------------------------- MSI Configuration --------------------------*/
  if(((RCC_OscInitStruct->OscillatorType) & RCC_OSCILLATORTYPE_MSI) == RCC_OSCILLATORTYPE_MSI)
 8001020:	687b      	ldr	r3, [r7, #4]
 8001022:	681b      	ldr	r3, [r3, #0]
 8001024:	2210      	movs	r2, #16
 8001026:	4013      	ands	r3, r2
 8001028:	d100      	bne.n	800102c <HAL_RCC_OscConfig+0x27c>
 800102a:	e09e      	b.n	800116a <HAL_RCC_OscConfig+0x3ba>
  {
    /* When the MSI is used as system clock it will not be disabled */
    if((sysclk_source == RCC_CFGR_SWS_MSI) )
 800102c:	69fb      	ldr	r3, [r7, #28]
 800102e:	2b00      	cmp	r3, #0
 8001030:	d13f      	bne.n	80010b2 <HAL_RCC_OscConfig+0x302>
    {
      if((__HAL_RCC_GET_FLAG(RCC_FLAG_MSIRDY) != 0U) && (RCC_OscInitStruct->MSIState == RCC_MSI_OFF))
 8001032:	4b2c      	ldr	r3, [pc, #176]	; (80010e4 <HAL_RCC_OscConfig+0x334>)
 8001034:	681a      	ldr	r2, [r3, #0]
 8001036:	2380      	movs	r3, #128	; 0x80
 8001038:	009b      	lsls	r3, r3, #2
 800103a:	4013      	ands	r3, r2
 800103c:	d005      	beq.n	800104a <HAL_RCC_OscConfig+0x29a>
 800103e:	687b      	ldr	r3, [r7, #4]
 8001040:	699b      	ldr	r3, [r3, #24]
 8001042:	2b00      	cmp	r3, #0
 8001044:	d101      	bne.n	800104a <HAL_RCC_OscConfig+0x29a>
      {
        return HAL_ERROR;
 8001046:	2301      	movs	r3, #1
 8001048:	e226      	b.n	8001498 <HAL_RCC_OscConfig+0x6e8>
        /* Check MSICalibrationValue and MSIClockRange input parameters */
        assert_param(IS_RCC_MSICALIBRATION_VALUE(RCC_OscInitStruct->MSICalibrationValue));
        assert_param(IS_RCC_MSI_CLOCK_RANGE(RCC_OscInitStruct->MSIClockRange));

        /* Selects the Multiple Speed oscillator (MSI) clock range .*/
        __HAL_RCC_MSI_RANGE_CONFIG(RCC_OscInitStruct->MSIClockRange);
 800104a:	4b26      	ldr	r3, [pc, #152]	; (80010e4 <HAL_RCC_OscConfig+0x334>)
 800104c:	685b      	ldr	r3, [r3, #4]
 800104e:	4a2b      	ldr	r2, [pc, #172]	; (80010fc <HAL_RCC_OscConfig+0x34c>)
 8001050:	4013      	ands	r3, r2
 8001052:	0019      	movs	r1, r3
 8001054:	687b      	ldr	r3, [r7, #4]
 8001056:	6a1a      	ldr	r2, [r3, #32]
 8001058:	4b22      	ldr	r3, [pc, #136]	; (80010e4 <HAL_RCC_OscConfig+0x334>)
 800105a:	430a      	orrs	r2, r1
 800105c:	605a      	str	r2, [r3, #4]
        /* Adjusts the Multiple Speed oscillator (MSI) calibration value.*/
        __HAL_RCC_MSI_CALIBRATIONVALUE_ADJUST(RCC_OscInitStruct->MSICalibrationValue);
 800105e:	4b21      	ldr	r3, [pc, #132]	; (80010e4 <HAL_RCC_OscConfig+0x334>)
 8001060:	685b      	ldr	r3, [r3, #4]
 8001062:	021b      	lsls	r3, r3, #8
 8001064:	0a19      	lsrs	r1, r3, #8
 8001066:	687b      	ldr	r3, [r7, #4]
 8001068:	69db      	ldr	r3, [r3, #28]
 800106a:	061a      	lsls	r2, r3, #24
 800106c:	4b1d      	ldr	r3, [pc, #116]	; (80010e4 <HAL_RCC_OscConfig+0x334>)
 800106e:	430a      	orrs	r2, r1
 8001070:	605a      	str	r2, [r3, #4]


        /* Update the SystemCoreClock global variable */
        SystemCoreClock =  (32768U * (1UL << ((RCC_OscInitStruct->MSIClockRange >> RCC_ICSCR_MSIRANGE_Pos) + 1U)))
 8001072:	687b      	ldr	r3, [r7, #4]
 8001074:	6a1b      	ldr	r3, [r3, #32]
 8001076:	0b5b      	lsrs	r3, r3, #13
 8001078:	3301      	adds	r3, #1
 800107a:	2280      	movs	r2, #128	; 0x80
 800107c:	0212      	lsls	r2, r2, #8
 800107e:	409a      	lsls	r2, r3
                           >> AHBPrescTable[((RCC->CFGR & RCC_CFGR_HPRE) >> RCC_CFGR_HPRE_Pos)];
 8001080:	4b18      	ldr	r3, [pc, #96]	; (80010e4 <HAL_RCC_OscConfig+0x334>)
 8001082:	68db      	ldr	r3, [r3, #12]
 8001084:	091b      	lsrs	r3, r3, #4
 8001086:	210f      	movs	r1, #15
 8001088:	400b      	ands	r3, r1
 800108a:	491a      	ldr	r1, [pc, #104]	; (80010f4 <HAL_RCC_OscConfig+0x344>)
 800108c:	5ccb      	ldrb	r3, [r1, r3]
 800108e:	40da      	lsrs	r2, r3
        SystemCoreClock =  (32768U * (1UL << ((RCC_OscInitStruct->MSIClockRange >> RCC_ICSCR_MSIRANGE_Pos) + 1U)))
 8001090:	4b19      	ldr	r3, [pc, #100]	; (80010f8 <HAL_RCC_OscConfig+0x348>)
 8001092:	601a      	str	r2, [r3, #0]

        /* Configure the source of time base considering new system clocks settings*/
        status = HAL_InitTick (TICK_INT_PRIORITY);
 8001094:	2513      	movs	r5, #19
 8001096:	197c      	adds	r4, r7, r5
 8001098:	2000      	movs	r0, #0
 800109a:	f7ff fbcd 	bl	8000838 <HAL_InitTick>
 800109e:	0003      	movs	r3, r0
 80010a0:	7023      	strb	r3, [r4, #0]
        if(status != HAL_OK)
 80010a2:	197b      	adds	r3, r7, r5
 80010a4:	781b      	ldrb	r3, [r3, #0]
 80010a6:	2b00      	cmp	r3, #0
 80010a8:	d05f      	beq.n	800116a <HAL_RCC_OscConfig+0x3ba>
        {
          return status;
 80010aa:	2313      	movs	r3, #19
 80010ac:	18fb      	adds	r3, r7, r3
 80010ae:	781b      	ldrb	r3, [r3, #0]
 80010b0:	e1f2      	b.n	8001498 <HAL_RCC_OscConfig+0x6e8>
    {
      /* Check MSI State */
      assert_param(IS_RCC_MSI(RCC_OscInitStruct->MSIState));

      /* Check the MSI State */
      if(RCC_OscInitStruct->MSIState != RCC_MSI_OFF)
 80010b2:	687b      	ldr	r3, [r7, #4]
 80010b4:	699b      	ldr	r3, [r3, #24]
 80010b6:	2b00      	cmp	r3, #0
 80010b8:	d03d      	beq.n	8001136 <HAL_RCC_OscConfig+0x386>
      {
        /* Enable the Multi Speed oscillator (MSI). */
        __HAL_RCC_MSI_ENABLE();
 80010ba:	4b0a      	ldr	r3, [pc, #40]	; (80010e4 <HAL_RCC_OscConfig+0x334>)
 80010bc:	681a      	ldr	r2, [r3, #0]
 80010be:	4b09      	ldr	r3, [pc, #36]	; (80010e4 <HAL_RCC_OscConfig+0x334>)
 80010c0:	2180      	movs	r1, #128	; 0x80
 80010c2:	0049      	lsls	r1, r1, #1
 80010c4:	430a      	orrs	r2, r1
 80010c6:	601a      	str	r2, [r3, #0]

        /* Get Start Tick */
        tickstart = HAL_GetTick();
 80010c8:	f7ff fbec 	bl	80008a4 <HAL_GetTick>
 80010cc:	0003      	movs	r3, r0
 80010ce:	617b      	str	r3, [r7, #20]

        /* Wait till MSI is ready */
        while(__HAL_RCC_GET_FLAG(RCC_FLAG_MSIRDY) == 0U)
 80010d0:	e016      	b.n	8001100 <HAL_RCC_OscConfig+0x350>
        {
          if((HAL_GetTick() - tickstart) > MSI_TIMEOUT_VALUE)
 80010d2:	f7ff fbe7 	bl	80008a4 <HAL_GetTick>
 80010d6:	0002      	movs	r2, r0
 80010d8:	697b      	ldr	r3, [r7, #20]
 80010da:	1ad3      	subs	r3, r2, r3
 80010dc:	2b02      	cmp	r3, #2
 80010de:	d90f      	bls.n	8001100 <HAL_RCC_OscConfig+0x350>
          {
            return HAL_TIMEOUT;
 80010e0:	2303      	movs	r3, #3
 80010e2:	e1d9      	b.n	8001498 <HAL_RCC_OscConfig+0x6e8>
 80010e4:	40021000 	.word	0x40021000
 80010e8:	fffeffff 	.word	0xfffeffff
 80010ec:	fffbffff 	.word	0xfffbffff
 80010f0:	ffffe0ff 	.word	0xffffe0ff
 80010f4:	08001870 	.word	0x08001870
 80010f8:	20000000 	.word	0x20000000
 80010fc:	ffff1fff 	.word	0xffff1fff
        while(__HAL_RCC_GET_FLAG(RCC_FLAG_MSIRDY) == 0U)
 8001100:	4bca      	ldr	r3, [pc, #808]	; (800142c <HAL_RCC_OscConfig+0x67c>)
 8001102:	681a      	ldr	r2, [r3, #0]
 8001104:	2380      	movs	r3, #128	; 0x80
 8001106:	009b      	lsls	r3, r3, #2
 8001108:	4013      	ands	r3, r2
 800110a:	d0e2      	beq.n	80010d2 <HAL_RCC_OscConfig+0x322>
        /* Check MSICalibrationValue and MSIClockRange input parameters */
        assert_param(IS_RCC_MSICALIBRATION_VALUE(RCC_OscInitStruct->MSICalibrationValue));
        assert_param(IS_RCC_MSI_CLOCK_RANGE(RCC_OscInitStruct->MSIClockRange));

        /* Selects the Multiple Speed oscillator (MSI) clock range .*/
        __HAL_RCC_MSI_RANGE_CONFIG(RCC_OscInitStruct->MSIClockRange);
 800110c:	4bc7      	ldr	r3, [pc, #796]	; (800142c <HAL_RCC_OscConfig+0x67c>)
 800110e:	685b      	ldr	r3, [r3, #4]
 8001110:	4ac7      	ldr	r2, [pc, #796]	; (8001430 <HAL_RCC_OscConfig+0x680>)
 8001112:	4013      	ands	r3, r2
 8001114:	0019      	movs	r1, r3
 8001116:	687b      	ldr	r3, [r7, #4]
 8001118:	6a1a      	ldr	r2, [r3, #32]
 800111a:	4bc4      	ldr	r3, [pc, #784]	; (800142c <HAL_RCC_OscConfig+0x67c>)
 800111c:	430a      	orrs	r2, r1
 800111e:	605a      	str	r2, [r3, #4]
         /* Adjusts the Multiple Speed oscillator (MSI) calibration value.*/
        __HAL_RCC_MSI_CALIBRATIONVALUE_ADJUST(RCC_OscInitStruct->MSICalibrationValue);
 8001120:	4bc2      	ldr	r3, [pc, #776]	; (800142c <HAL_RCC_OscConfig+0x67c>)
 8001122:	685b      	ldr	r3, [r3, #4]
 8001124:	021b      	lsls	r3, r3, #8
 8001126:	0a19      	lsrs	r1, r3, #8
 8001128:	687b      	ldr	r3, [r7, #4]
 800112a:	69db      	ldr	r3, [r3, #28]
 800112c:	061a      	lsls	r2, r3, #24
 800112e:	4bbf      	ldr	r3, [pc, #764]	; (800142c <HAL_RCC_OscConfig+0x67c>)
 8001130:	430a      	orrs	r2, r1
 8001132:	605a      	str	r2, [r3, #4]
 8001134:	e019      	b.n	800116a <HAL_RCC_OscConfig+0x3ba>
      }
      else
      {
        /* Disable the Multi Speed oscillator (MSI). */
        __HAL_RCC_MSI_DISABLE();
 8001136:	4bbd      	ldr	r3, [pc, #756]	; (800142c <HAL_RCC_OscConfig+0x67c>)
 8001138:	681a      	ldr	r2, [r3, #0]
 800113a:	4bbc      	ldr	r3, [pc, #752]	; (800142c <HAL_RCC_OscConfig+0x67c>)
 800113c:	49bd      	ldr	r1, [pc, #756]	; (8001434 <HAL_RCC_OscConfig+0x684>)
 800113e:	400a      	ands	r2, r1
 8001140:	601a      	str	r2, [r3, #0]

        /* Get Start Tick */
        tickstart = HAL_GetTick();
 8001142:	f7ff fbaf 	bl	80008a4 <HAL_GetTick>
 8001146:	0003      	movs	r3, r0
 8001148:	617b      	str	r3, [r7, #20]

        /* Wait till MSI is ready */
        while(__HAL_RCC_GET_FLAG(RCC_FLAG_MSIRDY) != 0U)
 800114a:	e008      	b.n	800115e <HAL_RCC_OscConfig+0x3ae>
        {
          if((HAL_GetTick() - tickstart) > MSI_TIMEOUT_VALUE)
 800114c:	f7ff fbaa 	bl	80008a4 <HAL_GetTick>
 8001150:	0002      	movs	r2, r0
 8001152:	697b      	ldr	r3, [r7, #20]
 8001154:	1ad3      	subs	r3, r2, r3
 8001156:	2b02      	cmp	r3, #2
 8001158:	d901      	bls.n	800115e <HAL_RCC_OscConfig+0x3ae>
          {
            return HAL_TIMEOUT;
 800115a:	2303      	movs	r3, #3
 800115c:	e19c      	b.n	8001498 <HAL_RCC_OscConfig+0x6e8>
        while(__HAL_RCC_GET_FLAG(RCC_FLAG_MSIRDY) != 0U)
 800115e:	4bb3      	ldr	r3, [pc, #716]	; (800142c <HAL_RCC_OscConfig+0x67c>)
 8001160:	681a      	ldr	r2, [r3, #0]
 8001162:	2380      	movs	r3, #128	; 0x80
 8001164:	009b      	lsls	r3, r3, #2
 8001166:	4013      	ands	r3, r2
 8001168:	d1f0      	bne.n	800114c <HAL_RCC_OscConfig+0x39c>
        }
      }
    }
  }
  /*------------------------------ LSI Configuration -------------------------*/
  if(((RCC_OscInitStruct->OscillatorType) & RCC_OSCILLATORTYPE_LSI) == RCC_OSCILLATORTYPE_LSI)
 800116a:	687b      	ldr	r3, [r7, #4]
 800116c:	681b      	ldr	r3, [r3, #0]
 800116e:	2208      	movs	r2, #8
 8001170:	4013      	ands	r3, r2
 8001172:	d036      	beq.n	80011e2 <HAL_RCC_OscConfig+0x432>
  {
    /* Check the parameters */
    assert_param(IS_RCC_LSI(RCC_OscInitStruct->LSIState));

    /* Check the LSI State */
    if(RCC_OscInitStruct->LSIState != RCC_LSI_OFF)
 8001174:	687b      	ldr	r3, [r7, #4]
 8001176:	695b      	ldr	r3, [r3, #20]
 8001178:	2b00      	cmp	r3, #0
 800117a:	d019      	beq.n	80011b0 <HAL_RCC_OscConfig+0x400>
    {
      /* Enable the Internal Low Speed oscillator (LSI). */
      __HAL_RCC_LSI_ENABLE();
 800117c:	4bab      	ldr	r3, [pc, #684]	; (800142c <HAL_RCC_OscConfig+0x67c>)
 800117e:	6d1a      	ldr	r2, [r3, #80]	; 0x50
 8001180:	4baa      	ldr	r3, [pc, #680]	; (800142c <HAL_RCC_OscConfig+0x67c>)
 8001182:	2101      	movs	r1, #1
 8001184:	430a      	orrs	r2, r1
 8001186:	651a      	str	r2, [r3, #80]	; 0x50

      /* Get Start Tick */
      tickstart = HAL_GetTick();
 8001188:	f7ff fb8c 	bl	80008a4 <HAL_GetTick>
 800118c:	0003      	movs	r3, r0
 800118e:	617b      	str	r3, [r7, #20]

      /* Wait till LSI is ready */
      while(__HAL_RCC_GET_FLAG(RCC_FLAG_LSIRDY) == 0U)
 8001190:	e008      	b.n	80011a4 <HAL_RCC_OscConfig+0x3f4>
      {
        if((HAL_GetTick() - tickstart ) > LSI_TIMEOUT_VALUE)
 8001192:	f7ff fb87 	bl	80008a4 <HAL_GetTick>
 8001196:	0002      	movs	r2, r0
 8001198:	697b      	ldr	r3, [r7, #20]
 800119a:	1ad3      	subs	r3, r2, r3
 800119c:	2b02      	cmp	r3, #2
 800119e:	d901      	bls.n	80011a4 <HAL_RCC_OscConfig+0x3f4>
        {
          return HAL_TIMEOUT;
 80011a0:	2303      	movs	r3, #3
 80011a2:	e179      	b.n	8001498 <HAL_RCC_OscConfig+0x6e8>
      while(__HAL_RCC_GET_FLAG(RCC_FLAG_LSIRDY) == 0U)
 80011a4:	4ba1      	ldr	r3, [pc, #644]	; (800142c <HAL_RCC_OscConfig+0x67c>)
 80011a6:	6d1b      	ldr	r3, [r3, #80]	; 0x50
 80011a8:	2202      	movs	r2, #2
 80011aa:	4013      	ands	r3, r2
 80011ac:	d0f1      	beq.n	8001192 <HAL_RCC_OscConfig+0x3e2>
 80011ae:	e018      	b.n	80011e2 <HAL_RCC_OscConfig+0x432>
      }
    }
    else
    {
      /* Disable the Internal Low Speed oscillator (LSI). */
      __HAL_RCC_LSI_DISABLE();
 80011b0:	4b9e      	ldr	r3, [pc, #632]	; (800142c <HAL_RCC_OscConfig+0x67c>)
 80011b2:	6d1a      	ldr	r2, [r3, #80]	; 0x50
 80011b4:	4b9d      	ldr	r3, [pc, #628]	; (800142c <HAL_RCC_OscConfig+0x67c>)
 80011b6:	2101      	movs	r1, #1
 80011b8:	438a      	bics	r2, r1
 80011ba:	651a      	str	r2, [r3, #80]	; 0x50

      /* Get Start Tick */
      tickstart = HAL_GetTick();
 80011bc:	f7ff fb72 	bl	80008a4 <HAL_GetTick>
 80011c0:	0003      	movs	r3, r0
 80011c2:	617b      	str	r3, [r7, #20]

      /* Wait till LSI is disabled */
      while(__HAL_RCC_GET_FLAG(RCC_FLAG_LSIRDY) != 0U)
 80011c4:	e008      	b.n	80011d8 <HAL_RCC_OscConfig+0x428>
      {
        if((HAL_GetTick() - tickstart ) > LSI_TIMEOUT_VALUE)
 80011c6:	f7ff fb6d 	bl	80008a4 <HAL_GetTick>
 80011ca:	0002      	movs	r2, r0
 80011cc:	697b      	ldr	r3, [r7, #20]
 80011ce:	1ad3      	subs	r3, r2, r3
 80011d0:	2b02      	cmp	r3, #2
 80011d2:	d901      	bls.n	80011d8 <HAL_RCC_OscConfig+0x428>
        {
          return HAL_TIMEOUT;
 80011d4:	2303      	movs	r3, #3
 80011d6:	e15f      	b.n	8001498 <HAL_RCC_OscConfig+0x6e8>
      while(__HAL_RCC_GET_FLAG(RCC_FLAG_LSIRDY) != 0U)
 80011d8:	4b94      	ldr	r3, [pc, #592]	; (800142c <HAL_RCC_OscConfig+0x67c>)
 80011da:	6d1b      	ldr	r3, [r3, #80]	; 0x50
 80011dc:	2202      	movs	r2, #2
 80011de:	4013      	ands	r3, r2
 80011e0:	d1f1      	bne.n	80011c6 <HAL_RCC_OscConfig+0x416>
        }
      }
    }
  }
  /*------------------------------ LSE Configuration -------------------------*/
  if(((RCC_OscInitStruct->OscillatorType) & RCC_OSCILLATORTYPE_LSE) == RCC_OSCILLATORTYPE_LSE)
 80011e2:	687b      	ldr	r3, [r7, #4]
 80011e4:	681b      	ldr	r3, [r3, #0]
 80011e6:	2204      	movs	r2, #4
 80011e8:	4013      	ands	r3, r2
 80011ea:	d100      	bne.n	80011ee <HAL_RCC_OscConfig+0x43e>
 80011ec:	e0af      	b.n	800134e <HAL_RCC_OscConfig+0x59e>
  {
    FlagStatus       pwrclkchanged = RESET;
 80011ee:	2323      	movs	r3, #35	; 0x23
 80011f0:	18fb      	adds	r3, r7, r3
 80011f2:	2200      	movs	r2, #0
 80011f4:	701a      	strb	r2, [r3, #0]
    /* Check the parameters */
    assert_param(IS_RCC_LSE(RCC_OscInitStruct->LSEState));

    /* Update LSE configuration in Backup Domain control register    */
    /* Requires to enable write access to Backup Domain of necessary */
    if(__HAL_RCC_PWR_IS_CLK_DISABLED())
 80011f6:	4b8d      	ldr	r3, [pc, #564]	; (800142c <HAL_RCC_OscConfig+0x67c>)
 80011f8:	6b9a      	ldr	r2, [r3, #56]	; 0x38
 80011fa:	2380      	movs	r3, #128	; 0x80
 80011fc:	055b      	lsls	r3, r3, #21
 80011fe:	4013      	ands	r3, r2
 8001200:	d10a      	bne.n	8001218 <HAL_RCC_OscConfig+0x468>
    {
      __HAL_RCC_PWR_CLK_ENABLE();
 8001202:	4b8a      	ldr	r3, [pc, #552]	; (800142c <HAL_RCC_OscConfig+0x67c>)
 8001204:	6b9a      	ldr	r2, [r3, #56]	; 0x38
 8001206:	4b89      	ldr	r3, [pc, #548]	; (800142c <HAL_RCC_OscConfig+0x67c>)
 8001208:	2180      	movs	r1, #128	; 0x80
 800120a:	0549      	lsls	r1, r1, #21
 800120c:	430a      	orrs	r2, r1
 800120e:	639a      	str	r2, [r3, #56]	; 0x38
      pwrclkchanged = SET;
 8001210:	2323      	movs	r3, #35	; 0x23
 8001212:	18fb      	adds	r3, r7, r3
 8001214:	2201      	movs	r2, #1
 8001216:	701a      	strb	r2, [r3, #0]
    }

    if(HAL_IS_BIT_CLR(PWR->CR, PWR_CR_DBP))
 8001218:	4b87      	ldr	r3, [pc, #540]	; (8001438 <HAL_RCC_OscConfig+0x688>)
 800121a:	681a      	ldr	r2, [r3, #0]
 800121c:	2380      	movs	r3, #128	; 0x80
 800121e:	005b      	lsls	r3, r3, #1
 8001220:	4013      	ands	r3, r2
 8001222:	d11a      	bne.n	800125a <HAL_RCC_OscConfig+0x4aa>
    {
      /* Enable write access to Backup domain */
      SET_BIT(PWR->CR, PWR_CR_DBP);
 8001224:	4b84      	ldr	r3, [pc, #528]	; (8001438 <HAL_RCC_OscConfig+0x688>)
 8001226:	681a      	ldr	r2, [r3, #0]
 8001228:	4b83      	ldr	r3, [pc, #524]	; (8001438 <HAL_RCC_OscConfig+0x688>)
 800122a:	2180      	movs	r1, #128	; 0x80
 800122c:	0049      	lsls	r1, r1, #1
 800122e:	430a      	orrs	r2, r1
 8001230:	601a      	str	r2, [r3, #0]

      /* Wait for Backup domain Write protection disable */
      tickstart = HAL_GetTick();
 8001232:	f7ff fb37 	bl	80008a4 <HAL_GetTick>
 8001236:	0003      	movs	r3, r0
 8001238:	617b      	str	r3, [r7, #20]

      while(HAL_IS_BIT_CLR(PWR->CR, PWR_CR_DBP))
 800123a:	e008      	b.n	800124e <HAL_RCC_OscConfig+0x49e>
      {
        if((HAL_GetTick() - tickstart) > RCC_DBP_TIMEOUT_VALUE)
 800123c:	f7ff fb32 	bl	80008a4 <HAL_GetTick>
 8001240:	0002      	movs	r2, r0
 8001242:	697b      	ldr	r3, [r7, #20]
 8001244:	1ad3      	subs	r3, r2, r3
 8001246:	2b64      	cmp	r3, #100	; 0x64
 8001248:	d901      	bls.n	800124e <HAL_RCC_OscConfig+0x49e>
        {
          return HAL_TIMEOUT;
 800124a:	2303      	movs	r3, #3
 800124c:	e124      	b.n	8001498 <HAL_RCC_OscConfig+0x6e8>
      while(HAL_IS_BIT_CLR(PWR->CR, PWR_CR_DBP))
 800124e:	4b7a      	ldr	r3, [pc, #488]	; (8001438 <HAL_RCC_OscConfig+0x688>)
 8001250:	681a      	ldr	r2, [r3, #0]
 8001252:	2380      	movs	r3, #128	; 0x80
 8001254:	005b      	lsls	r3, r3, #1
 8001256:	4013      	ands	r3, r2
 8001258:	d0f0      	beq.n	800123c <HAL_RCC_OscConfig+0x48c>
        }
      }
    }

    /* Set the new LSE configuration -----------------------------------------*/
    __HAL_RCC_LSE_CONFIG(RCC_OscInitStruct->LSEState);
 800125a:	687b      	ldr	r3, [r7, #4]
 800125c:	689a      	ldr	r2, [r3, #8]
 800125e:	2380      	movs	r3, #128	; 0x80
 8001260:	005b      	lsls	r3, r3, #1
 8001262:	429a      	cmp	r2, r3
 8001264:	d107      	bne.n	8001276 <HAL_RCC_OscConfig+0x4c6>
 8001266:	4b71      	ldr	r3, [pc, #452]	; (800142c <HAL_RCC_OscConfig+0x67c>)
 8001268:	6d1a      	ldr	r2, [r3, #80]	; 0x50
 800126a:	4b70      	ldr	r3, [pc, #448]	; (800142c <HAL_RCC_OscConfig+0x67c>)
 800126c:	2180      	movs	r1, #128	; 0x80
 800126e:	0049      	lsls	r1, r1, #1
 8001270:	430a      	orrs	r2, r1
 8001272:	651a      	str	r2, [r3, #80]	; 0x50
 8001274:	e031      	b.n	80012da <HAL_RCC_OscConfig+0x52a>
 8001276:	687b      	ldr	r3, [r7, #4]
 8001278:	689b      	ldr	r3, [r3, #8]
 800127a:	2b00      	cmp	r3, #0
 800127c:	d10c      	bne.n	8001298 <HAL_RCC_OscConfig+0x4e8>
 800127e:	4b6b      	ldr	r3, [pc, #428]	; (800142c <HAL_RCC_OscConfig+0x67c>)
 8001280:	6d1a      	ldr	r2, [r3, #80]	; 0x50
 8001282:	4b6a      	ldr	r3, [pc, #424]	; (800142c <HAL_RCC_OscConfig+0x67c>)
 8001284:	496b      	ldr	r1, [pc, #428]	; (8001434 <HAL_RCC_OscConfig+0x684>)
 8001286:	400a      	ands	r2, r1
 8001288:	651a      	str	r2, [r3, #80]	; 0x50
 800128a:	4b68      	ldr	r3, [pc, #416]	; (800142c <HAL_RCC_OscConfig+0x67c>)
 800128c:	6d1a      	ldr	r2, [r3, #80]	; 0x50
 800128e:	4b67      	ldr	r3, [pc, #412]	; (800142c <HAL_RCC_OscConfig+0x67c>)
 8001290:	496a      	ldr	r1, [pc, #424]	; (800143c <HAL_RCC_OscConfig+0x68c>)
 8001292:	400a      	ands	r2, r1
 8001294:	651a      	str	r2, [r3, #80]	; 0x50
 8001296:	e020      	b.n	80012da <HAL_RCC_OscConfig+0x52a>
 8001298:	687b      	ldr	r3, [r7, #4]
 800129a:	689a      	ldr	r2, [r3, #8]
 800129c:	23a0      	movs	r3, #160	; 0xa0
 800129e:	00db      	lsls	r3, r3, #3
 80012a0:	429a      	cmp	r2, r3
 80012a2:	d10e      	bne.n	80012c2 <HAL_RCC_OscConfig+0x512>
 80012a4:	4b61      	ldr	r3, [pc, #388]	; (800142c <HAL_RCC_OscConfig+0x67c>)
 80012a6:	6d1a      	ldr	r2, [r3, #80]	; 0x50
 80012a8:	4b60      	ldr	r3, [pc, #384]	; (800142c <HAL_RCC_OscConfig+0x67c>)
 80012aa:	2180      	movs	r1, #128	; 0x80
 80012ac:	00c9      	lsls	r1, r1, #3
 80012ae:	430a      	orrs	r2, r1
 80012b0:	651a      	str	r2, [r3, #80]	; 0x50
 80012b2:	4b5e      	ldr	r3, [pc, #376]	; (800142c <HAL_RCC_OscConfig+0x67c>)
 80012b4:	6d1a      	ldr	r2, [r3, #80]	; 0x50
 80012b6:	4b5d      	ldr	r3, [pc, #372]	; (800142c <HAL_RCC_OscConfig+0x67c>)
 80012b8:	2180      	movs	r1, #128	; 0x80
 80012ba:	0049      	lsls	r1, r1, #1
 80012bc:	430a      	orrs	r2, r1
 80012be:	651a      	str	r2, [r3, #80]	; 0x50
 80012c0:	e00b      	b.n	80012da <HAL_RCC_OscConfig+0x52a>
 80012c2:	4b5a      	ldr	r3, [pc, #360]	; (800142c <HAL_RCC_OscConfig+0x67c>)
 80012c4:	6d1a      	ldr	r2, [r3, #80]	; 0x50
 80012c6:	4b59      	ldr	r3, [pc, #356]	; (800142c <HAL_RCC_OscConfig+0x67c>)
 80012c8:	495a      	ldr	r1, [pc, #360]	; (8001434 <HAL_RCC_OscConfig+0x684>)
 80012ca:	400a      	ands	r2, r1
 80012cc:	651a      	str	r2, [r3, #80]	; 0x50
 80012ce:	4b57      	ldr	r3, [pc, #348]	; (800142c <HAL_RCC_OscConfig+0x67c>)
 80012d0:	6d1a      	ldr	r2, [r3, #80]	; 0x50
 80012d2:	4b56      	ldr	r3, [pc, #344]	; (800142c <HAL_RCC_OscConfig+0x67c>)
 80012d4:	4959      	ldr	r1, [pc, #356]	; (800143c <HAL_RCC_OscConfig+0x68c>)
 80012d6:	400a      	ands	r2, r1
 80012d8:	651a      	str	r2, [r3, #80]	; 0x50
    /* Check the LSE State */
    if(RCC_OscInitStruct->LSEState != RCC_LSE_OFF)
 80012da:	687b      	ldr	r3, [r7, #4]
 80012dc:	689b      	ldr	r3, [r3, #8]
 80012de:	2b00      	cmp	r3, #0
 80012e0:	d015      	beq.n	800130e <HAL_RCC_OscConfig+0x55e>
    {
      /* Get Start Tick */
      tickstart = HAL_GetTick();
 80012e2:	f7ff fadf 	bl	80008a4 <HAL_GetTick>
 80012e6:	0003      	movs	r3, r0
 80012e8:	617b      	str	r3, [r7, #20]

      /* Wait till LSE is ready */
      while(__HAL_RCC_GET_FLAG(RCC_FLAG_LSERDY) == 0U)
 80012ea:	e009      	b.n	8001300 <HAL_RCC_OscConfig+0x550>
      {
        if((HAL_GetTick() - tickstart ) > RCC_LSE_TIMEOUT_VALUE)
 80012ec:	f7ff fada 	bl	80008a4 <HAL_GetTick>
 80012f0:	0002      	movs	r2, r0
 80012f2:	697b      	ldr	r3, [r7, #20]
 80012f4:	1ad3      	subs	r3, r2, r3
 80012f6:	4a52      	ldr	r2, [pc, #328]	; (8001440 <HAL_RCC_OscConfig+0x690>)
 80012f8:	4293      	cmp	r3, r2
 80012fa:	d901      	bls.n	8001300 <HAL_RCC_OscConfig+0x550>
        {
          return HAL_TIMEOUT;
 80012fc:	2303      	movs	r3, #3
 80012fe:	e0cb      	b.n	8001498 <HAL_RCC_OscConfig+0x6e8>
      while(__HAL_RCC_GET_FLAG(RCC_FLAG_LSERDY) == 0U)
 8001300:	4b4a      	ldr	r3, [pc, #296]	; (800142c <HAL_RCC_OscConfig+0x67c>)
 8001302:	6d1a      	ldr	r2, [r3, #80]	; 0x50
 8001304:	2380      	movs	r3, #128	; 0x80
 8001306:	009b      	lsls	r3, r3, #2
 8001308:	4013      	ands	r3, r2
 800130a:	d0ef      	beq.n	80012ec <HAL_RCC_OscConfig+0x53c>
 800130c:	e014      	b.n	8001338 <HAL_RCC_OscConfig+0x588>
      }
    }
    else
    {
      /* Get Start Tick */
      tickstart = HAL_GetTick();
 800130e:	f7ff fac9 	bl	80008a4 <HAL_GetTick>
 8001312:	0003      	movs	r3, r0
 8001314:	617b      	str	r3, [r7, #20]

      /* Wait till LSE is disabled */
      while(__HAL_RCC_GET_FLAG(RCC_FLAG_LSERDY) != 0U)
 8001316:	e009      	b.n	800132c <HAL_RCC_OscConfig+0x57c>
      {
        if((HAL_GetTick() - tickstart ) > RCC_LSE_TIMEOUT_VALUE)
 8001318:	f7ff fac4 	bl	80008a4 <HAL_GetTick>
 800131c:	0002      	movs	r2, r0
 800131e:	697b      	ldr	r3, [r7, #20]
 8001320:	1ad3      	subs	r3, r2, r3
 8001322:	4a47      	ldr	r2, [pc, #284]	; (8001440 <HAL_RCC_OscConfig+0x690>)
 8001324:	4293      	cmp	r3, r2
 8001326:	d901      	bls.n	800132c <HAL_RCC_OscConfig+0x57c>
        {
          return HAL_TIMEOUT;
 8001328:	2303      	movs	r3, #3
 800132a:	e0b5      	b.n	8001498 <HAL_RCC_OscConfig+0x6e8>
      while(__HAL_RCC_GET_FLAG(RCC_FLAG_LSERDY) != 0U)
 800132c:	4b3f      	ldr	r3, [pc, #252]	; (800142c <HAL_RCC_OscConfig+0x67c>)
 800132e:	6d1a      	ldr	r2, [r3, #80]	; 0x50
 8001330:	2380      	movs	r3, #128	; 0x80
 8001332:	009b      	lsls	r3, r3, #2
 8001334:	4013      	ands	r3, r2
 8001336:	d1ef      	bne.n	8001318 <HAL_RCC_OscConfig+0x568>
        }
      }
    }

    /* Require to disable power clock if necessary */
    if(pwrclkchanged == SET)
 8001338:	2323      	movs	r3, #35	; 0x23
 800133a:	18fb      	adds	r3, r7, r3
 800133c:	781b      	ldrb	r3, [r3, #0]
 800133e:	2b01      	cmp	r3, #1
 8001340:	d105      	bne.n	800134e <HAL_RCC_OscConfig+0x59e>
    {
      __HAL_RCC_PWR_CLK_DISABLE();
 8001342:	4b3a      	ldr	r3, [pc, #232]	; (800142c <HAL_RCC_OscConfig+0x67c>)
 8001344:	6b9a      	ldr	r2, [r3, #56]	; 0x38
 8001346:	4b39      	ldr	r3, [pc, #228]	; (800142c <HAL_RCC_OscConfig+0x67c>)
 8001348:	493e      	ldr	r1, [pc, #248]	; (8001444 <HAL_RCC_OscConfig+0x694>)
 800134a:	400a      	ands	r2, r1
 800134c:	639a      	str	r2, [r3, #56]	; 0x38
#endif /* RCC_HSI48_SUPPORT */

  /*-------------------------------- PLL Configuration -----------------------*/
  /* Check the parameters */
  assert_param(IS_RCC_PLL(RCC_OscInitStruct->PLL.PLLState));
  if ((RCC_OscInitStruct->PLL.PLLState) != RCC_PLL_NONE)
 800134e:	687b      	ldr	r3, [r7, #4]
 8001350:	6a5b      	ldr	r3, [r3, #36]	; 0x24
 8001352:	2b00      	cmp	r3, #0
 8001354:	d100      	bne.n	8001358 <HAL_RCC_OscConfig+0x5a8>
 8001356:	e09e      	b.n	8001496 <HAL_RCC_OscConfig+0x6e6>
  {
    /* Check if the PLL is used as system clock or not */
    if(sysclk_source != RCC_SYSCLKSOURCE_STATUS_PLLCLK)
 8001358:	69fb      	ldr	r3, [r7, #28]
 800135a:	2b0c      	cmp	r3, #12
 800135c:	d100      	bne.n	8001360 <HAL_RCC_OscConfig+0x5b0>
 800135e:	e077      	b.n	8001450 <HAL_RCC_OscConfig+0x6a0>
    {
      if((RCC_OscInitStruct->PLL.PLLState) == RCC_PLL_ON)
 8001360:	687b      	ldr	r3, [r7, #4]
 8001362:	6a5b      	ldr	r3, [r3, #36]	; 0x24
 8001364:	2b02      	cmp	r3, #2
 8001366:	d145      	bne.n	80013f4 <HAL_RCC_OscConfig+0x644>
        assert_param(IS_RCC_PLLSOURCE(RCC_OscInitStruct->PLL.PLLSource));
        assert_param(IS_RCC_PLL_MUL(RCC_OscInitStruct->PLL.PLLMUL));
        assert_param(IS_RCC_PLL_DIV(RCC_OscInitStruct->PLL.PLLDIV));

        /* Disable the main PLL. */
        __HAL_RCC_PLL_DISABLE();
 8001368:	4b30      	ldr	r3, [pc, #192]	; (800142c <HAL_RCC_OscConfig+0x67c>)
 800136a:	681a      	ldr	r2, [r3, #0]
 800136c:	4b2f      	ldr	r3, [pc, #188]	; (800142c <HAL_RCC_OscConfig+0x67c>)
 800136e:	4936      	ldr	r1, [pc, #216]	; (8001448 <HAL_RCC_OscConfig+0x698>)
 8001370:	400a      	ands	r2, r1
 8001372:	601a      	str	r2, [r3, #0]

        /* Get Start Tick */
        tickstart = HAL_GetTick();
 8001374:	f7ff fa96 	bl	80008a4 <HAL_GetTick>
 8001378:	0003      	movs	r3, r0
 800137a:	617b      	str	r3, [r7, #20]

        /* Wait till PLL is disabled */
        while(__HAL_RCC_GET_FLAG(RCC_FLAG_PLLRDY)  != 0U)
 800137c:	e008      	b.n	8001390 <HAL_RCC_OscConfig+0x5e0>
        {
          if((HAL_GetTick() - tickstart ) > PLL_TIMEOUT_VALUE)
 800137e:	f7ff fa91 	bl	80008a4 <HAL_GetTick>
 8001382:	0002      	movs	r2, r0
 8001384:	697b      	ldr	r3, [r7, #20]
 8001386:	1ad3      	subs	r3, r2, r3
 8001388:	2b02      	cmp	r3, #2
 800138a:	d901      	bls.n	8001390 <HAL_RCC_OscConfig+0x5e0>
          {
            return HAL_TIMEOUT;
 800138c:	2303      	movs	r3, #3
 800138e:	e083      	b.n	8001498 <HAL_RCC_OscConfig+0x6e8>
        while(__HAL_RCC_GET_FLAG(RCC_FLAG_PLLRDY)  != 0U)
 8001390:	4b26      	ldr	r3, [pc, #152]	; (800142c <HAL_RCC_OscConfig+0x67c>)
 8001392:	681a      	ldr	r2, [r3, #0]
 8001394:	2380      	movs	r3, #128	; 0x80
 8001396:	049b      	lsls	r3, r3, #18
 8001398:	4013      	ands	r3, r2
 800139a:	d1f0      	bne.n	800137e <HAL_RCC_OscConfig+0x5ce>
          }
        }

        /* Configure the main PLL clock source, multiplication and division factors. */
        __HAL_RCC_PLL_CONFIG(RCC_OscInitStruct->PLL.PLLSource,
 800139c:	4b23      	ldr	r3, [pc, #140]	; (800142c <HAL_RCC_OscConfig+0x67c>)
 800139e:	68db      	ldr	r3, [r3, #12]
 80013a0:	4a2a      	ldr	r2, [pc, #168]	; (800144c <HAL_RCC_OscConfig+0x69c>)
 80013a2:	4013      	ands	r3, r2
 80013a4:	0019      	movs	r1, r3
 80013a6:	687b      	ldr	r3, [r7, #4]
 80013a8:	6a9a      	ldr	r2, [r3, #40]	; 0x28
 80013aa:	687b      	ldr	r3, [r7, #4]
 80013ac:	6adb      	ldr	r3, [r3, #44]	; 0x2c
 80013ae:	431a      	orrs	r2, r3
 80013b0:	687b      	ldr	r3, [r7, #4]
 80013b2:	6b1b      	ldr	r3, [r3, #48]	; 0x30
 80013b4:	431a      	orrs	r2, r3
 80013b6:	4b1d      	ldr	r3, [pc, #116]	; (800142c <HAL_RCC_OscConfig+0x67c>)
 80013b8:	430a      	orrs	r2, r1
 80013ba:	60da      	str	r2, [r3, #12]
                             RCC_OscInitStruct->PLL.PLLMUL,
                             RCC_OscInitStruct->PLL.PLLDIV);
        /* Enable the main PLL. */
        __HAL_RCC_PLL_ENABLE();
 80013bc:	4b1b      	ldr	r3, [pc, #108]	; (800142c <HAL_RCC_OscConfig+0x67c>)
 80013be:	681a      	ldr	r2, [r3, #0]
 80013c0:	4b1a      	ldr	r3, [pc, #104]	; (800142c <HAL_RCC_OscConfig+0x67c>)
 80013c2:	2180      	movs	r1, #128	; 0x80
 80013c4:	0449      	lsls	r1, r1, #17
 80013c6:	430a      	orrs	r2, r1
 80013c8:	601a      	str	r2, [r3, #0]

        /* Get Start Tick */
        tickstart = HAL_GetTick();
 80013ca:	f7ff fa6b 	bl	80008a4 <HAL_GetTick>
 80013ce:	0003      	movs	r3, r0
 80013d0:	617b      	str	r3, [r7, #20]

        /* Wait till PLL is ready */
        while(__HAL_RCC_GET_FLAG(RCC_FLAG_PLLRDY)  == 0U)
 80013d2:	e008      	b.n	80013e6 <HAL_RCC_OscConfig+0x636>
        {
          if((HAL_GetTick() - tickstart ) > PLL_TIMEOUT_VALUE)
 80013d4:	f7ff fa66 	bl	80008a4 <HAL_GetTick>
 80013d8:	0002      	movs	r2, r0
 80013da:	697b      	ldr	r3, [r7, #20]
 80013dc:	1ad3      	subs	r3, r2, r3
 80013de:	2b02      	cmp	r3, #2
 80013e0:	d901      	bls.n	80013e6 <HAL_RCC_OscConfig+0x636>
          {
            return HAL_TIMEOUT;
 80013e2:	2303      	movs	r3, #3
 80013e4:	e058      	b.n	8001498 <HAL_RCC_OscConfig+0x6e8>
        while(__HAL_RCC_GET_FLAG(RCC_FLAG_PLLRDY)  == 0U)
 80013e6:	4b11      	ldr	r3, [pc, #68]	; (800142c <HAL_RCC_OscConfig+0x67c>)
 80013e8:	681a      	ldr	r2, [r3, #0]
 80013ea:	2380      	movs	r3, #128	; 0x80
 80013ec:	049b      	lsls	r3, r3, #18
 80013ee:	4013      	ands	r3, r2
 80013f0:	d0f0      	beq.n	80013d4 <HAL_RCC_OscConfig+0x624>
 80013f2:	e050      	b.n	8001496 <HAL_RCC_OscConfig+0x6e6>
        }
      }
      else
      {
        /* Disable the main PLL. */
        __HAL_RCC_PLL_DISABLE();
 80013f4:	4b0d      	ldr	r3, [pc, #52]	; (800142c <HAL_RCC_OscConfig+0x67c>)
 80013f6:	681a      	ldr	r2, [r3, #0]
 80013f8:	4b0c      	ldr	r3, [pc, #48]	; (800142c <HAL_RCC_OscConfig+0x67c>)
 80013fa:	4913      	ldr	r1, [pc, #76]	; (8001448 <HAL_RCC_OscConfig+0x698>)
 80013fc:	400a      	ands	r2, r1
 80013fe:	601a      	str	r2, [r3, #0]

        /* Get Start Tick */
        tickstart = HAL_GetTick();
 8001400:	f7ff fa50 	bl	80008a4 <HAL_GetTick>
 8001404:	0003      	movs	r3, r0
 8001406:	617b      	str	r3, [r7, #20]

        /* Wait till PLL is disabled */
        while(__HAL_RCC_GET_FLAG(RCC_FLAG_PLLRDY)  != 0U)
 8001408:	e008      	b.n	800141c <HAL_RCC_OscConfig+0x66c>
        {
          if((HAL_GetTick() - tickstart ) > PLL_TIMEOUT_VALUE)
 800140a:	f7ff fa4b 	bl	80008a4 <HAL_GetTick>
 800140e:	0002      	movs	r2, r0
 8001410:	697b      	ldr	r3, [r7, #20]
 8001412:	1ad3      	subs	r3, r2, r3
 8001414:	2b02      	cmp	r3, #2
 8001416:	d901      	bls.n	800141c <HAL_RCC_OscConfig+0x66c>
          {
            return HAL_TIMEOUT;
 8001418:	2303      	movs	r3, #3
 800141a:	e03d      	b.n	8001498 <HAL_RCC_OscConfig+0x6e8>
        while(__HAL_RCC_GET_FLAG(RCC_FLAG_PLLRDY)  != 0U)
 800141c:	4b03      	ldr	r3, [pc, #12]	; (800142c <HAL_RCC_OscConfig+0x67c>)
 800141e:	681a      	ldr	r2, [r3, #0]
 8001420:	2380      	movs	r3, #128	; 0x80
 8001422:	049b      	lsls	r3, r3, #18
 8001424:	4013      	ands	r3, r2
 8001426:	d1f0      	bne.n	800140a <HAL_RCC_OscConfig+0x65a>
 8001428:	e035      	b.n	8001496 <HAL_RCC_OscConfig+0x6e6>
 800142a:	46c0      	nop			; (mov r8, r8)
 800142c:	40021000 	.word	0x40021000
 8001430:	ffff1fff 	.word	0xffff1fff
 8001434:	fffffeff 	.word	0xfffffeff
 8001438:	40007000 	.word	0x40007000
 800143c:	fffffbff 	.word	0xfffffbff
 8001440:	00001388 	.word	0x00001388
 8001444:	efffffff 	.word	0xefffffff
 8001448:	feffffff 	.word	0xfeffffff
 800144c:	ff02ffff 	.word	0xff02ffff
      }
    }
    else
    {
      /* Check if there is a request to disable the PLL used as System clock source */
      if((RCC_OscInitStruct->PLL.PLLState) == RCC_PLL_OFF)
 8001450:	687b      	ldr	r3, [r7, #4]
 8001452:	6a5b      	ldr	r3, [r3, #36]	; 0x24
 8001454:	2b01      	cmp	r3, #1
 8001456:	d101      	bne.n	800145c <HAL_RCC_OscConfig+0x6ac>
      {
        return HAL_ERROR;
 8001458:	2301      	movs	r3, #1
 800145a:	e01d      	b.n	8001498 <HAL_RCC_OscConfig+0x6e8>
      }
      else
      {
        /* Do not return HAL_ERROR if request repeats the current configuration */
        pll_config = RCC->CFGR;
 800145c:	4b10      	ldr	r3, [pc, #64]	; (80014a0 <HAL_RCC_OscConfig+0x6f0>)
 800145e:	68db      	ldr	r3, [r3, #12]
 8001460:	61bb      	str	r3, [r7, #24]
        if((READ_BIT(pll_config, RCC_CFGR_PLLSRC) != RCC_OscInitStruct->PLL.PLLSource) ||
 8001462:	69ba      	ldr	r2, [r7, #24]
 8001464:	2380      	movs	r3, #128	; 0x80
 8001466:	025b      	lsls	r3, r3, #9
 8001468:	401a      	ands	r2, r3
 800146a:	687b      	ldr	r3, [r7, #4]
 800146c:	6a9b      	ldr	r3, [r3, #40]	; 0x28
 800146e:	429a      	cmp	r2, r3
 8001470:	d10f      	bne.n	8001492 <HAL_RCC_OscConfig+0x6e2>
           (READ_BIT(pll_config, RCC_CFGR_PLLMUL) != RCC_OscInitStruct->PLL.PLLMUL) ||
 8001472:	69ba      	ldr	r2, [r7, #24]
 8001474:	23f0      	movs	r3, #240	; 0xf0
 8001476:	039b      	lsls	r3, r3, #14
 8001478:	401a      	ands	r2, r3
 800147a:	687b      	ldr	r3, [r7, #4]
 800147c:	6adb      	ldr	r3, [r3, #44]	; 0x2c
        if((READ_BIT(pll_config, RCC_CFGR_PLLSRC) != RCC_OscInitStruct->PLL.PLLSource) ||
 800147e:	429a      	cmp	r2, r3
 8001480:	d107      	bne.n	8001492 <HAL_RCC_OscConfig+0x6e2>
           (READ_BIT(pll_config, RCC_CFGR_PLLDIV) != RCC_OscInitStruct->PLL.PLLDIV))
 8001482:	69ba      	ldr	r2, [r7, #24]
 8001484:	23c0      	movs	r3, #192	; 0xc0
 8001486:	041b      	lsls	r3, r3, #16
 8001488:	401a      	ands	r2, r3
 800148a:	687b      	ldr	r3, [r7, #4]
 800148c:	6b1b      	ldr	r3, [r3, #48]	; 0x30
           (READ_BIT(pll_config, RCC_CFGR_PLLMUL) != RCC_OscInitStruct->PLL.PLLMUL) ||
 800148e:	429a      	cmp	r2, r3
 8001490:	d001      	beq.n	8001496 <HAL_RCC_OscConfig+0x6e6>
        {
          return HAL_ERROR;
 8001492:	2301      	movs	r3, #1
 8001494:	e000      	b.n	8001498 <HAL_RCC_OscConfig+0x6e8>
        }
      }
    }
  }

  return HAL_OK;
 8001496:	2300      	movs	r3, #0
}
 8001498:	0018      	movs	r0, r3
 800149a:	46bd      	mov	sp, r7
 800149c:	b00a      	add	sp, #40	; 0x28
 800149e:	bdb0      	pop	{r4, r5, r7, pc}
 80014a0:	40021000 	.word	0x40021000

080014a4 <HAL_RCC_ClockConfig>:
  *         HPRE[3:0] bits to ensure that HCLK not exceed the maximum allowed frequency
  *         (for more details refer to section above "Initialization/de-initialization functions")
  * @retval HAL status
  */
HAL_StatusTypeDef HAL_RCC_ClockConfig(RCC_ClkInitTypeDef  *RCC_ClkInitStruct, uint32_t FLatency)
{
 80014a4:	b5b0      	push	{r4, r5, r7, lr}
 80014a6:	b084      	sub	sp, #16
 80014a8:	af00      	add	r7, sp, #0
 80014aa:	6078      	str	r0, [r7, #4]
 80014ac:	6039      	str	r1, [r7, #0]
  uint32_t tickstart;
  HAL_StatusTypeDef status;

  /* Check the parameters */
  if(RCC_ClkInitStruct == NULL)
 80014ae:	687b      	ldr	r3, [r7, #4]
 80014b0:	2b00      	cmp	r3, #0
 80014b2:	d101      	bne.n	80014b8 <HAL_RCC_ClockConfig+0x14>
  {
    return HAL_ERROR;
 80014b4:	2301      	movs	r3, #1
 80014b6:	e10d      	b.n	80016d4 <HAL_RCC_ClockConfig+0x230>
  /* To correctly read data from FLASH memory, the number of wait states (LATENCY)
  must be correctly programmed according to the frequency of the CPU clock
  (HCLK) and the supply voltage of the device. */

  /* Increasing the number of wait states because of higher CPU frequency */
  if(FLatency > __HAL_FLASH_GET_LATENCY())
 80014b8:	4b88      	ldr	r3, [pc, #544]	; (80016dc <HAL_RCC_ClockConfig+0x238>)
 80014ba:	681b      	ldr	r3, [r3, #0]
 80014bc:	2201      	movs	r2, #1
 80014be:	4013      	ands	r3, r2
 80014c0:	683a      	ldr	r2, [r7, #0]
 80014c2:	429a      	cmp	r2, r3
 80014c4:	d911      	bls.n	80014ea <HAL_RCC_ClockConfig+0x46>
  {
    /* Program the new number of wait states to the LATENCY bits in the FLASH_ACR register */
    __HAL_FLASH_SET_LATENCY(FLatency);
 80014c6:	4b85      	ldr	r3, [pc, #532]	; (80016dc <HAL_RCC_ClockConfig+0x238>)
 80014c8:	681b      	ldr	r3, [r3, #0]
 80014ca:	2201      	movs	r2, #1
 80014cc:	4393      	bics	r3, r2
 80014ce:	0019      	movs	r1, r3
 80014d0:	4b82      	ldr	r3, [pc, #520]	; (80016dc <HAL_RCC_ClockConfig+0x238>)
 80014d2:	683a      	ldr	r2, [r7, #0]
 80014d4:	430a      	orrs	r2, r1
 80014d6:	601a      	str	r2, [r3, #0]

    /* Check that the new number of wait states is taken into account to access the Flash
    memory by reading the FLASH_ACR register */
    if(__HAL_FLASH_GET_LATENCY() != FLatency)
 80014d8:	4b80      	ldr	r3, [pc, #512]	; (80016dc <HAL_RCC_ClockConfig+0x238>)
 80014da:	681b      	ldr	r3, [r3, #0]
 80014dc:	2201      	movs	r2, #1
 80014de:	4013      	ands	r3, r2
 80014e0:	683a      	ldr	r2, [r7, #0]
 80014e2:	429a      	cmp	r2, r3
 80014e4:	d001      	beq.n	80014ea <HAL_RCC_ClockConfig+0x46>
    {
      return HAL_ERROR;
 80014e6:	2301      	movs	r3, #1
 80014e8:	e0f4      	b.n	80016d4 <HAL_RCC_ClockConfig+0x230>
    }
  }

  /*-------------------------- HCLK Configuration --------------------------*/
  if(((RCC_ClkInitStruct->ClockType) & RCC_CLOCKTYPE_HCLK) == RCC_CLOCKTYPE_HCLK)
 80014ea:	687b      	ldr	r3, [r7, #4]
 80014ec:	681b      	ldr	r3, [r3, #0]
 80014ee:	2202      	movs	r2, #2
 80014f0:	4013      	ands	r3, r2
 80014f2:	d009      	beq.n	8001508 <HAL_RCC_ClockConfig+0x64>
  {
    assert_param(IS_RCC_HCLK(RCC_ClkInitStruct->AHBCLKDivider));
    MODIFY_REG(RCC->CFGR, RCC_CFGR_HPRE, RCC_ClkInitStruct->AHBCLKDivider);
 80014f4:	4b7a      	ldr	r3, [pc, #488]	; (80016e0 <HAL_RCC_ClockConfig+0x23c>)
 80014f6:	68db      	ldr	r3, [r3, #12]
 80014f8:	22f0      	movs	r2, #240	; 0xf0
 80014fa:	4393      	bics	r3, r2
 80014fc:	0019      	movs	r1, r3
 80014fe:	687b      	ldr	r3, [r7, #4]
 8001500:	689a      	ldr	r2, [r3, #8]
 8001502:	4b77      	ldr	r3, [pc, #476]	; (80016e0 <HAL_RCC_ClockConfig+0x23c>)
 8001504:	430a      	orrs	r2, r1
 8001506:	60da      	str	r2, [r3, #12]
  }

  /*------------------------- SYSCLK Configuration ---------------------------*/
  if(((RCC_ClkInitStruct->ClockType) & RCC_CLOCKTYPE_SYSCLK) == RCC_CLOCKTYPE_SYSCLK)
 8001508:	687b      	ldr	r3, [r7, #4]
 800150a:	681b      	ldr	r3, [r3, #0]
 800150c:	2201      	movs	r2, #1
 800150e:	4013      	ands	r3, r2
 8001510:	d100      	bne.n	8001514 <HAL_RCC_ClockConfig+0x70>
 8001512:	e089      	b.n	8001628 <HAL_RCC_ClockConfig+0x184>
  {
    assert_param(IS_RCC_SYSCLKSOURCE(RCC_ClkInitStruct->SYSCLKSource));

    /* HSE is selected as System Clock Source */
    if(RCC_ClkInitStruct->SYSCLKSource == RCC_SYSCLKSOURCE_HSE)
 8001514:	687b      	ldr	r3, [r7, #4]
 8001516:	685b      	ldr	r3, [r3, #4]
 8001518:	2b02      	cmp	r3, #2
 800151a:	d107      	bne.n	800152c <HAL_RCC_ClockConfig+0x88>
    {
      /* Check the HSE ready flag */
      if(__HAL_RCC_GET_FLAG(RCC_FLAG_HSERDY) == 0U)
 800151c:	4b70      	ldr	r3, [pc, #448]	; (80016e0 <HAL_RCC_ClockConfig+0x23c>)
 800151e:	681a      	ldr	r2, [r3, #0]
 8001520:	2380      	movs	r3, #128	; 0x80
 8001522:	029b      	lsls	r3, r3, #10
 8001524:	4013      	ands	r3, r2
 8001526:	d120      	bne.n	800156a <HAL_RCC_ClockConfig+0xc6>
      {
        return HAL_ERROR;
 8001528:	2301      	movs	r3, #1
 800152a:	e0d3      	b.n	80016d4 <HAL_RCC_ClockConfig+0x230>
      }
    }
    /* PLL is selected as System Clock Source */
    else if(RCC_ClkInitStruct->SYSCLKSource == RCC_SYSCLKSOURCE_PLLCLK)
 800152c:	687b      	ldr	r3, [r7, #4]
 800152e:	685b      	ldr	r3, [r3, #4]
 8001530:	2b03      	cmp	r3, #3
 8001532:	d107      	bne.n	8001544 <HAL_RCC_ClockConfig+0xa0>
    {
      /* Check the PLL ready flag */
      if(__HAL_RCC_GET_FLAG(RCC_FLAG_PLLRDY) == 0U)
 8001534:	4b6a      	ldr	r3, [pc, #424]	; (80016e0 <HAL_RCC_ClockConfig+0x23c>)
 8001536:	681a      	ldr	r2, [r3, #0]
 8001538:	2380      	movs	r3, #128	; 0x80
 800153a:	049b      	lsls	r3, r3, #18
 800153c:	4013      	ands	r3, r2
 800153e:	d114      	bne.n	800156a <HAL_RCC_ClockConfig+0xc6>
      {
        return HAL_ERROR;
 8001540:	2301      	movs	r3, #1
 8001542:	e0c7      	b.n	80016d4 <HAL_RCC_ClockConfig+0x230>
      }
    }
    /* HSI is selected as System Clock Source */
    else if(RCC_ClkInitStruct->SYSCLKSource == RCC_SYSCLKSOURCE_HSI)
 8001544:	687b      	ldr	r3, [r7, #4]
 8001546:	685b      	ldr	r3, [r3, #4]
 8001548:	2b01      	cmp	r3, #1
 800154a:	d106      	bne.n	800155a <HAL_RCC_ClockConfig+0xb6>
    {
      /* Check the HSI ready flag */
      if(__HAL_RCC_GET_FLAG(RCC_FLAG_HSIRDY) == 0U)
 800154c:	4b64      	ldr	r3, [pc, #400]	; (80016e0 <HAL_RCC_ClockConfig+0x23c>)
 800154e:	681b      	ldr	r3, [r3, #0]
 8001550:	2204      	movs	r2, #4
 8001552:	4013      	ands	r3, r2
 8001554:	d109      	bne.n	800156a <HAL_RCC_ClockConfig+0xc6>
      {
        return HAL_ERROR;
 8001556:	2301      	movs	r3, #1
 8001558:	e0bc      	b.n	80016d4 <HAL_RCC_ClockConfig+0x230>
    }
    /* MSI is selected as System Clock Source */
    else
    {
      /* Check the MSI ready flag */
      if(__HAL_RCC_GET_FLAG(RCC_FLAG_MSIRDY) == 0U)
 800155a:	4b61      	ldr	r3, [pc, #388]	; (80016e0 <HAL_RCC_ClockConfig+0x23c>)
 800155c:	681a      	ldr	r2, [r3, #0]
 800155e:	2380      	movs	r3, #128	; 0x80
 8001560:	009b      	lsls	r3, r3, #2
 8001562:	4013      	ands	r3, r2
 8001564:	d101      	bne.n	800156a <HAL_RCC_ClockConfig+0xc6>
      {
        return HAL_ERROR;
 8001566:	2301      	movs	r3, #1
 8001568:	e0b4      	b.n	80016d4 <HAL_RCC_ClockConfig+0x230>
      }
    }
    __HAL_RCC_SYSCLK_CONFIG(RCC_ClkInitStruct->SYSCLKSource);
 800156a:	4b5d      	ldr	r3, [pc, #372]	; (80016e0 <HAL_RCC_ClockConfig+0x23c>)
 800156c:	68db      	ldr	r3, [r3, #12]
 800156e:	2203      	movs	r2, #3
 8001570:	4393      	bics	r3, r2
 8001572:	0019      	movs	r1, r3
 8001574:	687b      	ldr	r3, [r7, #4]
 8001576:	685a      	ldr	r2, [r3, #4]
 8001578:	4b59      	ldr	r3, [pc, #356]	; (80016e0 <HAL_RCC_ClockConfig+0x23c>)
 800157a:	430a      	orrs	r2, r1
 800157c:	60da      	str	r2, [r3, #12]

    /* Get Start Tick */
    tickstart = HAL_GetTick();
 800157e:	f7ff f991 	bl	80008a4 <HAL_GetTick>
 8001582:	0003      	movs	r3, r0
 8001584:	60fb      	str	r3, [r7, #12]

    if(RCC_ClkInitStruct->SYSCLKSource == RCC_SYSCLKSOURCE_HSE)
 8001586:	687b      	ldr	r3, [r7, #4]
 8001588:	685b      	ldr	r3, [r3, #4]
 800158a:	2b02      	cmp	r3, #2
 800158c:	d111      	bne.n	80015b2 <HAL_RCC_ClockConfig+0x10e>
    {
      while (__HAL_RCC_GET_SYSCLK_SOURCE() != RCC_SYSCLKSOURCE_STATUS_HSE)
 800158e:	e009      	b.n	80015a4 <HAL_RCC_ClockConfig+0x100>
      {
        if((HAL_GetTick() - tickstart ) > CLOCKSWITCH_TIMEOUT_VALUE)
 8001590:	f7ff f988 	bl	80008a4 <HAL_GetTick>
 8001594:	0002      	movs	r2, r0
 8001596:	68fb      	ldr	r3, [r7, #12]
 8001598:	1ad3      	subs	r3, r2, r3
 800159a:	4a52      	ldr	r2, [pc, #328]	; (80016e4 <HAL_RCC_ClockConfig+0x240>)
 800159c:	4293      	cmp	r3, r2
 800159e:	d901      	bls.n	80015a4 <HAL_RCC_ClockConfig+0x100>
        {
          return HAL_TIMEOUT;
 80015a0:	2303      	movs	r3, #3
 80015a2:	e097      	b.n	80016d4 <HAL_RCC_ClockConfig+0x230>
      while (__HAL_RCC_GET_SYSCLK_SOURCE() != RCC_SYSCLKSOURCE_STATUS_HSE)
 80015a4:	4b4e      	ldr	r3, [pc, #312]	; (80016e0 <HAL_RCC_ClockConfig+0x23c>)
 80015a6:	68db      	ldr	r3, [r3, #12]
 80015a8:	220c      	movs	r2, #12
 80015aa:	4013      	ands	r3, r2
 80015ac:	2b08      	cmp	r3, #8
 80015ae:	d1ef      	bne.n	8001590 <HAL_RCC_ClockConfig+0xec>
 80015b0:	e03a      	b.n	8001628 <HAL_RCC_ClockConfig+0x184>
        }
      }
    }
    else if(RCC_ClkInitStruct->SYSCLKSource == RCC_SYSCLKSOURCE_PLLCLK)
 80015b2:	687b      	ldr	r3, [r7, #4]
 80015b4:	685b      	ldr	r3, [r3, #4]
 80015b6:	2b03      	cmp	r3, #3
 80015b8:	d111      	bne.n	80015de <HAL_RCC_ClockConfig+0x13a>
    {
      while (__HAL_RCC_GET_SYSCLK_SOURCE() != RCC_SYSCLKSOURCE_STATUS_PLLCLK)
 80015ba:	e009      	b.n	80015d0 <HAL_RCC_ClockConfig+0x12c>
      {
        if((HAL_GetTick() - tickstart ) > CLOCKSWITCH_TIMEOUT_VALUE)
 80015bc:	f7ff f972 	bl	80008a4 <HAL_GetTick>
 80015c0:	0002      	movs	r2, r0
 80015c2:	68fb      	ldr	r3, [r7, #12]
 80015c4:	1ad3      	subs	r3, r2, r3
 80015c6:	4a47      	ldr	r2, [pc, #284]	; (80016e4 <HAL_RCC_ClockConfig+0x240>)
 80015c8:	4293      	cmp	r3, r2
 80015ca:	d901      	bls.n	80015d0 <HAL_RCC_ClockConfig+0x12c>
        {
          return HAL_TIMEOUT;
 80015cc:	2303      	movs	r3, #3
 80015ce:	e081      	b.n	80016d4 <HAL_RCC_ClockConfig+0x230>
      while (__HAL_RCC_GET_SYSCLK_SOURCE() != RCC_SYSCLKSOURCE_STATUS_PLLCLK)
 80015d0:	4b43      	ldr	r3, [pc, #268]	; (80016e0 <HAL_RCC_ClockConfig+0x23c>)
 80015d2:	68db      	ldr	r3, [r3, #12]
 80015d4:	220c      	movs	r2, #12
 80015d6:	4013      	ands	r3, r2
 80015d8:	2b0c      	cmp	r3, #12
 80015da:	d1ef      	bne.n	80015bc <HAL_RCC_ClockConfig+0x118>
 80015dc:	e024      	b.n	8001628 <HAL_RCC_ClockConfig+0x184>
        }
      }
    }
    else if(RCC_ClkInitStruct->SYSCLKSource == RCC_SYSCLKSOURCE_HSI)
 80015de:	687b      	ldr	r3, [r7, #4]
 80015e0:	685b      	ldr	r3, [r3, #4]
 80015e2:	2b01      	cmp	r3, #1
 80015e4:	d11b      	bne.n	800161e <HAL_RCC_ClockConfig+0x17a>
    {
      while (__HAL_RCC_GET_SYSCLK_SOURCE() != RCC_SYSCLKSOURCE_STATUS_HSI)
 80015e6:	e009      	b.n	80015fc <HAL_RCC_ClockConfig+0x158>
      {
        if((HAL_GetTick() - tickstart ) > CLOCKSWITCH_TIMEOUT_VALUE)
 80015e8:	f7ff f95c 	bl	80008a4 <HAL_GetTick>
 80015ec:	0002      	movs	r2, r0
 80015ee:	68fb      	ldr	r3, [r7, #12]
 80015f0:	1ad3      	subs	r3, r2, r3
 80015f2:	4a3c      	ldr	r2, [pc, #240]	; (80016e4 <HAL_RCC_ClockConfig+0x240>)
 80015f4:	4293      	cmp	r3, r2
 80015f6:	d901      	bls.n	80015fc <HAL_RCC_ClockConfig+0x158>
        {
          return HAL_TIMEOUT;
 80015f8:	2303      	movs	r3, #3
 80015fa:	e06b      	b.n	80016d4 <HAL_RCC_ClockConfig+0x230>
      while (__HAL_RCC_GET_SYSCLK_SOURCE() != RCC_SYSCLKSOURCE_STATUS_HSI)
 80015fc:	4b38      	ldr	r3, [pc, #224]	; (80016e0 <HAL_RCC_ClockConfig+0x23c>)
 80015fe:	68db      	ldr	r3, [r3, #12]
 8001600:	220c      	movs	r2, #12
 8001602:	4013      	ands	r3, r2
 8001604:	2b04      	cmp	r3, #4
 8001606:	d1ef      	bne.n	80015e8 <HAL_RCC_ClockConfig+0x144>
 8001608:	e00e      	b.n	8001628 <HAL_RCC_ClockConfig+0x184>
    }
    else
    {
      while(__HAL_RCC_GET_SYSCLK_SOURCE() != RCC_SYSCLKSOURCE_STATUS_MSI)
      {
        if((HAL_GetTick() - tickstart ) > CLOCKSWITCH_TIMEOUT_VALUE)
 800160a:	f7ff f94b 	bl	80008a4 <HAL_GetTick>
 800160e:	0002      	movs	r2, r0
 8001610:	68fb      	ldr	r3, [r7, #12]
 8001612:	1ad3      	subs	r3, r2, r3
 8001614:	4a33      	ldr	r2, [pc, #204]	; (80016e4 <HAL_RCC_ClockConfig+0x240>)
 8001616:	4293      	cmp	r3, r2
 8001618:	d901      	bls.n	800161e <HAL_RCC_ClockConfig+0x17a>
        {
          return HAL_TIMEOUT;
 800161a:	2303      	movs	r3, #3
 800161c:	e05a      	b.n	80016d4 <HAL_RCC_ClockConfig+0x230>
      while(__HAL_RCC_GET_SYSCLK_SOURCE() != RCC_SYSCLKSOURCE_STATUS_MSI)
 800161e:	4b30      	ldr	r3, [pc, #192]	; (80016e0 <HAL_RCC_ClockConfig+0x23c>)
 8001620:	68db      	ldr	r3, [r3, #12]
 8001622:	220c      	movs	r2, #12
 8001624:	4013      	ands	r3, r2
 8001626:	d1f0      	bne.n	800160a <HAL_RCC_ClockConfig+0x166>
        }
      }
    }
  }
  /* Decreasing the number of wait states because of lower CPU frequency */
  if(FLatency < __HAL_FLASH_GET_LATENCY())
 8001628:	4b2c      	ldr	r3, [pc, #176]	; (80016dc <HAL_RCC_ClockConfig+0x238>)
 800162a:	681b      	ldr	r3, [r3, #0]
 800162c:	2201      	movs	r2, #1
 800162e:	4013      	ands	r3, r2
 8001630:	683a      	ldr	r2, [r7, #0]
 8001632:	429a      	cmp	r2, r3
 8001634:	d211      	bcs.n	800165a <HAL_RCC_ClockConfig+0x1b6>
  {
    /* Program the new number of wait states to the LATENCY bits in the FLASH_ACR register */
    __HAL_FLASH_SET_LATENCY(FLatency);
 8001636:	4b29      	ldr	r3, [pc, #164]	; (80016dc <HAL_RCC_ClockConfig+0x238>)
 8001638:	681b      	ldr	r3, [r3, #0]
 800163a:	2201      	movs	r2, #1
 800163c:	4393      	bics	r3, r2
 800163e:	0019      	movs	r1, r3
 8001640:	4b26      	ldr	r3, [pc, #152]	; (80016dc <HAL_RCC_ClockConfig+0x238>)
 8001642:	683a      	ldr	r2, [r7, #0]
 8001644:	430a      	orrs	r2, r1
 8001646:	601a      	str	r2, [r3, #0]

    /* Check that the new number of wait states is taken into account to access the Flash
    memory by reading the FLASH_ACR register */
    if(__HAL_FLASH_GET_LATENCY() != FLatency)
 8001648:	4b24      	ldr	r3, [pc, #144]	; (80016dc <HAL_RCC_ClockConfig+0x238>)
 800164a:	681b      	ldr	r3, [r3, #0]
 800164c:	2201      	movs	r2, #1
 800164e:	4013      	ands	r3, r2
 8001650:	683a      	ldr	r2, [r7, #0]
 8001652:	429a      	cmp	r2, r3
 8001654:	d001      	beq.n	800165a <HAL_RCC_ClockConfig+0x1b6>
    {
      return HAL_ERROR;
 8001656:	2301      	movs	r3, #1
 8001658:	e03c      	b.n	80016d4 <HAL_RCC_ClockConfig+0x230>
    }
  }

  /*-------------------------- PCLK1 Configuration ---------------------------*/
  if(((RCC_ClkInitStruct->ClockType) & RCC_CLOCKTYPE_PCLK1) == RCC_CLOCKTYPE_PCLK1)
 800165a:	687b      	ldr	r3, [r7, #4]
 800165c:	681b      	ldr	r3, [r3, #0]
 800165e:	2204      	movs	r2, #4
 8001660:	4013      	ands	r3, r2
 8001662:	d009      	beq.n	8001678 <HAL_RCC_ClockConfig+0x1d4>
  {
    assert_param(IS_RCC_PCLK(RCC_ClkInitStruct->APB1CLKDivider));
    MODIFY_REG(RCC->CFGR, RCC_CFGR_PPRE1, RCC_ClkInitStruct->APB1CLKDivider);
 8001664:	4b1e      	ldr	r3, [pc, #120]	; (80016e0 <HAL_RCC_ClockConfig+0x23c>)
 8001666:	68db      	ldr	r3, [r3, #12]
 8001668:	4a1f      	ldr	r2, [pc, #124]	; (80016e8 <HAL_RCC_ClockConfig+0x244>)
 800166a:	4013      	ands	r3, r2
 800166c:	0019      	movs	r1, r3
 800166e:	687b      	ldr	r3, [r7, #4]
 8001670:	68da      	ldr	r2, [r3, #12]
 8001672:	4b1b      	ldr	r3, [pc, #108]	; (80016e0 <HAL_RCC_ClockConfig+0x23c>)
 8001674:	430a      	orrs	r2, r1
 8001676:	60da      	str	r2, [r3, #12]
  }

  /*-------------------------- PCLK2 Configuration ---------------------------*/
  if(((RCC_ClkInitStruct->ClockType) & RCC_CLOCKTYPE_PCLK2) == RCC_CLOCKTYPE_PCLK2)
 8001678:	687b      	ldr	r3, [r7, #4]
 800167a:	681b      	ldr	r3, [r3, #0]
 800167c:	2208      	movs	r2, #8
 800167e:	4013      	ands	r3, r2
 8001680:	d00a      	beq.n	8001698 <HAL_RCC_ClockConfig+0x1f4>
  {
    assert_param(IS_RCC_PCLK(RCC_ClkInitStruct->APB2CLKDivider));
    MODIFY_REG(RCC->CFGR, RCC_CFGR_PPRE2, ((RCC_ClkInitStruct->APB2CLKDivider) << 3));
 8001682:	4b17      	ldr	r3, [pc, #92]	; (80016e0 <HAL_RCC_ClockConfig+0x23c>)
 8001684:	68db      	ldr	r3, [r3, #12]
 8001686:	4a19      	ldr	r2, [pc, #100]	; (80016ec <HAL_RCC_ClockConfig+0x248>)
 8001688:	4013      	ands	r3, r2
 800168a:	0019      	movs	r1, r3
 800168c:	687b      	ldr	r3, [r7, #4]
 800168e:	691b      	ldr	r3, [r3, #16]
 8001690:	00da      	lsls	r2, r3, #3
 8001692:	4b13      	ldr	r3, [pc, #76]	; (80016e0 <HAL_RCC_ClockConfig+0x23c>)
 8001694:	430a      	orrs	r2, r1
 8001696:	60da      	str	r2, [r3, #12]
  }

  /* Update the SystemCoreClock global variable */
  SystemCoreClock = HAL_RCC_GetSysClockFreq() >> AHBPrescTable[(RCC->CFGR & RCC_CFGR_HPRE)>> RCC_CFGR_HPRE_Pos];
 8001698:	f000 f82e 	bl	80016f8 <HAL_RCC_GetSysClockFreq>
 800169c:	0001      	movs	r1, r0
 800169e:	4b10      	ldr	r3, [pc, #64]	; (80016e0 <HAL_RCC_ClockConfig+0x23c>)
 80016a0:	68db      	ldr	r3, [r3, #12]
 80016a2:	091b      	lsrs	r3, r3, #4
 80016a4:	220f      	movs	r2, #15
 80016a6:	4013      	ands	r3, r2
 80016a8:	4a11      	ldr	r2, [pc, #68]	; (80016f0 <HAL_RCC_ClockConfig+0x24c>)
 80016aa:	5cd3      	ldrb	r3, [r2, r3]
 80016ac:	000a      	movs	r2, r1
 80016ae:	40da      	lsrs	r2, r3
 80016b0:	4b10      	ldr	r3, [pc, #64]	; (80016f4 <HAL_RCC_ClockConfig+0x250>)
 80016b2:	601a      	str	r2, [r3, #0]

  /* Configure the source of time base considering new system clocks settings*/
  status = HAL_InitTick(TICK_INT_PRIORITY);
 80016b4:	250b      	movs	r5, #11
 80016b6:	197c      	adds	r4, r7, r5
 80016b8:	2000      	movs	r0, #0
 80016ba:	f7ff f8bd 	bl	8000838 <HAL_InitTick>
 80016be:	0003      	movs	r3, r0
 80016c0:	7023      	strb	r3, [r4, #0]
  if(status != HAL_OK)
 80016c2:	197b      	adds	r3, r7, r5
 80016c4:	781b      	ldrb	r3, [r3, #0]
 80016c6:	2b00      	cmp	r3, #0
 80016c8:	d003      	beq.n	80016d2 <HAL_RCC_ClockConfig+0x22e>
  {
    return status;
 80016ca:	230b      	movs	r3, #11
 80016cc:	18fb      	adds	r3, r7, r3
 80016ce:	781b      	ldrb	r3, [r3, #0]
 80016d0:	e000      	b.n	80016d4 <HAL_RCC_ClockConfig+0x230>
  }

  return HAL_OK;
 80016d2:	2300      	movs	r3, #0
}
 80016d4:	0018      	movs	r0, r3
 80016d6:	46bd      	mov	sp, r7
 80016d8:	b004      	add	sp, #16
 80016da:	bdb0      	pop	{r4, r5, r7, pc}
 80016dc:	40022000 	.word	0x40022000
 80016e0:	40021000 	.word	0x40021000
 80016e4:	00001388 	.word	0x00001388
 80016e8:	fffff8ff 	.word	0xfffff8ff
 80016ec:	ffffc7ff 	.word	0xffffc7ff
 80016f0:	08001870 	.word	0x08001870
 80016f4:	20000000 	.word	0x20000000

080016f8 <HAL_RCC_GetSysClockFreq>:
  *         right SYSCLK value. Otherwise, any configuration based on this function will be incorrect.
  *
  * @retval SYSCLK frequency
  */
uint32_t HAL_RCC_GetSysClockFreq(void)
{
 80016f8:	b580      	push	{r7, lr}
 80016fa:	b086      	sub	sp, #24
 80016fc:	af00      	add	r7, sp, #0
  uint32_t tmpreg, pllm, plld, pllvco, msiclkrange;    /* no init needed */
  uint32_t sysclockfreq;

  tmpreg = RCC->CFGR;
 80016fe:	4b3b      	ldr	r3, [pc, #236]	; (80017ec <HAL_RCC_GetSysClockFreq+0xf4>)
 8001700:	68db      	ldr	r3, [r3, #12]
 8001702:	60fb      	str	r3, [r7, #12]

  /* Get SYSCLK source -------------------------------------------------------*/
  switch (tmpreg & RCC_CFGR_SWS)
 8001704:	68fb      	ldr	r3, [r7, #12]
 8001706:	220c      	movs	r2, #12
 8001708:	4013      	ands	r3, r2
 800170a:	2b08      	cmp	r3, #8
 800170c:	d00e      	beq.n	800172c <HAL_RCC_GetSysClockFreq+0x34>
 800170e:	2b0c      	cmp	r3, #12
 8001710:	d00f      	beq.n	8001732 <HAL_RCC_GetSysClockFreq+0x3a>
 8001712:	2b04      	cmp	r3, #4
 8001714:	d157      	bne.n	80017c6 <HAL_RCC_GetSysClockFreq+0xce>
  {
    case RCC_SYSCLKSOURCE_STATUS_HSI:  /* HSI used as system clock source */
    {
      if ((RCC->CR & RCC_CR_HSIDIVF) != 0U)
 8001716:	4b35      	ldr	r3, [pc, #212]	; (80017ec <HAL_RCC_GetSysClockFreq+0xf4>)
 8001718:	681b      	ldr	r3, [r3, #0]
 800171a:	2210      	movs	r2, #16
 800171c:	4013      	ands	r3, r2
 800171e:	d002      	beq.n	8001726 <HAL_RCC_GetSysClockFreq+0x2e>
      {
        sysclockfreq =  (HSI_VALUE >> 2);
 8001720:	4b33      	ldr	r3, [pc, #204]	; (80017f0 <HAL_RCC_GetSysClockFreq+0xf8>)
 8001722:	613b      	str	r3, [r7, #16]
      }
      else
      {
        sysclockfreq =  HSI_VALUE;
      }
      break;
 8001724:	e05d      	b.n	80017e2 <HAL_RCC_GetSysClockFreq+0xea>
        sysclockfreq =  HSI_VALUE;
 8001726:	4b33      	ldr	r3, [pc, #204]	; (80017f4 <HAL_RCC_GetSysClockFreq+0xfc>)
 8001728:	613b      	str	r3, [r7, #16]
      break;
 800172a:	e05a      	b.n	80017e2 <HAL_RCC_GetSysClockFreq+0xea>
    }
    case RCC_SYSCLKSOURCE_STATUS_HSE:  /* HSE used as system clock */
    {
      sysclockfreq = HSE_VALUE;
 800172c:	4b32      	ldr	r3, [pc, #200]	; (80017f8 <HAL_RCC_GetSysClockFreq+0x100>)
 800172e:	613b      	str	r3, [r7, #16]
      break;
 8001730:	e057      	b.n	80017e2 <HAL_RCC_GetSysClockFreq+0xea>
    }
    case RCC_SYSCLKSOURCE_STATUS_PLLCLK:  /* PLL used as system clock */
    {
      pllm = PLLMulTable[(uint32_t)(tmpreg & RCC_CFGR_PLLMUL) >> RCC_CFGR_PLLMUL_Pos];
 8001732:	68fb      	ldr	r3, [r7, #12]
 8001734:	0c9b      	lsrs	r3, r3, #18
 8001736:	220f      	movs	r2, #15
 8001738:	4013      	ands	r3, r2
 800173a:	4a30      	ldr	r2, [pc, #192]	; (80017fc <HAL_RCC_GetSysClockFreq+0x104>)
 800173c:	5cd3      	ldrb	r3, [r2, r3]
 800173e:	60bb      	str	r3, [r7, #8]
      plld = ((uint32_t)(tmpreg & RCC_CFGR_PLLDIV) >> RCC_CFGR_PLLDIV_Pos) + 1U;
 8001740:	68fb      	ldr	r3, [r7, #12]
 8001742:	0d9b      	lsrs	r3, r3, #22
 8001744:	2203      	movs	r2, #3
 8001746:	4013      	ands	r3, r2
 8001748:	3301      	adds	r3, #1
 800174a:	607b      	str	r3, [r7, #4]
      if (__HAL_RCC_GET_PLL_OSCSOURCE() != RCC_PLLSOURCE_HSI)
 800174c:	4b27      	ldr	r3, [pc, #156]	; (80017ec <HAL_RCC_GetSysClockFreq+0xf4>)
 800174e:	68da      	ldr	r2, [r3, #12]
 8001750:	2380      	movs	r3, #128	; 0x80
 8001752:	025b      	lsls	r3, r3, #9
 8001754:	4013      	ands	r3, r2
 8001756:	d00f      	beq.n	8001778 <HAL_RCC_GetSysClockFreq+0x80>
      {
        /* HSE used as PLL clock source */
        pllvco = (HSE_VALUE * pllm) / plld;
 8001758:	68b9      	ldr	r1, [r7, #8]
 800175a:	000a      	movs	r2, r1
 800175c:	0152      	lsls	r2, r2, #5
 800175e:	1a52      	subs	r2, r2, r1
 8001760:	0193      	lsls	r3, r2, #6
 8001762:	1a9b      	subs	r3, r3, r2
 8001764:	00db      	lsls	r3, r3, #3
 8001766:	185b      	adds	r3, r3, r1
 8001768:	025b      	lsls	r3, r3, #9
 800176a:	6879      	ldr	r1, [r7, #4]
 800176c:	0018      	movs	r0, r3
 800176e:	f7fe fccb 	bl	8000108 <__udivsi3>
 8001772:	0003      	movs	r3, r0
 8001774:	617b      	str	r3, [r7, #20]
 8001776:	e023      	b.n	80017c0 <HAL_RCC_GetSysClockFreq+0xc8>
      }
      else
      {
        if ((RCC->CR & RCC_CR_HSIDIVF) != 0U)
 8001778:	4b1c      	ldr	r3, [pc, #112]	; (80017ec <HAL_RCC_GetSysClockFreq+0xf4>)
 800177a:	681b      	ldr	r3, [r3, #0]
 800177c:	2210      	movs	r2, #16
 800177e:	4013      	ands	r3, r2
 8001780:	d00f      	beq.n	80017a2 <HAL_RCC_GetSysClockFreq+0xaa>
        {
          pllvco = ((HSI_VALUE >> 2) * pllm) / plld;
 8001782:	68b9      	ldr	r1, [r7, #8]
 8001784:	000a      	movs	r2, r1
 8001786:	0152      	lsls	r2, r2, #5
 8001788:	1a52      	subs	r2, r2, r1
 800178a:	0193      	lsls	r3, r2, #6
 800178c:	1a9b      	subs	r3, r3, r2
 800178e:	00db      	lsls	r3, r3, #3
 8001790:	185b      	adds	r3, r3, r1
 8001792:	021b      	lsls	r3, r3, #8
 8001794:	6879      	ldr	r1, [r7, #4]
 8001796:	0018      	movs	r0, r3
 8001798:	f7fe fcb6 	bl	8000108 <__udivsi3>
 800179c:	0003      	movs	r3, r0
 800179e:	617b      	str	r3, [r7, #20]
 80017a0:	e00e      	b.n	80017c0 <HAL_RCC_GetSysClockFreq+0xc8>
        }
        else
        {
         pllvco = (HSI_VALUE * pllm) / plld;
 80017a2:	68b9      	ldr	r1, [r7, #8]
 80017a4:	000a      	movs	r2, r1
 80017a6:	0152      	lsls	r2, r2, #5
 80017a8:	1a52      	subs	r2, r2, r1
 80017aa:	0193      	lsls	r3, r2, #6
 80017ac:	1a9b      	subs	r3, r3, r2
 80017ae:	00db      	lsls	r3, r3, #3
 80017b0:	185b      	adds	r3, r3, r1
 80017b2:	029b      	lsls	r3, r3, #10
 80017b4:	6879      	ldr	r1, [r7, #4]
 80017b6:	0018      	movs	r0, r3
 80017b8:	f7fe fca6 	bl	8000108 <__udivsi3>
 80017bc:	0003      	movs	r3, r0
 80017be:	617b      	str	r3, [r7, #20]
        }
      }
      sysclockfreq = pllvco;
 80017c0:	697b      	ldr	r3, [r7, #20]
 80017c2:	613b      	str	r3, [r7, #16]
      break;
 80017c4:	e00d      	b.n	80017e2 <HAL_RCC_GetSysClockFreq+0xea>
    }
    case RCC_SYSCLKSOURCE_STATUS_MSI:  /* MSI used as system clock source */
    default: /* MSI used as system clock */
    {
      msiclkrange = (RCC->ICSCR & RCC_ICSCR_MSIRANGE ) >> RCC_ICSCR_MSIRANGE_Pos;
 80017c6:	4b09      	ldr	r3, [pc, #36]	; (80017ec <HAL_RCC_GetSysClockFreq+0xf4>)
 80017c8:	685b      	ldr	r3, [r3, #4]
 80017ca:	0b5b      	lsrs	r3, r3, #13
 80017cc:	2207      	movs	r2, #7
 80017ce:	4013      	ands	r3, r2
 80017d0:	603b      	str	r3, [r7, #0]
      sysclockfreq = (32768U * (1UL << (msiclkrange + 1U)));
 80017d2:	683b      	ldr	r3, [r7, #0]
 80017d4:	3301      	adds	r3, #1
 80017d6:	2280      	movs	r2, #128	; 0x80
 80017d8:	0212      	lsls	r2, r2, #8
 80017da:	409a      	lsls	r2, r3
 80017dc:	0013      	movs	r3, r2
 80017de:	613b      	str	r3, [r7, #16]
      break;
 80017e0:	46c0      	nop			; (mov r8, r8)
    }
  }
  return sysclockfreq;
 80017e2:	693b      	ldr	r3, [r7, #16]
}
 80017e4:	0018      	movs	r0, r3
 80017e6:	46bd      	mov	sp, r7
 80017e8:	b006      	add	sp, #24
 80017ea:	bd80      	pop	{r7, pc}
 80017ec:	40021000 	.word	0x40021000
 80017f0:	003d0900 	.word	0x003d0900
 80017f4:	00f42400 	.word	0x00f42400
 80017f8:	007a1200 	.word	0x007a1200
 80017fc:	08001880 	.word	0x08001880

08001800 <__libc_init_array>:
 8001800:	b570      	push	{r4, r5, r6, lr}
 8001802:	2600      	movs	r6, #0
 8001804:	4d0c      	ldr	r5, [pc, #48]	; (8001838 <__libc_init_array+0x38>)
 8001806:	4c0d      	ldr	r4, [pc, #52]	; (800183c <__libc_init_array+0x3c>)
 8001808:	1b64      	subs	r4, r4, r5
 800180a:	10a4      	asrs	r4, r4, #2
 800180c:	42a6      	cmp	r6, r4
 800180e:	d109      	bne.n	8001824 <__libc_init_array+0x24>
 8001810:	2600      	movs	r6, #0
 8001812:	f000 f821 	bl	8001858 <_init>
 8001816:	4d0a      	ldr	r5, [pc, #40]	; (8001840 <__libc_init_array+0x40>)
 8001818:	4c0a      	ldr	r4, [pc, #40]	; (8001844 <__libc_init_array+0x44>)
 800181a:	1b64      	subs	r4, r4, r5
 800181c:	10a4      	asrs	r4, r4, #2
 800181e:	42a6      	cmp	r6, r4
 8001820:	d105      	bne.n	800182e <__libc_init_array+0x2e>
 8001822:	bd70      	pop	{r4, r5, r6, pc}
 8001824:	00b3      	lsls	r3, r6, #2
 8001826:	58eb      	ldr	r3, [r5, r3]
 8001828:	4798      	blx	r3
 800182a:	3601      	adds	r6, #1
 800182c:	e7ee      	b.n	800180c <__libc_init_array+0xc>
 800182e:	00b3      	lsls	r3, r6, #2
 8001830:	58eb      	ldr	r3, [r5, r3]
 8001832:	4798      	blx	r3
 8001834:	3601      	adds	r6, #1
 8001836:	e7f2      	b.n	800181e <__libc_init_array+0x1e>
 8001838:	0800188c 	.word	0x0800188c
 800183c:	0800188c 	.word	0x0800188c
 8001840:	0800188c 	.word	0x0800188c
 8001844:	08001890 	.word	0x08001890

08001848 <memset>:
 8001848:	0003      	movs	r3, r0
 800184a:	1812      	adds	r2, r2, r0
 800184c:	4293      	cmp	r3, r2
 800184e:	d100      	bne.n	8001852 <memset+0xa>
 8001850:	4770      	bx	lr
 8001852:	7019      	strb	r1, [r3, #0]
 8001854:	3301      	adds	r3, #1
 8001856:	e7f9      	b.n	800184c <memset+0x4>

08001858 <_init>:
 8001858:	b5f8      	push	{r3, r4, r5, r6, r7, lr}
 800185a:	46c0      	nop			; (mov r8, r8)
 800185c:	bcf8      	pop	{r3, r4, r5, r6, r7}
 800185e:	bc08      	pop	{r3}
 8001860:	469e      	mov	lr, r3
 8001862:	4770      	bx	lr

08001864 <_fini>:
 8001864:	b5f8      	push	{r3, r4, r5, r6, r7, lr}
 8001866:	46c0      	nop			; (mov r8, r8)
 8001868:	bcf8      	pop	{r3, r4, r5, r6, r7}
 800186a:	bc08      	pop	{r3}
 800186c:	469e      	mov	lr, r3
 800186e:	4770      	bx	lr
