
BombHonor2.elf:     file format elf32-littlearm

Sections:
Idx Name          Size      VMA       LMA       File off  Algn
  0 .isr_vector   000000c0  08000000  08000000  00010000  2**0
                  CONTENTS, ALLOC, LOAD, READONLY, DATA
  1 .text         00001860  080000c0  080000c0  000100c0  2**2
                  CONTENTS, ALLOC, LOAD, READONLY, CODE
  2 .rodata       0000001c  08001920  08001920  00011920  2**2
                  CONTENTS, ALLOC, LOAD, READONLY, DATA
  3 .ARM.extab    00000000  0800193c  0800193c  00020004  2**0
                  CONTENTS
  4 .ARM          00000000  0800193c  0800193c  00020004  2**0
                  CONTENTS
  5 .preinit_array 00000000  0800193c  0800193c  00020004  2**0
                  CONTENTS, ALLOC, LOAD, DATA
  6 .init_array   00000004  0800193c  0800193c  0001193c  2**2
                  CONTENTS, ALLOC, LOAD, DATA
  7 .fini_array   00000004  08001940  08001940  00011940  2**2
                  CONTENTS, ALLOC, LOAD, DATA
  8 .data         00000004  20000000  08001944  00020000  2**2
                  CONTENTS, ALLOC, LOAD, DATA
  9 .bss          00000020  20000004  08001948  00020004  2**2
                  ALLOC
 10 ._user_heap_stack 00000604  20000024  08001948  00020024  2**0
                  ALLOC
 11 .ARM.attributes 00000028  00000000  00000000  00020004  2**0
                  CONTENTS, READONLY
 12 .debug_info   0000350d  00000000  00000000  0002002c  2**0
                  CONTENTS, READONLY, DEBUGGING
 13 .debug_abbrev 00000f2d  00000000  00000000  00023539  2**0
                  CONTENTS, READONLY, DEBUGGING
 14 .debug_aranges 000004a0  00000000  00000000  00024468  2**3
                  CONTENTS, READONLY, DEBUGGING
 15 .debug_ranges 000003f8  00000000  00000000  00024908  2**3
                  CONTENTS, READONLY, DEBUGGING
 16 .debug_macro  0000f186  00000000  00000000  00024d00  2**0
                  CONTENTS, READONLY, DEBUGGING
 17 .debug_line   00004c55  00000000  00000000  00033e86  2**0
                  CONTENTS, READONLY, DEBUGGING
 18 .debug_str    0005a8a7  00000000  00000000  00038adb  2**0
                  CONTENTS, READONLY, DEBUGGING
 19 .comment      0000007b  00000000  00000000  00093382  2**0
                  CONTENTS, READONLY
 20 .debug_frame  00000e58  00000000  00000000  00093400  2**2
                  CONTENTS, READONLY, DEBUGGING

Disassembly of section .text:

080000c0 <__do_global_dtors_aux>:
 80000c0:	b510      	push	{r4, lr}
 80000c2:	4c06      	ldr	r4, [pc, #24]	; (80000dc <__do_global_dtors_aux+0x1c>)
 80000c4:	7823      	ldrb	r3, [r4, #0]
 80000c6:	2b00      	cmp	r3, #0
 80000c8:	d107      	bne.n	80000da <__do_global_dtors_aux+0x1a>
 80000ca:	4b05      	ldr	r3, [pc, #20]	; (80000e0 <__do_global_dtors_aux+0x20>)
 80000cc:	2b00      	cmp	r3, #0
 80000ce:	d002      	beq.n	80000d6 <__do_global_dtors_aux+0x16>
 80000d0:	4804      	ldr	r0, [pc, #16]	; (80000e4 <__do_global_dtors_aux+0x24>)
 80000d2:	e000      	b.n	80000d6 <__do_global_dtors_aux+0x16>
 80000d4:	bf00      	nop
 80000d6:	2301      	movs	r3, #1
 80000d8:	7023      	strb	r3, [r4, #0]
 80000da:	bd10      	pop	{r4, pc}
 80000dc:	20000004 	.word	0x20000004
 80000e0:	00000000 	.word	0x00000000
 80000e4:	08001908 	.word	0x08001908

080000e8 <frame_dummy>:
 80000e8:	4b04      	ldr	r3, [pc, #16]	; (80000fc <frame_dummy+0x14>)
 80000ea:	b510      	push	{r4, lr}
 80000ec:	2b00      	cmp	r3, #0
 80000ee:	d003      	beq.n	80000f8 <frame_dummy+0x10>
 80000f0:	4903      	ldr	r1, [pc, #12]	; (8000100 <frame_dummy+0x18>)
 80000f2:	4804      	ldr	r0, [pc, #16]	; (8000104 <frame_dummy+0x1c>)
 80000f4:	e000      	b.n	80000f8 <frame_dummy+0x10>
 80000f6:	bf00      	nop
 80000f8:	bd10      	pop	{r4, pc}
 80000fa:	46c0      	nop			; (mov r8, r8)
 80000fc:	00000000 	.word	0x00000000
 8000100:	20000008 	.word	0x20000008
 8000104:	08001908 	.word	0x08001908

08000108 <__udivsi3>:
 8000108:	2200      	movs	r2, #0
 800010a:	0843      	lsrs	r3, r0, #1
 800010c:	428b      	cmp	r3, r1
 800010e:	d374      	bcc.n	80001fa <__udivsi3+0xf2>
 8000110:	0903      	lsrs	r3, r0, #4
 8000112:	428b      	cmp	r3, r1
 8000114:	d35f      	bcc.n	80001d6 <__udivsi3+0xce>
 8000116:	0a03      	lsrs	r3, r0, #8
 8000118:	428b      	cmp	r3, r1
 800011a:	d344      	bcc.n	80001a6 <__udivsi3+0x9e>
 800011c:	0b03      	lsrs	r3, r0, #12
 800011e:	428b      	cmp	r3, r1
 8000120:	d328      	bcc.n	8000174 <__udivsi3+0x6c>
 8000122:	0c03      	lsrs	r3, r0, #16
 8000124:	428b      	cmp	r3, r1
 8000126:	d30d      	bcc.n	8000144 <__udivsi3+0x3c>
 8000128:	22ff      	movs	r2, #255	; 0xff
 800012a:	0209      	lsls	r1, r1, #8
 800012c:	ba12      	rev	r2, r2
 800012e:	0c03      	lsrs	r3, r0, #16
 8000130:	428b      	cmp	r3, r1
 8000132:	d302      	bcc.n	800013a <__udivsi3+0x32>
 8000134:	1212      	asrs	r2, r2, #8
 8000136:	0209      	lsls	r1, r1, #8
 8000138:	d065      	beq.n	8000206 <__udivsi3+0xfe>
 800013a:	0b03      	lsrs	r3, r0, #12
 800013c:	428b      	cmp	r3, r1
 800013e:	d319      	bcc.n	8000174 <__udivsi3+0x6c>
 8000140:	e000      	b.n	8000144 <__udivsi3+0x3c>
 8000142:	0a09      	lsrs	r1, r1, #8
 8000144:	0bc3      	lsrs	r3, r0, #15
 8000146:	428b      	cmp	r3, r1
 8000148:	d301      	bcc.n	800014e <__udivsi3+0x46>
 800014a:	03cb      	lsls	r3, r1, #15
 800014c:	1ac0      	subs	r0, r0, r3
 800014e:	4152      	adcs	r2, r2
 8000150:	0b83      	lsrs	r3, r0, #14
 8000152:	428b      	cmp	r3, r1
 8000154:	d301      	bcc.n	800015a <__udivsi3+0x52>
 8000156:	038b      	lsls	r3, r1, #14
 8000158:	1ac0      	subs	r0, r0, r3
 800015a:	4152      	adcs	r2, r2
 800015c:	0b43      	lsrs	r3, r0, #13
 800015e:	428b      	cmp	r3, r1
 8000160:	d301      	bcc.n	8000166 <__udivsi3+0x5e>
 8000162:	034b      	lsls	r3, r1, #13
 8000164:	1ac0      	subs	r0, r0, r3
 8000166:	4152      	adcs	r2, r2
 8000168:	0b03      	lsrs	r3, r0, #12
 800016a:	428b      	cmp	r3, r1
 800016c:	d301      	bcc.n	8000172 <__udivsi3+0x6a>
 800016e:	030b      	lsls	r3, r1, #12
 8000170:	1ac0      	subs	r0, r0, r3
 8000172:	4152      	adcs	r2, r2
 8000174:	0ac3      	lsrs	r3, r0, #11
 8000176:	428b      	cmp	r3, r1
 8000178:	d301      	bcc.n	800017e <__udivsi3+0x76>
 800017a:	02cb      	lsls	r3, r1, #11
 800017c:	1ac0      	subs	r0, r0, r3
 800017e:	4152      	adcs	r2, r2
 8000180:	0a83      	lsrs	r3, r0, #10
 8000182:	428b      	cmp	r3, r1
 8000184:	d301      	bcc.n	800018a <__udivsi3+0x82>
 8000186:	028b      	lsls	r3, r1, #10
 8000188:	1ac0      	subs	r0, r0, r3
 800018a:	4152      	adcs	r2, r2
 800018c:	0a43      	lsrs	r3, r0, #9
 800018e:	428b      	cmp	r3, r1
 8000190:	d301      	bcc.n	8000196 <__udivsi3+0x8e>
 8000192:	024b      	lsls	r3, r1, #9
 8000194:	1ac0      	subs	r0, r0, r3
 8000196:	4152      	adcs	r2, r2
 8000198:	0a03      	lsrs	r3, r0, #8
 800019a:	428b      	cmp	r3, r1
 800019c:	d301      	bcc.n	80001a2 <__udivsi3+0x9a>
 800019e:	020b      	lsls	r3, r1, #8
 80001a0:	1ac0      	subs	r0, r0, r3
 80001a2:	4152      	adcs	r2, r2
 80001a4:	d2cd      	bcs.n	8000142 <__udivsi3+0x3a>
 80001a6:	09c3      	lsrs	r3, r0, #7
 80001a8:	428b      	cmp	r3, r1
 80001aa:	d301      	bcc.n	80001b0 <__udivsi3+0xa8>
 80001ac:	01cb      	lsls	r3, r1, #7
 80001ae:	1ac0      	subs	r0, r0, r3
 80001b0:	4152      	adcs	r2, r2
 80001b2:	0983      	lsrs	r3, r0, #6
 80001b4:	428b      	cmp	r3, r1
 80001b6:	d301      	bcc.n	80001bc <__udivsi3+0xb4>
 80001b8:	018b      	lsls	r3, r1, #6
 80001ba:	1ac0      	subs	r0, r0, r3
 80001bc:	4152      	adcs	r2, r2
 80001be:	0943      	lsrs	r3, r0, #5
 80001c0:	428b      	cmp	r3, r1
 80001c2:	d301      	bcc.n	80001c8 <__udivsi3+0xc0>
 80001c4:	014b      	lsls	r3, r1, #5
 80001c6:	1ac0      	subs	r0, r0, r3
 80001c8:	4152      	adcs	r2, r2
 80001ca:	0903      	lsrs	r3, r0, #4
 80001cc:	428b      	cmp	r3, r1
 80001ce:	d301      	bcc.n	80001d4 <__udivsi3+0xcc>
 80001d0:	010b      	lsls	r3, r1, #4
 80001d2:	1ac0      	subs	r0, r0, r3
 80001d4:	4152      	adcs	r2, r2
 80001d6:	08c3      	lsrs	r3, r0, #3
 80001d8:	428b      	cmp	r3, r1
 80001da:	d301      	bcc.n	80001e0 <__udivsi3+0xd8>
 80001dc:	00cb      	lsls	r3, r1, #3
 80001de:	1ac0      	subs	r0, r0, r3
 80001e0:	4152      	adcs	r2, r2
 80001e2:	0883      	lsrs	r3, r0, #2
 80001e4:	428b      	cmp	r3, r1
 80001e6:	d301      	bcc.n	80001ec <__udivsi3+0xe4>
 80001e8:	008b      	lsls	r3, r1, #2
 80001ea:	1ac0      	subs	r0, r0, r3
 80001ec:	4152      	adcs	r2, r2
 80001ee:	0843      	lsrs	r3, r0, #1
 80001f0:	428b      	cmp	r3, r1
 80001f2:	d301      	bcc.n	80001f8 <__udivsi3+0xf0>
 80001f4:	004b      	lsls	r3, r1, #1
 80001f6:	1ac0      	subs	r0, r0, r3
 80001f8:	4152      	adcs	r2, r2
 80001fa:	1a41      	subs	r1, r0, r1
 80001fc:	d200      	bcs.n	8000200 <__udivsi3+0xf8>
 80001fe:	4601      	mov	r1, r0
 8000200:	4152      	adcs	r2, r2
 8000202:	4610      	mov	r0, r2
 8000204:	4770      	bx	lr
 8000206:	e7ff      	b.n	8000208 <__udivsi3+0x100>
 8000208:	b501      	push	{r0, lr}
 800020a:	2000      	movs	r0, #0
 800020c:	f000 f806 	bl	800021c <__aeabi_idiv0>
 8000210:	bd02      	pop	{r1, pc}
 8000212:	46c0      	nop			; (mov r8, r8)

08000214 <__aeabi_uidivmod>:
 8000214:	2900      	cmp	r1, #0
 8000216:	d0f7      	beq.n	8000208 <__udivsi3+0x100>
 8000218:	e776      	b.n	8000108 <__udivsi3>
 800021a:	4770      	bx	lr

0800021c <__aeabi_idiv0>:
 800021c:	4770      	bx	lr
 800021e:	46c0      	nop			; (mov r8, r8)

08000220 <main>:
/**
  * @brief  The application entry point.
  * @retval int
  */
int main(void)
{
 8000220:	b580      	push	{r7, lr}
 8000222:	b082      	sub	sp, #8
 8000224:	af00      	add	r7, sp, #0
  

  /* MCU Configuration--------------------------------------------------------*/

  /* Reset of all peripherals, Initializes the Flash interface and the Systick. */
  HAL_Init();
 8000226:	f000 fb11 	bl	800084c <HAL_Init>
  /* USER CODE BEGIN Init */

  /* USER CODE END Init */

  /* Configure the system clock */
  SystemClock_Config();
 800022a:	f000 f837 	bl	800029c <SystemClock_Config>

  /* USER CODE BEGIN SysInit */
  /* USER CODE END SysInit */

  /* Initialize all configured peripherals */
  MX_GPIO_Init();
 800022e:	f000 f891 	bl	8000354 <MX_GPIO_Init>
  /* USER CODE BEGIN 2 */
  __HAL_RCC_PWR_CLK_ENABLE();
 8000232:	4b19      	ldr	r3, [pc, #100]	; (8000298 <main+0x78>)
 8000234:	6b9a      	ldr	r2, [r3, #56]	; 0x38
 8000236:	4b18      	ldr	r3, [pc, #96]	; (8000298 <main+0x78>)
 8000238:	2180      	movs	r1, #128	; 0x80
 800023a:	0549      	lsls	r1, r1, #21
 800023c:	430a      	orrs	r2, r1
 800023e:	639a      	str	r2, [r3, #56]	; 0x38
  while (1)
  {
    /* USER CODE END WHILE */

    /* USER CODE BEGIN 3 */
  	uint32_t delay1=50, delay2=600;
 8000240:	2332      	movs	r3, #50	; 0x32
 8000242:	607b      	str	r3, [r7, #4]
 8000244:	2396      	movs	r3, #150	; 0x96
 8000246:	009b      	lsls	r3, r3, #2
 8000248:	603b      	str	r3, [r7, #0]
  	wheel(delay1);
 800024a:	687b      	ldr	r3, [r7, #4]
 800024c:	0018      	movs	r0, r3
 800024e:	f000 f962 	bl	8000516 <wheel>
  	wheel(delay1);
 8000252:	687b      	ldr	r3, [r7, #4]
 8000254:	0018      	movs	r0, r3
 8000256:	f000 f95e 	bl	8000516 <wheel>
  	wheel(delay1);
 800025a:	687b      	ldr	r3, [r7, #4]
 800025c:	0018      	movs	r0, r3
 800025e:	f000 f95a 	bl	8000516 <wheel>
  	wheel(delay1);
 8000262:	687b      	ldr	r3, [r7, #4]
 8000264:	0018      	movs	r0, r3
 8000266:	f000 f956 	bl	8000516 <wheel>
  	half_wheel(delay1);
 800026a:	687b      	ldr	r3, [r7, #4]
 800026c:	0018      	movs	r0, r3
 800026e:	f000 f9a0 	bl	80005b2 <half_wheel>
		delay_onoff(delay2);
 8000272:	683b      	ldr	r3, [r7, #0]
 8000274:	0018      	movs	r0, r3
 8000276:	f000 f9f5 	bl	8000664 <delay_onoff>
		onoff(delay2);
 800027a:	683b      	ldr	r3, [r7, #0]
 800027c:	0018      	movs	r0, r3
 800027e:	f000 f9c3 	bl	8000608 <onoff>
		onoff(delay2);
 8000282:	683b      	ldr	r3, [r7, #0]
 8000284:	0018      	movs	r0, r3
 8000286:	f000 f9bf 	bl	8000608 <onoff>
		HAL_Delay(delay2);
 800028a:	683b      	ldr	r3, [r7, #0]
 800028c:	0018      	movs	r0, r3
 800028e:	f000 fb3d 	bl	800090c <HAL_Delay>

		go_to_sleep();
 8000292:	f000 fa03 	bl	800069c <go_to_sleep>
  {
 8000296:	e7d3      	b.n	8000240 <main+0x20>
 8000298:	40021000 	.word	0x40021000

0800029c <SystemClock_Config>:
/**
  * @brief System Clock Configuration
  * @retval None
  */
void SystemClock_Config(void)
{
 800029c:	b590      	push	{r4, r7, lr}
 800029e:	b093      	sub	sp, #76	; 0x4c
 80002a0:	af00      	add	r7, sp, #0
  RCC_OscInitTypeDef RCC_OscInitStruct = {0};
 80002a2:	2414      	movs	r4, #20
 80002a4:	193b      	adds	r3, r7, r4
 80002a6:	0018      	movs	r0, r3
 80002a8:	2334      	movs	r3, #52	; 0x34
 80002aa:	001a      	movs	r2, r3
 80002ac:	2100      	movs	r1, #0
 80002ae:	f001 fb23 	bl	80018f8 <memset>
  RCC_ClkInitTypeDef RCC_ClkInitStruct = {0};
 80002b2:	003b      	movs	r3, r7
 80002b4:	0018      	movs	r0, r3
 80002b6:	2314      	movs	r3, #20
 80002b8:	001a      	movs	r2, r3
 80002ba:	2100      	movs	r1, #0
 80002bc:	f001 fb1c 	bl	80018f8 <memset>

  /** Configure the main internal regulator output voltage 
  */
  __HAL_PWR_VOLTAGESCALING_CONFIG(PWR_REGULATOR_VOLTAGE_SCALE1);
 80002c0:	4b22      	ldr	r3, [pc, #136]	; (800034c <SystemClock_Config+0xb0>)
 80002c2:	681b      	ldr	r3, [r3, #0]
 80002c4:	4a22      	ldr	r2, [pc, #136]	; (8000350 <SystemClock_Config+0xb4>)
 80002c6:	401a      	ands	r2, r3
 80002c8:	4b20      	ldr	r3, [pc, #128]	; (800034c <SystemClock_Config+0xb0>)
 80002ca:	2180      	movs	r1, #128	; 0x80
 80002cc:	0109      	lsls	r1, r1, #4
 80002ce:	430a      	orrs	r2, r1
 80002d0:	601a      	str	r2, [r3, #0]
  /** Initializes the CPU, AHB and APB busses clocks 
  */
  RCC_OscInitStruct.OscillatorType = RCC_OSCILLATORTYPE_HSI;
 80002d2:	0021      	movs	r1, r4
 80002d4:	187b      	adds	r3, r7, r1
 80002d6:	2202      	movs	r2, #2
 80002d8:	601a      	str	r2, [r3, #0]
  RCC_OscInitStruct.HSIState = RCC_HSI_ON;
 80002da:	187b      	adds	r3, r7, r1
 80002dc:	2201      	movs	r2, #1
 80002de:	60da      	str	r2, [r3, #12]
  RCC_OscInitStruct.HSICalibrationValue = RCC_HSICALIBRATION_DEFAULT;
 80002e0:	187b      	adds	r3, r7, r1
 80002e2:	2210      	movs	r2, #16
 80002e4:	611a      	str	r2, [r3, #16]
  RCC_OscInitStruct.PLL.PLLState = RCC_PLL_ON;
 80002e6:	187b      	adds	r3, r7, r1
 80002e8:	2202      	movs	r2, #2
 80002ea:	625a      	str	r2, [r3, #36]	; 0x24
  RCC_OscInitStruct.PLL.PLLSource = RCC_PLLSOURCE_HSI;
 80002ec:	187b      	adds	r3, r7, r1
 80002ee:	2200      	movs	r2, #0
 80002f0:	629a      	str	r2, [r3, #40]	; 0x28
  RCC_OscInitStruct.PLL.PLLMUL = RCC_PLLMUL_4;
 80002f2:	187b      	adds	r3, r7, r1
 80002f4:	2280      	movs	r2, #128	; 0x80
 80002f6:	02d2      	lsls	r2, r2, #11
 80002f8:	62da      	str	r2, [r3, #44]	; 0x2c
  RCC_OscInitStruct.PLL.PLLDIV = RCC_PLLDIV_4;
 80002fa:	187b      	adds	r3, r7, r1
 80002fc:	22c0      	movs	r2, #192	; 0xc0
 80002fe:	0412      	lsls	r2, r2, #16
 8000300:	631a      	str	r2, [r3, #48]	; 0x30
  if (HAL_RCC_OscConfig(&RCC_OscInitStruct) != HAL_OK)
 8000302:	187b      	adds	r3, r7, r1
 8000304:	0018      	movs	r0, r3
 8000306:	f000 fdab 	bl	8000e60 <HAL_RCC_OscConfig>
 800030a:	1e03      	subs	r3, r0, #0
 800030c:	d001      	beq.n	8000312 <SystemClock_Config+0x76>
  {
    Error_Handler();
 800030e:	f000 f9e9 	bl	80006e4 <Error_Handler>
  }
  /** Initializes the CPU, AHB and APB busses clocks 
  */
  RCC_ClkInitStruct.ClockType = RCC_CLOCKTYPE_HCLK|RCC_CLOCKTYPE_SYSCLK
 8000312:	003b      	movs	r3, r7
 8000314:	220f      	movs	r2, #15
 8000316:	601a      	str	r2, [r3, #0]
                              |RCC_CLOCKTYPE_PCLK1|RCC_CLOCKTYPE_PCLK2;
  RCC_ClkInitStruct.SYSCLKSource = RCC_SYSCLKSOURCE_PLLCLK;
 8000318:	003b      	movs	r3, r7
 800031a:	2203      	movs	r2, #3
 800031c:	605a      	str	r2, [r3, #4]
  RCC_ClkInitStruct.AHBCLKDivider = RCC_SYSCLK_DIV64;
 800031e:	003b      	movs	r3, r7
 8000320:	22c0      	movs	r2, #192	; 0xc0
 8000322:	609a      	str	r2, [r3, #8]
  RCC_ClkInitStruct.APB1CLKDivider = RCC_HCLK_DIV1;
 8000324:	003b      	movs	r3, r7
 8000326:	2200      	movs	r2, #0
 8000328:	60da      	str	r2, [r3, #12]
  RCC_ClkInitStruct.APB2CLKDivider = RCC_HCLK_DIV1;
 800032a:	003b      	movs	r3, r7
 800032c:	2200      	movs	r2, #0
 800032e:	611a      	str	r2, [r3, #16]

  if (HAL_RCC_ClockConfig(&RCC_ClkInitStruct, FLASH_LATENCY_0) != HAL_OK)
 8000330:	003b      	movs	r3, r7
 8000332:	2100      	movs	r1, #0
 8000334:	0018      	movs	r0, r3
 8000336:	f001 f90d 	bl	8001554 <HAL_RCC_ClockConfig>
 800033a:	1e03      	subs	r3, r0, #0
 800033c:	d001      	beq.n	8000342 <SystemClock_Config+0xa6>
  {
    Error_Handler();
 800033e:	f000 f9d1 	bl	80006e4 <Error_Handler>
  }
}
 8000342:	46c0      	nop			; (mov r8, r8)
 8000344:	46bd      	mov	sp, r7
 8000346:	b013      	add	sp, #76	; 0x4c
 8000348:	bd90      	pop	{r4, r7, pc}
 800034a:	46c0      	nop			; (mov r8, r8)
 800034c:	40007000 	.word	0x40007000
 8000350:	ffffe7ff 	.word	0xffffe7ff

08000354 <MX_GPIO_Init>:
  * @brief GPIO Initialization Function
  * @param None
  * @retval None
  */
static void MX_GPIO_Init(void)
{
 8000354:	b590      	push	{r4, r7, lr}
 8000356:	b089      	sub	sp, #36	; 0x24
 8000358:	af00      	add	r7, sp, #0
  GPIO_InitTypeDef GPIO_InitStruct = {0};
 800035a:	240c      	movs	r4, #12
 800035c:	193b      	adds	r3, r7, r4
 800035e:	0018      	movs	r0, r3
 8000360:	2314      	movs	r3, #20
 8000362:	001a      	movs	r2, r3
 8000364:	2100      	movs	r1, #0
 8000366:	f001 fac7 	bl	80018f8 <memset>

  /* GPIO Ports Clock Enable */
  __HAL_RCC_GPIOC_CLK_ENABLE();
 800036a:	4b39      	ldr	r3, [pc, #228]	; (8000450 <MX_GPIO_Init+0xfc>)
 800036c:	6ada      	ldr	r2, [r3, #44]	; 0x2c
 800036e:	4b38      	ldr	r3, [pc, #224]	; (8000450 <MX_GPIO_Init+0xfc>)
 8000370:	2104      	movs	r1, #4
 8000372:	430a      	orrs	r2, r1
 8000374:	62da      	str	r2, [r3, #44]	; 0x2c
 8000376:	4b36      	ldr	r3, [pc, #216]	; (8000450 <MX_GPIO_Init+0xfc>)
 8000378:	6adb      	ldr	r3, [r3, #44]	; 0x2c
 800037a:	2204      	movs	r2, #4
 800037c:	4013      	ands	r3, r2
 800037e:	60bb      	str	r3, [r7, #8]
 8000380:	68bb      	ldr	r3, [r7, #8]
  __HAL_RCC_GPIOA_CLK_ENABLE();
 8000382:	4b33      	ldr	r3, [pc, #204]	; (8000450 <MX_GPIO_Init+0xfc>)
 8000384:	6ada      	ldr	r2, [r3, #44]	; 0x2c
 8000386:	4b32      	ldr	r3, [pc, #200]	; (8000450 <MX_GPIO_Init+0xfc>)
 8000388:	2101      	movs	r1, #1
 800038a:	430a      	orrs	r2, r1
 800038c:	62da      	str	r2, [r3, #44]	; 0x2c
 800038e:	4b30      	ldr	r3, [pc, #192]	; (8000450 <MX_GPIO_Init+0xfc>)
 8000390:	6adb      	ldr	r3, [r3, #44]	; 0x2c
 8000392:	2201      	movs	r2, #1
 8000394:	4013      	ands	r3, r2
 8000396:	607b      	str	r3, [r7, #4]
 8000398:	687b      	ldr	r3, [r7, #4]
  __HAL_RCC_GPIOB_CLK_ENABLE();
 800039a:	4b2d      	ldr	r3, [pc, #180]	; (8000450 <MX_GPIO_Init+0xfc>)
 800039c:	6ada      	ldr	r2, [r3, #44]	; 0x2c
 800039e:	4b2c      	ldr	r3, [pc, #176]	; (8000450 <MX_GPIO_Init+0xfc>)
 80003a0:	2102      	movs	r1, #2
 80003a2:	430a      	orrs	r2, r1
 80003a4:	62da      	str	r2, [r3, #44]	; 0x2c
 80003a6:	4b2a      	ldr	r3, [pc, #168]	; (8000450 <MX_GPIO_Init+0xfc>)
 80003a8:	6adb      	ldr	r3, [r3, #44]	; 0x2c
 80003aa:	2202      	movs	r2, #2
 80003ac:	4013      	ands	r3, r2
 80003ae:	603b      	str	r3, [r7, #0]
 80003b0:	683b      	ldr	r3, [r7, #0]

  /*Configure GPIO pin Output Level */
  HAL_GPIO_WritePin(GPIOA, LED4_Pin|LED3_Pin|LED2_Pin|LED1_Pin 
 80003b2:	4928      	ldr	r1, [pc, #160]	; (8000454 <MX_GPIO_Init+0x100>)
 80003b4:	23a0      	movs	r3, #160	; 0xa0
 80003b6:	05db      	lsls	r3, r3, #23
 80003b8:	2200      	movs	r2, #0
 80003ba:	0018      	movs	r0, r3
 80003bc:	f000 fcde 	bl	8000d7c <HAL_GPIO_WritePin>
                          |LED5_Pin, GPIO_PIN_RESET);

  /*Configure GPIO pins : PC14 PC15 */
  GPIO_InitStruct.Pin = GPIO_PIN_14|GPIO_PIN_15;
 80003c0:	193b      	adds	r3, r7, r4
 80003c2:	22c0      	movs	r2, #192	; 0xc0
 80003c4:	0212      	lsls	r2, r2, #8
 80003c6:	601a      	str	r2, [r3, #0]
  GPIO_InitStruct.Mode = GPIO_MODE_ANALOG;
 80003c8:	193b      	adds	r3, r7, r4
 80003ca:	2203      	movs	r2, #3
 80003cc:	605a      	str	r2, [r3, #4]
  GPIO_InitStruct.Pull = GPIO_NOPULL;
 80003ce:	193b      	adds	r3, r7, r4
 80003d0:	2200      	movs	r2, #0
 80003d2:	609a      	str	r2, [r3, #8]
  HAL_GPIO_Init(GPIOC, &GPIO_InitStruct);
 80003d4:	193b      	adds	r3, r7, r4
 80003d6:	4a20      	ldr	r2, [pc, #128]	; (8000458 <MX_GPIO_Init+0x104>)
 80003d8:	0019      	movs	r1, r3
 80003da:	0010      	movs	r0, r2
 80003dc:	f000 fb68 	bl	8000ab0 <HAL_GPIO_Init>

  /*Configure GPIO pins : LED4_Pin LED3_Pin LED2_Pin LED1_Pin 
                           LED5_Pin */
  GPIO_InitStruct.Pin = LED4_Pin|LED3_Pin|LED2_Pin|LED1_Pin 
 80003e0:	193b      	adds	r3, r7, r4
 80003e2:	4a1c      	ldr	r2, [pc, #112]	; (8000454 <MX_GPIO_Init+0x100>)
 80003e4:	601a      	str	r2, [r3, #0]
                          |LED5_Pin;
  GPIO_InitStruct.Mode = GPIO_MODE_OUTPUT_PP;
 80003e6:	193b      	adds	r3, r7, r4
 80003e8:	2201      	movs	r2, #1
 80003ea:	605a      	str	r2, [r3, #4]
  GPIO_InitStruct.Pull = GPIO_NOPULL;
 80003ec:	193b      	adds	r3, r7, r4
 80003ee:	2200      	movs	r2, #0
 80003f0:	609a      	str	r2, [r3, #8]
  GPIO_InitStruct.Speed = GPIO_SPEED_FREQ_LOW;
 80003f2:	193b      	adds	r3, r7, r4
 80003f4:	2200      	movs	r2, #0
 80003f6:	60da      	str	r2, [r3, #12]
  HAL_GPIO_Init(GPIOA, &GPIO_InitStruct);
 80003f8:	193a      	adds	r2, r7, r4
 80003fa:	23a0      	movs	r3, #160	; 0xa0
 80003fc:	05db      	lsls	r3, r3, #23
 80003fe:	0011      	movs	r1, r2
 8000400:	0018      	movs	r0, r3
 8000402:	f000 fb55 	bl	8000ab0 <HAL_GPIO_Init>

  /*Configure GPIO pins : PA5 PA6 PA7 PA10 */
  GPIO_InitStruct.Pin = GPIO_PIN_5|GPIO_PIN_6|GPIO_PIN_7|GPIO_PIN_10;
 8000406:	193b      	adds	r3, r7, r4
 8000408:	229c      	movs	r2, #156	; 0x9c
 800040a:	00d2      	lsls	r2, r2, #3
 800040c:	601a      	str	r2, [r3, #0]
  GPIO_InitStruct.Mode = GPIO_MODE_ANALOG;
 800040e:	193b      	adds	r3, r7, r4
 8000410:	2203      	movs	r2, #3
 8000412:	605a      	str	r2, [r3, #4]
  GPIO_InitStruct.Pull = GPIO_NOPULL;
 8000414:	193b      	adds	r3, r7, r4
 8000416:	2200      	movs	r2, #0
 8000418:	609a      	str	r2, [r3, #8]
  HAL_GPIO_Init(GPIOA, &GPIO_InitStruct);
 800041a:	193a      	adds	r2, r7, r4
 800041c:	23a0      	movs	r3, #160	; 0xa0
 800041e:	05db      	lsls	r3, r3, #23
 8000420:	0011      	movs	r1, r2
 8000422:	0018      	movs	r0, r3
 8000424:	f000 fb44 	bl	8000ab0 <HAL_GPIO_Init>

  /*Configure GPIO pin : PB1 */
  GPIO_InitStruct.Pin = GPIO_PIN_1;
 8000428:	193b      	adds	r3, r7, r4
 800042a:	2202      	movs	r2, #2
 800042c:	601a      	str	r2, [r3, #0]
  GPIO_InitStruct.Mode = GPIO_MODE_ANALOG;
 800042e:	193b      	adds	r3, r7, r4
 8000430:	2203      	movs	r2, #3
 8000432:	605a      	str	r2, [r3, #4]
  GPIO_InitStruct.Pull = GPIO_NOPULL;
 8000434:	193b      	adds	r3, r7, r4
 8000436:	2200      	movs	r2, #0
 8000438:	609a      	str	r2, [r3, #8]
  HAL_GPIO_Init(GPIOB, &GPIO_InitStruct);
 800043a:	193b      	adds	r3, r7, r4
 800043c:	4a07      	ldr	r2, [pc, #28]	; (800045c <MX_GPIO_Init+0x108>)
 800043e:	0019      	movs	r1, r3
 8000440:	0010      	movs	r0, r2
 8000442:	f000 fb35 	bl	8000ab0 <HAL_GPIO_Init>

}
 8000446:	46c0      	nop			; (mov r8, r8)
 8000448:	46bd      	mov	sp, r7
 800044a:	b009      	add	sp, #36	; 0x24
 800044c:	bd90      	pop	{r4, r7, pc}
 800044e:	46c0      	nop			; (mov r8, r8)
 8000450:	40021000 	.word	0x40021000
 8000454:	0000021e 	.word	0x0000021e
 8000458:	50000800 	.word	0x50000800
 800045c:	50000400 	.word	0x50000400

08000460 <led1>:

/* USER CODE BEGIN 4 */
void led1(GPIO_PinState state){
 8000460:	b580      	push	{r7, lr}
 8000462:	b082      	sub	sp, #8
 8000464:	af00      	add	r7, sp, #0
 8000466:	0002      	movs	r2, r0
 8000468:	1dfb      	adds	r3, r7, #7
 800046a:	701a      	strb	r2, [r3, #0]
	HAL_GPIO_WritePin(LED1_GPIO_Port,LED1_Pin,state);
 800046c:	1dfb      	adds	r3, r7, #7
 800046e:	781a      	ldrb	r2, [r3, #0]
 8000470:	23a0      	movs	r3, #160	; 0xa0
 8000472:	05db      	lsls	r3, r3, #23
 8000474:	2110      	movs	r1, #16
 8000476:	0018      	movs	r0, r3
 8000478:	f000 fc80 	bl	8000d7c <HAL_GPIO_WritePin>
}
 800047c:	46c0      	nop			; (mov r8, r8)
 800047e:	46bd      	mov	sp, r7
 8000480:	b002      	add	sp, #8
 8000482:	bd80      	pop	{r7, pc}

08000484 <led2>:

void led2(GPIO_PinState state){
 8000484:	b580      	push	{r7, lr}
 8000486:	b082      	sub	sp, #8
 8000488:	af00      	add	r7, sp, #0
 800048a:	0002      	movs	r2, r0
 800048c:	1dfb      	adds	r3, r7, #7
 800048e:	701a      	strb	r2, [r3, #0]
	HAL_GPIO_WritePin(LED2_GPIO_Port,LED2_Pin,state);
 8000490:	1dfb      	adds	r3, r7, #7
 8000492:	781a      	ldrb	r2, [r3, #0]
 8000494:	23a0      	movs	r3, #160	; 0xa0
 8000496:	05db      	lsls	r3, r3, #23
 8000498:	2108      	movs	r1, #8
 800049a:	0018      	movs	r0, r3
 800049c:	f000 fc6e 	bl	8000d7c <HAL_GPIO_WritePin>
}
 80004a0:	46c0      	nop			; (mov r8, r8)
 80004a2:	46bd      	mov	sp, r7
 80004a4:	b002      	add	sp, #8
 80004a6:	bd80      	pop	{r7, pc}

080004a8 <led3>:

void led3(GPIO_PinState state){
 80004a8:	b580      	push	{r7, lr}
 80004aa:	b082      	sub	sp, #8
 80004ac:	af00      	add	r7, sp, #0
 80004ae:	0002      	movs	r2, r0
 80004b0:	1dfb      	adds	r3, r7, #7
 80004b2:	701a      	strb	r2, [r3, #0]
	HAL_GPIO_WritePin(LED3_GPIO_Port,LED3_Pin,state);
 80004b4:	1dfb      	adds	r3, r7, #7
 80004b6:	781a      	ldrb	r2, [r3, #0]
 80004b8:	23a0      	movs	r3, #160	; 0xa0
 80004ba:	05db      	lsls	r3, r3, #23
 80004bc:	2104      	movs	r1, #4
 80004be:	0018      	movs	r0, r3
 80004c0:	f000 fc5c 	bl	8000d7c <HAL_GPIO_WritePin>
}
 80004c4:	46c0      	nop			; (mov r8, r8)
 80004c6:	46bd      	mov	sp, r7
 80004c8:	b002      	add	sp, #8
 80004ca:	bd80      	pop	{r7, pc}

080004cc <led4>:

void led4(GPIO_PinState state){
 80004cc:	b580      	push	{r7, lr}
 80004ce:	b082      	sub	sp, #8
 80004d0:	af00      	add	r7, sp, #0
 80004d2:	0002      	movs	r2, r0
 80004d4:	1dfb      	adds	r3, r7, #7
 80004d6:	701a      	strb	r2, [r3, #0]
	HAL_GPIO_WritePin(LED4_GPIO_Port,LED4_Pin,state);
 80004d8:	1dfb      	adds	r3, r7, #7
 80004da:	781a      	ldrb	r2, [r3, #0]
 80004dc:	23a0      	movs	r3, #160	; 0xa0
 80004de:	05db      	lsls	r3, r3, #23
 80004e0:	2102      	movs	r1, #2
 80004e2:	0018      	movs	r0, r3
 80004e4:	f000 fc4a 	bl	8000d7c <HAL_GPIO_WritePin>
}
 80004e8:	46c0      	nop			; (mov r8, r8)
 80004ea:	46bd      	mov	sp, r7
 80004ec:	b002      	add	sp, #8
 80004ee:	bd80      	pop	{r7, pc}

080004f0 <led5>:

void led5(GPIO_PinState state){
 80004f0:	b580      	push	{r7, lr}
 80004f2:	b082      	sub	sp, #8
 80004f4:	af00      	add	r7, sp, #0
 80004f6:	0002      	movs	r2, r0
 80004f8:	1dfb      	adds	r3, r7, #7
 80004fa:	701a      	strb	r2, [r3, #0]
	HAL_GPIO_WritePin(LED5_GPIO_Port,LED5_Pin,state);
 80004fc:	1dfb      	adds	r3, r7, #7
 80004fe:	781a      	ldrb	r2, [r3, #0]
 8000500:	2380      	movs	r3, #128	; 0x80
 8000502:	0099      	lsls	r1, r3, #2
 8000504:	23a0      	movs	r3, #160	; 0xa0
 8000506:	05db      	lsls	r3, r3, #23
 8000508:	0018      	movs	r0, r3
 800050a:	f000 fc37 	bl	8000d7c <HAL_GPIO_WritePin>
}
 800050e:	46c0      	nop			; (mov r8, r8)
 8000510:	46bd      	mov	sp, r7
 8000512:	b002      	add	sp, #8
 8000514:	bd80      	pop	{r7, pc}

08000516 <wheel>:

void wheel(uint32_t delay){
 8000516:	b580      	push	{r7, lr}
 8000518:	b082      	sub	sp, #8
 800051a:	af00      	add	r7, sp, #0
 800051c:	6078      	str	r0, [r7, #4]
	led1(1);
 800051e:	2001      	movs	r0, #1
 8000520:	f7ff ff9e 	bl	8000460 <led1>
	HAL_Delay(delay);
 8000524:	687b      	ldr	r3, [r7, #4]
 8000526:	0018      	movs	r0, r3
 8000528:	f000 f9f0 	bl	800090c <HAL_Delay>
	led2(1);
 800052c:	2001      	movs	r0, #1
 800052e:	f7ff ffa9 	bl	8000484 <led2>
	HAL_Delay(delay);
 8000532:	687b      	ldr	r3, [r7, #4]
 8000534:	0018      	movs	r0, r3
 8000536:	f000 f9e9 	bl	800090c <HAL_Delay>
	led3(1);
 800053a:	2001      	movs	r0, #1
 800053c:	f7ff ffb4 	bl	80004a8 <led3>
	HAL_Delay(delay);
 8000540:	687b      	ldr	r3, [r7, #4]
 8000542:	0018      	movs	r0, r3
 8000544:	f000 f9e2 	bl	800090c <HAL_Delay>
	led4(1);
 8000548:	2001      	movs	r0, #1
 800054a:	f7ff ffbf 	bl	80004cc <led4>
	HAL_Delay(delay);
 800054e:	687b      	ldr	r3, [r7, #4]
 8000550:	0018      	movs	r0, r3
 8000552:	f000 f9db 	bl	800090c <HAL_Delay>
	led5(1);
 8000556:	2001      	movs	r0, #1
 8000558:	f7ff ffca 	bl	80004f0 <led5>
	HAL_Delay(delay);
 800055c:	687b      	ldr	r3, [r7, #4]
 800055e:	0018      	movs	r0, r3
 8000560:	f000 f9d4 	bl	800090c <HAL_Delay>
	led1(0);
 8000564:	2000      	movs	r0, #0
 8000566:	f7ff ff7b 	bl	8000460 <led1>
	HAL_Delay(delay);
 800056a:	687b      	ldr	r3, [r7, #4]
 800056c:	0018      	movs	r0, r3
 800056e:	f000 f9cd 	bl	800090c <HAL_Delay>
	led2(0);
 8000572:	2000      	movs	r0, #0
 8000574:	f7ff ff86 	bl	8000484 <led2>
	HAL_Delay(delay);
 8000578:	687b      	ldr	r3, [r7, #4]
 800057a:	0018      	movs	r0, r3
 800057c:	f000 f9c6 	bl	800090c <HAL_Delay>
	led3(0);
 8000580:	2000      	movs	r0, #0
 8000582:	f7ff ff91 	bl	80004a8 <led3>
	HAL_Delay(delay);
 8000586:	687b      	ldr	r3, [r7, #4]
 8000588:	0018      	movs	r0, r3
 800058a:	f000 f9bf 	bl	800090c <HAL_Delay>
	led4(0);
 800058e:	2000      	movs	r0, #0
 8000590:	f7ff ff9c 	bl	80004cc <led4>
	HAL_Delay(delay);
 8000594:	687b      	ldr	r3, [r7, #4]
 8000596:	0018      	movs	r0, r3
 8000598:	f000 f9b8 	bl	800090c <HAL_Delay>
	led5(0);
 800059c:	2000      	movs	r0, #0
 800059e:	f7ff ffa7 	bl	80004f0 <led5>
	HAL_Delay(delay);
 80005a2:	687b      	ldr	r3, [r7, #4]
 80005a4:	0018      	movs	r0, r3
 80005a6:	f000 f9b1 	bl	800090c <HAL_Delay>
}
 80005aa:	46c0      	nop			; (mov r8, r8)
 80005ac:	46bd      	mov	sp, r7
 80005ae:	b002      	add	sp, #8
 80005b0:	bd80      	pop	{r7, pc}

080005b2 <half_wheel>:

void half_wheel(uint32_t delay){
 80005b2:	b580      	push	{r7, lr}
 80005b4:	b082      	sub	sp, #8
 80005b6:	af00      	add	r7, sp, #0
 80005b8:	6078      	str	r0, [r7, #4]
	led1(1);
 80005ba:	2001      	movs	r0, #1
 80005bc:	f7ff ff50 	bl	8000460 <led1>
	HAL_Delay(delay);
 80005c0:	687b      	ldr	r3, [r7, #4]
 80005c2:	0018      	movs	r0, r3
 80005c4:	f000 f9a2 	bl	800090c <HAL_Delay>
	led2(1);
 80005c8:	2001      	movs	r0, #1
 80005ca:	f7ff ff5b 	bl	8000484 <led2>
	HAL_Delay(delay);
 80005ce:	687b      	ldr	r3, [r7, #4]
 80005d0:	0018      	movs	r0, r3
 80005d2:	f000 f99b 	bl	800090c <HAL_Delay>
	led3(1);
 80005d6:	2001      	movs	r0, #1
 80005d8:	f7ff ff66 	bl	80004a8 <led3>
	HAL_Delay(delay);
 80005dc:	687b      	ldr	r3, [r7, #4]
 80005de:	0018      	movs	r0, r3
 80005e0:	f000 f994 	bl	800090c <HAL_Delay>
	led4(1);
 80005e4:	2001      	movs	r0, #1
 80005e6:	f7ff ff71 	bl	80004cc <led4>
	HAL_Delay(delay);
 80005ea:	687b      	ldr	r3, [r7, #4]
 80005ec:	0018      	movs	r0, r3
 80005ee:	f000 f98d 	bl	800090c <HAL_Delay>
	led5(1);
 80005f2:	2001      	movs	r0, #1
 80005f4:	f7ff ff7c 	bl	80004f0 <led5>
	HAL_Delay(delay);
 80005f8:	687b      	ldr	r3, [r7, #4]
 80005fa:	0018      	movs	r0, r3
 80005fc:	f000 f986 	bl	800090c <HAL_Delay>
}
 8000600:	46c0      	nop			; (mov r8, r8)
 8000602:	46bd      	mov	sp, r7
 8000604:	b002      	add	sp, #8
 8000606:	bd80      	pop	{r7, pc}

08000608 <onoff>:

void onoff(uint32_t delay) {
 8000608:	b580      	push	{r7, lr}
 800060a:	b082      	sub	sp, #8
 800060c:	af00      	add	r7, sp, #0
 800060e:	6078      	str	r0, [r7, #4]
	HAL_Delay(delay);
 8000610:	687b      	ldr	r3, [r7, #4]
 8000612:	0018      	movs	r0, r3
 8000614:	f000 f97a 	bl	800090c <HAL_Delay>
	led1(1);
 8000618:	2001      	movs	r0, #1
 800061a:	f7ff ff21 	bl	8000460 <led1>
	led2(1);
 800061e:	2001      	movs	r0, #1
 8000620:	f7ff ff30 	bl	8000484 <led2>
	led3(1);
 8000624:	2001      	movs	r0, #1
 8000626:	f7ff ff3f 	bl	80004a8 <led3>
	led4(1);
 800062a:	2001      	movs	r0, #1
 800062c:	f7ff ff4e 	bl	80004cc <led4>
	led5(1);
 8000630:	2001      	movs	r0, #1
 8000632:	f7ff ff5d 	bl	80004f0 <led5>
	HAL_Delay(delay);
 8000636:	687b      	ldr	r3, [r7, #4]
 8000638:	0018      	movs	r0, r3
 800063a:	f000 f967 	bl	800090c <HAL_Delay>
	led1(0);
 800063e:	2000      	movs	r0, #0
 8000640:	f7ff ff0e 	bl	8000460 <led1>
	led2(0);
 8000644:	2000      	movs	r0, #0
 8000646:	f7ff ff1d 	bl	8000484 <led2>
	led3(0);
 800064a:	2000      	movs	r0, #0
 800064c:	f7ff ff2c 	bl	80004a8 <led3>
	led4(0);
 8000650:	2000      	movs	r0, #0
 8000652:	f7ff ff3b 	bl	80004cc <led4>
	led5(0);
 8000656:	2000      	movs	r0, #0
 8000658:	f7ff ff4a 	bl	80004f0 <led5>
}
 800065c:	46c0      	nop			; (mov r8, r8)
 800065e:	46bd      	mov	sp, r7
 8000660:	b002      	add	sp, #8
 8000662:	bd80      	pop	{r7, pc}

08000664 <delay_onoff>:

void delay_onoff(uint32_t delay){
 8000664:	b580      	push	{r7, lr}
 8000666:	b082      	sub	sp, #8
 8000668:	af00      	add	r7, sp, #0
 800066a:	6078      	str	r0, [r7, #4]
	HAL_Delay(delay);
 800066c:	687b      	ldr	r3, [r7, #4]
 800066e:	0018      	movs	r0, r3
 8000670:	f000 f94c 	bl	800090c <HAL_Delay>
	led1(0);
 8000674:	2000      	movs	r0, #0
 8000676:	f7ff fef3 	bl	8000460 <led1>
	led2(0);
 800067a:	2000      	movs	r0, #0
 800067c:	f7ff ff02 	bl	8000484 <led2>
	led3(0);
 8000680:	2000      	movs	r0, #0
 8000682:	f7ff ff11 	bl	80004a8 <led3>
	led4(0);
 8000686:	2000      	movs	r0, #0
 8000688:	f7ff ff20 	bl	80004cc <led4>
	led5(0);
 800068c:	2000      	movs	r0, #0
 800068e:	f7ff ff2f 	bl	80004f0 <led5>
}
 8000692:	46c0      	nop			; (mov r8, r8)
 8000694:	46bd      	mov	sp, r7
 8000696:	b002      	add	sp, #8
 8000698:	bd80      	pop	{r7, pc}
	...

0800069c <go_to_sleep>:

void go_to_sleep(){
 800069c:	b580      	push	{r7, lr}
 800069e:	af00      	add	r7, sp, #0
	HAL_PWREx_EnableUltraLowPower();
 80006a0:	f000 fbd0 	bl	8000e44 <HAL_PWREx_EnableUltraLowPower>
	HAL_PWREx_EnableFastWakeUp();
 80006a4:	f000 fbc0 	bl	8000e28 <HAL_PWREx_EnableFastWakeUp>
	__HAL_PWR_CLEAR_FLAG(PWR_FLAG_SB);
 80006a8:	4b0d      	ldr	r3, [pc, #52]	; (80006e0 <go_to_sleep+0x44>)
 80006aa:	681a      	ldr	r2, [r3, #0]
 80006ac:	4b0c      	ldr	r3, [pc, #48]	; (80006e0 <go_to_sleep+0x44>)
 80006ae:	2108      	movs	r1, #8
 80006b0:	430a      	orrs	r2, r1
 80006b2:	601a      	str	r2, [r3, #0]
	HAL_PWR_DisableWakeUpPin(PWR_WAKEUP_PIN1);
 80006b4:	2380      	movs	r3, #128	; 0x80
 80006b6:	005b      	lsls	r3, r3, #1
 80006b8:	0018      	movs	r0, r3
 80006ba:	f000 fb8d 	bl	8000dd8 <HAL_PWR_DisableWakeUpPin>
	__HAL_PWR_CLEAR_FLAG(PWR_FLAG_WU);
 80006be:	4b08      	ldr	r3, [pc, #32]	; (80006e0 <go_to_sleep+0x44>)
 80006c0:	681a      	ldr	r2, [r3, #0]
 80006c2:	4b07      	ldr	r3, [pc, #28]	; (80006e0 <go_to_sleep+0x44>)
 80006c4:	2104      	movs	r1, #4
 80006c6:	430a      	orrs	r2, r1
 80006c8:	601a      	str	r2, [r3, #0]
	HAL_PWR_EnableWakeUpPin(PWR_WAKEUP_PIN1);
 80006ca:	2380      	movs	r3, #128	; 0x80
 80006cc:	005b      	lsls	r3, r3, #1
 80006ce:	0018      	movs	r0, r3
 80006d0:	f000 fb72 	bl	8000db8 <HAL_PWR_EnableWakeUpPin>
	HAL_PWR_EnterSTANDBYMode();
 80006d4:	f000 fb92 	bl	8000dfc <HAL_PWR_EnterSTANDBYMode>
}
 80006d8:	46c0      	nop			; (mov r8, r8)
 80006da:	46bd      	mov	sp, r7
 80006dc:	bd80      	pop	{r7, pc}
 80006de:	46c0      	nop			; (mov r8, r8)
 80006e0:	40007000 	.word	0x40007000

080006e4 <Error_Handler>:
/**
  * @brief  This function is executed in case of error occurrence.
  * @retval None
  */
void Error_Handler(void)
{
 80006e4:	b580      	push	{r7, lr}
 80006e6:	af00      	add	r7, sp, #0
  /* USER CODE BEGIN Error_Handler_Debug */
  /* User can add his own implementation to report the HAL error return state */

  /* USER CODE END Error_Handler_Debug */
}
 80006e8:	46c0      	nop			; (mov r8, r8)
 80006ea:	46bd      	mov	sp, r7
 80006ec:	bd80      	pop	{r7, pc}
	...

080006f0 <HAL_MspInit>:
/* USER CODE END 0 */
/**
  * Initializes the Global MSP.
  */
void HAL_MspInit(void)
{
 80006f0:	b580      	push	{r7, lr}
 80006f2:	af00      	add	r7, sp, #0
  /* USER CODE BEGIN MspInit 0 */

  /* USER CODE END MspInit 0 */

  __HAL_RCC_SYSCFG_CLK_ENABLE();
 80006f4:	4b07      	ldr	r3, [pc, #28]	; (8000714 <HAL_MspInit+0x24>)
 80006f6:	6b5a      	ldr	r2, [r3, #52]	; 0x34
 80006f8:	4b06      	ldr	r3, [pc, #24]	; (8000714 <HAL_MspInit+0x24>)
 80006fa:	2101      	movs	r1, #1
 80006fc:	430a      	orrs	r2, r1
 80006fe:	635a      	str	r2, [r3, #52]	; 0x34
  __HAL_RCC_PWR_CLK_ENABLE();
 8000700:	4b04      	ldr	r3, [pc, #16]	; (8000714 <HAL_MspInit+0x24>)
 8000702:	6b9a      	ldr	r2, [r3, #56]	; 0x38
 8000704:	4b03      	ldr	r3, [pc, #12]	; (8000714 <HAL_MspInit+0x24>)
 8000706:	2180      	movs	r1, #128	; 0x80
 8000708:	0549      	lsls	r1, r1, #21
 800070a:	430a      	orrs	r2, r1
 800070c:	639a      	str	r2, [r3, #56]	; 0x38
  /* System interrupt init*/

  /* USER CODE BEGIN MspInit 1 */

  /* USER CODE END MspInit 1 */
}
 800070e:	46c0      	nop			; (mov r8, r8)
 8000710:	46bd      	mov	sp, r7
 8000712:	bd80      	pop	{r7, pc}
 8000714:	40021000 	.word	0x40021000

08000718 <NMI_Handler>:
/******************************************************************************/
/**
  * @brief This function handles Non maskable interrupt.
  */
void NMI_Handler(void)
{
 8000718:	b580      	push	{r7, lr}
 800071a:	af00      	add	r7, sp, #0

  /* USER CODE END NonMaskableInt_IRQn 0 */
  /* USER CODE BEGIN NonMaskableInt_IRQn 1 */

  /* USER CODE END NonMaskableInt_IRQn 1 */
}
 800071c:	46c0      	nop			; (mov r8, r8)
 800071e:	46bd      	mov	sp, r7
 8000720:	bd80      	pop	{r7, pc}

08000722 <HardFault_Handler>:

/**
  * @brief This function handles Hard fault interrupt.
  */
void HardFault_Handler(void)
{
 8000722:	b580      	push	{r7, lr}
 8000724:	af00      	add	r7, sp, #0
  /* USER CODE BEGIN HardFault_IRQn 0 */

  /* USER CODE END HardFault_IRQn 0 */
  while (1)
 8000726:	e7fe      	b.n	8000726 <HardFault_Handler+0x4>

08000728 <SVC_Handler>:

/**
  * @brief This function handles System service call via SWI instruction.
  */
void SVC_Handler(void)
{
 8000728:	b580      	push	{r7, lr}
 800072a:	af00      	add	r7, sp, #0

  /* USER CODE END SVC_IRQn 0 */
  /* USER CODE BEGIN SVC_IRQn 1 */

  /* USER CODE END SVC_IRQn 1 */
}
 800072c:	46c0      	nop			; (mov r8, r8)
 800072e:	46bd      	mov	sp, r7
 8000730:	bd80      	pop	{r7, pc}

08000732 <PendSV_Handler>:

/**
  * @brief This function handles Pendable request for system service.
  */
void PendSV_Handler(void)
{
 8000732:	b580      	push	{r7, lr}
 8000734:	af00      	add	r7, sp, #0

  /* USER CODE END PendSV_IRQn 0 */
  /* USER CODE BEGIN PendSV_IRQn 1 */

  /* USER CODE END PendSV_IRQn 1 */
}
 8000736:	46c0      	nop			; (mov r8, r8)
 8000738:	46bd      	mov	sp, r7
 800073a:	bd80      	pop	{r7, pc}

0800073c <SysTick_Handler>:

/**
  * @brief This function handles System tick timer.
  */
void SysTick_Handler(void)
{
 800073c:	b580      	push	{r7, lr}
 800073e:	af00      	add	r7, sp, #0
  /* USER CODE BEGIN SysTick_IRQn 0 */

  /* USER CODE END SysTick_IRQn 0 */
  HAL_IncTick();
 8000740:	f000 f8ce 	bl	80008e0 <HAL_IncTick>
  /* USER CODE BEGIN SysTick_IRQn 1 */

  /* USER CODE END SysTick_IRQn 1 */
}
 8000744:	46c0      	nop			; (mov r8, r8)
 8000746:	46bd      	mov	sp, r7
 8000748:	bd80      	pop	{r7, pc}
	...

0800074c <SystemInit>:
  * @brief  Setup the microcontroller system.
  * @param  None
  * @retval None
  */
void SystemInit (void)
{
 800074c:	b580      	push	{r7, lr}
 800074e:	af00      	add	r7, sp, #0
/*!< Set MSION bit */
  RCC->CR |= (uint32_t)0x00000100U;
 8000750:	4b17      	ldr	r3, [pc, #92]	; (80007b0 <SystemInit+0x64>)
 8000752:	681a      	ldr	r2, [r3, #0]
 8000754:	4b16      	ldr	r3, [pc, #88]	; (80007b0 <SystemInit+0x64>)
 8000756:	2180      	movs	r1, #128	; 0x80
 8000758:	0049      	lsls	r1, r1, #1
 800075a:	430a      	orrs	r2, r1
 800075c:	601a      	str	r2, [r3, #0]

  /*!< Reset SW[1:0], HPRE[3:0], PPRE1[2:0], PPRE2[2:0], MCOSEL[2:0] and MCOPRE[2:0] bits */
  RCC->CFGR &= (uint32_t) 0x88FF400CU;
 800075e:	4b14      	ldr	r3, [pc, #80]	; (80007b0 <SystemInit+0x64>)
 8000760:	68da      	ldr	r2, [r3, #12]
 8000762:	4b13      	ldr	r3, [pc, #76]	; (80007b0 <SystemInit+0x64>)
 8000764:	4913      	ldr	r1, [pc, #76]	; (80007b4 <SystemInit+0x68>)
 8000766:	400a      	ands	r2, r1
 8000768:	60da      	str	r2, [r3, #12]

  /*!< Reset HSION, HSIDIVEN, HSEON, CSSON and PLLON bits */
  RCC->CR &= (uint32_t)0xFEF6FFF6U;
 800076a:	4b11      	ldr	r3, [pc, #68]	; (80007b0 <SystemInit+0x64>)
 800076c:	681a      	ldr	r2, [r3, #0]
 800076e:	4b10      	ldr	r3, [pc, #64]	; (80007b0 <SystemInit+0x64>)
 8000770:	4911      	ldr	r1, [pc, #68]	; (80007b8 <SystemInit+0x6c>)
 8000772:	400a      	ands	r2, r1
 8000774:	601a      	str	r2, [r3, #0]

  /*!< Reset HSI48ON  bit */
  RCC->CRRCR &= (uint32_t)0xFFFFFFFEU;
 8000776:	4b0e      	ldr	r3, [pc, #56]	; (80007b0 <SystemInit+0x64>)
 8000778:	689a      	ldr	r2, [r3, #8]
 800077a:	4b0d      	ldr	r3, [pc, #52]	; (80007b0 <SystemInit+0x64>)
 800077c:	2101      	movs	r1, #1
 800077e:	438a      	bics	r2, r1
 8000780:	609a      	str	r2, [r3, #8]

  /*!< Reset HSEBYP bit */
  RCC->CR &= (uint32_t)0xFFFBFFFFU;
 8000782:	4b0b      	ldr	r3, [pc, #44]	; (80007b0 <SystemInit+0x64>)
 8000784:	681a      	ldr	r2, [r3, #0]
 8000786:	4b0a      	ldr	r3, [pc, #40]	; (80007b0 <SystemInit+0x64>)
 8000788:	490c      	ldr	r1, [pc, #48]	; (80007bc <SystemInit+0x70>)
 800078a:	400a      	ands	r2, r1
 800078c:	601a      	str	r2, [r3, #0]

  /*!< Reset PLLSRC, PLLMUL[3:0] and PLLDIV[1:0] bits */
  RCC->CFGR &= (uint32_t)0xFF02FFFFU;
 800078e:	4b08      	ldr	r3, [pc, #32]	; (80007b0 <SystemInit+0x64>)
 8000790:	68da      	ldr	r2, [r3, #12]
 8000792:	4b07      	ldr	r3, [pc, #28]	; (80007b0 <SystemInit+0x64>)
 8000794:	490a      	ldr	r1, [pc, #40]	; (80007c0 <SystemInit+0x74>)
 8000796:	400a      	ands	r2, r1
 8000798:	60da      	str	r2, [r3, #12]

  /*!< Disable all interrupts */
  RCC->CIER = 0x00000000U;
 800079a:	4b05      	ldr	r3, [pc, #20]	; (80007b0 <SystemInit+0x64>)
 800079c:	2200      	movs	r2, #0
 800079e:	611a      	str	r2, [r3, #16]

  /* Configure the Vector Table location add offset address ------------------*/
#ifdef VECT_TAB_SRAM
  SCB->VTOR = SRAM_BASE | VECT_TAB_OFFSET; /* Vector Table Relocation in Internal SRAM */
#else
  SCB->VTOR = FLASH_BASE | VECT_TAB_OFFSET; /* Vector Table Relocation in Internal FLASH */
 80007a0:	4b08      	ldr	r3, [pc, #32]	; (80007c4 <SystemInit+0x78>)
 80007a2:	2280      	movs	r2, #128	; 0x80
 80007a4:	0512      	lsls	r2, r2, #20
 80007a6:	609a      	str	r2, [r3, #8]
#endif
}
 80007a8:	46c0      	nop			; (mov r8, r8)
 80007aa:	46bd      	mov	sp, r7
 80007ac:	bd80      	pop	{r7, pc}
 80007ae:	46c0      	nop			; (mov r8, r8)
 80007b0:	40021000 	.word	0x40021000
 80007b4:	88ff400c 	.word	0x88ff400c
 80007b8:	fef6fff6 	.word	0xfef6fff6
 80007bc:	fffbffff 	.word	0xfffbffff
 80007c0:	ff02ffff 	.word	0xff02ffff
 80007c4:	e000ed00 	.word	0xe000ed00

080007c8 <Reset_Handler>:

    .section  .text.Reset_Handler
  .weak  Reset_Handler
  .type  Reset_Handler, %function
Reset_Handler:  
   ldr   r0, =_estack
 80007c8:	4813      	ldr	r0, [pc, #76]	; (8000818 <LoopForever+0x2>)
   mov   sp, r0          /* set stack pointer */
 80007ca:	4685      	mov	sp, r0

/*Check if boot space corresponds to system memory*/

    LDR R0,=0x00000004
 80007cc:	4813      	ldr	r0, [pc, #76]	; (800081c <LoopForever+0x6>)
    LDR R1, [R0]
 80007ce:	6801      	ldr	r1, [r0, #0]
    LSRS R1, R1, #24
 80007d0:	0e09      	lsrs	r1, r1, #24
    LDR R2,=0x1F
 80007d2:	4a13      	ldr	r2, [pc, #76]	; (8000820 <LoopForever+0xa>)
    CMP R1, R2
 80007d4:	4291      	cmp	r1, r2
    BNE ApplicationStart
 80007d6:	d105      	bne.n	80007e4 <ApplicationStart>

 /*SYSCFG clock enable*/
    LDR R0,=0x40021034
 80007d8:	4812      	ldr	r0, [pc, #72]	; (8000824 <LoopForever+0xe>)
    LDR R1,=0x00000001
 80007da:	4913      	ldr	r1, [pc, #76]	; (8000828 <LoopForever+0x12>)
    STR R1, [R0]
 80007dc:	6001      	str	r1, [r0, #0]

/*Set CFGR1 register with flash memory remap at address 0*/
    LDR R0,=0x40010000
 80007de:	4813      	ldr	r0, [pc, #76]	; (800082c <LoopForever+0x16>)
    LDR R1,=0x00000000
 80007e0:	4913      	ldr	r1, [pc, #76]	; (8000830 <LoopForever+0x1a>)
    STR R1, [R0]
 80007e2:	6001      	str	r1, [r0, #0]

080007e4 <ApplicationStart>:

ApplicationStart:
/* Copy the data segment initializers from flash to SRAM */
  movs  r1, #0
 80007e4:	2100      	movs	r1, #0
  b  LoopCopyDataInit
 80007e6:	e003      	b.n	80007f0 <LoopCopyDataInit>

080007e8 <CopyDataInit>:

CopyDataInit:
  ldr  r3, =_sidata
 80007e8:	4b12      	ldr	r3, [pc, #72]	; (8000834 <LoopForever+0x1e>)
  ldr  r3, [r3, r1]
 80007ea:	585b      	ldr	r3, [r3, r1]
  str  r3, [r0, r1]
 80007ec:	5043      	str	r3, [r0, r1]
  adds  r1, r1, #4
 80007ee:	3104      	adds	r1, #4

080007f0 <LoopCopyDataInit>:

LoopCopyDataInit:
  ldr  r0, =_sdata
 80007f0:	4811      	ldr	r0, [pc, #68]	; (8000838 <LoopForever+0x22>)
  ldr  r3, =_edata
 80007f2:	4b12      	ldr	r3, [pc, #72]	; (800083c <LoopForever+0x26>)
  adds  r2, r0, r1
 80007f4:	1842      	adds	r2, r0, r1
  cmp  r2, r3
 80007f6:	429a      	cmp	r2, r3
  bcc  CopyDataInit
 80007f8:	d3f6      	bcc.n	80007e8 <CopyDataInit>
  ldr  r2, =_sbss
 80007fa:	4a11      	ldr	r2, [pc, #68]	; (8000840 <LoopForever+0x2a>)
  b  LoopFillZerobss
 80007fc:	e002      	b.n	8000804 <LoopFillZerobss>

080007fe <FillZerobss>:
/* Zero fill the bss segment. */
FillZerobss:
  movs  r3, #0
 80007fe:	2300      	movs	r3, #0
  str  r3, [r2]
 8000800:	6013      	str	r3, [r2, #0]
  adds r2, r2, #4
 8000802:	3204      	adds	r2, #4

08000804 <LoopFillZerobss>:


LoopFillZerobss:
  ldr  r3, = _ebss
 8000804:	4b0f      	ldr	r3, [pc, #60]	; (8000844 <LoopForever+0x2e>)
  cmp  r2, r3
 8000806:	429a      	cmp	r2, r3
  bcc  FillZerobss
 8000808:	d3f9      	bcc.n	80007fe <FillZerobss>

/* Call the clock system intitialization function.*/
  bl  SystemInit
 800080a:	f7ff ff9f 	bl	800074c <SystemInit>
/* Call static constructors */
    bl __libc_init_array
 800080e:	f001 f84f 	bl	80018b0 <__libc_init_array>
/* Call the application's entry point.*/
  bl  main
 8000812:	f7ff fd05 	bl	8000220 <main>

08000816 <LoopForever>:

LoopForever:
    b LoopForever
 8000816:	e7fe      	b.n	8000816 <LoopForever>
   ldr   r0, =_estack
 8000818:	20000800 	.word	0x20000800
    LDR R0,=0x00000004
 800081c:	00000004 	.word	0x00000004
    LDR R2,=0x1F
 8000820:	0000001f 	.word	0x0000001f
    LDR R0,=0x40021034
 8000824:	40021034 	.word	0x40021034
    LDR R1,=0x00000001
 8000828:	00000001 	.word	0x00000001
    LDR R0,=0x40010000
 800082c:	40010000 	.word	0x40010000
    LDR R1,=0x00000000
 8000830:	00000000 	.word	0x00000000
  ldr  r3, =_sidata
 8000834:	08001944 	.word	0x08001944
  ldr  r0, =_sdata
 8000838:	20000000 	.word	0x20000000
  ldr  r3, =_edata
 800083c:	20000004 	.word	0x20000004
  ldr  r2, =_sbss
 8000840:	20000004 	.word	0x20000004
  ldr  r3, = _ebss
 8000844:	20000024 	.word	0x20000024

08000848 <ADC1_COMP_IRQHandler>:
 * @retval : None
*/
    .section  .text.Default_Handler,"ax",%progbits
Default_Handler:
Infinite_Loop:
  b  Infinite_Loop
 8000848:	e7fe      	b.n	8000848 <ADC1_COMP_IRQHandler>
	...

0800084c <HAL_Init>:
  *        In the default implementation,Systick is used as source of time base.
  *        the tick variable is incremented each 1ms in its ISR.
  * @retval HAL status
  */
HAL_StatusTypeDef HAL_Init(void)
{
 800084c:	b580      	push	{r7, lr}
 800084e:	b082      	sub	sp, #8
 8000850:	af00      	add	r7, sp, #0
  HAL_StatusTypeDef  status = HAL_OK;
 8000852:	1dfb      	adds	r3, r7, #7
 8000854:	2200      	movs	r2, #0
 8000856:	701a      	strb	r2, [r3, #0]
#if (BUFFER_CACHE_DISABLE != 0)
  __HAL_FLASH_BUFFER_CACHE_DISABLE();
#endif /* BUFFER_CACHE_DISABLE */

#if (PREREAD_ENABLE != 0)
  __HAL_FLASH_PREREAD_BUFFER_ENABLE();
 8000858:	4b0b      	ldr	r3, [pc, #44]	; (8000888 <HAL_Init+0x3c>)
 800085a:	681a      	ldr	r2, [r3, #0]
 800085c:	4b0a      	ldr	r3, [pc, #40]	; (8000888 <HAL_Init+0x3c>)
 800085e:	2140      	movs	r1, #64	; 0x40
 8000860:	430a      	orrs	r2, r1
 8000862:	601a      	str	r2, [r3, #0]
#if (PREFETCH_ENABLE != 0)
  __HAL_FLASH_PREFETCH_BUFFER_ENABLE();
#endif /* PREFETCH_ENABLE */

  /* Use SysTick as time base source and configure 1ms tick (default clock after Reset is MSI) */
  if (HAL_InitTick(TICK_INT_PRIORITY) != HAL_OK)
 8000864:	2000      	movs	r0, #0
 8000866:	f000 f811 	bl	800088c <HAL_InitTick>
 800086a:	1e03      	subs	r3, r0, #0
 800086c:	d003      	beq.n	8000876 <HAL_Init+0x2a>
  {
    status = HAL_ERROR;
 800086e:	1dfb      	adds	r3, r7, #7
 8000870:	2201      	movs	r2, #1
 8000872:	701a      	strb	r2, [r3, #0]
 8000874:	e001      	b.n	800087a <HAL_Init+0x2e>
  }
  else
  {
    /* Init the low level hardware */
    HAL_MspInit();
 8000876:	f7ff ff3b 	bl	80006f0 <HAL_MspInit>
  }

  /* Return function status */
  return status;
 800087a:	1dfb      	adds	r3, r7, #7
 800087c:	781b      	ldrb	r3, [r3, #0]
}
 800087e:	0018      	movs	r0, r3
 8000880:	46bd      	mov	sp, r7
 8000882:	b002      	add	sp, #8
 8000884:	bd80      	pop	{r7, pc}
 8000886:	46c0      	nop			; (mov r8, r8)
 8000888:	40022000 	.word	0x40022000

0800088c <HAL_InitTick>:
  *       implementation  in user file.
  * @param TickPriority Tick interrupt priority.
  * @retval HAL status
  */
__weak HAL_StatusTypeDef HAL_InitTick(uint32_t TickPriority)
{
 800088c:	b580      	push	{r7, lr}
 800088e:	b084      	sub	sp, #16
 8000890:	af00      	add	r7, sp, #0
 8000892:	6078      	str	r0, [r7, #4]
  HAL_StatusTypeDef  status = HAL_OK;
 8000894:	230f      	movs	r3, #15
 8000896:	18fb      	adds	r3, r7, r3
 8000898:	2200      	movs	r2, #0
 800089a:	701a      	strb	r2, [r3, #0]

  /*Configure the SysTick to have interrupt in 1ms time basis*/
  if (HAL_SYSTICK_Config(SystemCoreClock/1000UL) != 0U)
 800089c:	4b0f      	ldr	r3, [pc, #60]	; (80008dc <HAL_InitTick+0x50>)
 800089e:	681a      	ldr	r2, [r3, #0]
 80008a0:	23fa      	movs	r3, #250	; 0xfa
 80008a2:	0099      	lsls	r1, r3, #2
 80008a4:	0010      	movs	r0, r2
 80008a6:	f7ff fc2f 	bl	8000108 <__udivsi3>
 80008aa:	0003      	movs	r3, r0
 80008ac:	0018      	movs	r0, r3
 80008ae:	f000 f8f2 	bl	8000a96 <HAL_SYSTICK_Config>
 80008b2:	1e03      	subs	r3, r0, #0
 80008b4:	d004      	beq.n	80008c0 <HAL_InitTick+0x34>
  {
    status = HAL_ERROR;
 80008b6:	230f      	movs	r3, #15
 80008b8:	18fb      	adds	r3, r7, r3
 80008ba:	2201      	movs	r2, #1
 80008bc:	701a      	strb	r2, [r3, #0]
 80008be:	e006      	b.n	80008ce <HAL_InitTick+0x42>
  }
  else
  {
    /*Configure the SysTick IRQ priority */
    HAL_NVIC_SetPriority(SysTick_IRQn, TickPriority, 0);
 80008c0:	6879      	ldr	r1, [r7, #4]
 80008c2:	2301      	movs	r3, #1
 80008c4:	425b      	negs	r3, r3
 80008c6:	2200      	movs	r2, #0
 80008c8:	0018      	movs	r0, r3
 80008ca:	f000 f8cf 	bl	8000a6c <HAL_NVIC_SetPriority>
  }

  /* Return function status */
  return status;
 80008ce:	230f      	movs	r3, #15
 80008d0:	18fb      	adds	r3, r7, r3
 80008d2:	781b      	ldrb	r3, [r3, #0]
}
 80008d4:	0018      	movs	r0, r3
 80008d6:	46bd      	mov	sp, r7
 80008d8:	b004      	add	sp, #16
 80008da:	bd80      	pop	{r7, pc}
 80008dc:	20000000 	.word	0x20000000

080008e0 <HAL_IncTick>:
 * @note This function is declared as __weak to be overwritten in case of other
  *      implementations in user file.
  * @retval None
  */
__weak void HAL_IncTick(void)
{
 80008e0:	b580      	push	{r7, lr}
 80008e2:	af00      	add	r7, sp, #0
  uwTick++;
 80008e4:	4b03      	ldr	r3, [pc, #12]	; (80008f4 <HAL_IncTick+0x14>)
 80008e6:	681b      	ldr	r3, [r3, #0]
 80008e8:	1c5a      	adds	r2, r3, #1
 80008ea:	4b02      	ldr	r3, [pc, #8]	; (80008f4 <HAL_IncTick+0x14>)
 80008ec:	601a      	str	r2, [r3, #0]
}
 80008ee:	46c0      	nop			; (mov r8, r8)
 80008f0:	46bd      	mov	sp, r7
 80008f2:	bd80      	pop	{r7, pc}
 80008f4:	20000020 	.word	0x20000020

080008f8 <HAL_GetTick>:
  * @note This function is declared as __weak to be overwritten in case of other
  *       implementations in user file.
  * @retval tick value
  */
__weak uint32_t HAL_GetTick(void)
{
 80008f8:	b580      	push	{r7, lr}
 80008fa:	af00      	add	r7, sp, #0
  return uwTick;
 80008fc:	4b02      	ldr	r3, [pc, #8]	; (8000908 <HAL_GetTick+0x10>)
 80008fe:	681b      	ldr	r3, [r3, #0]
}
 8000900:	0018      	movs	r0, r3
 8000902:	46bd      	mov	sp, r7
 8000904:	bd80      	pop	{r7, pc}
 8000906:	46c0      	nop			; (mov r8, r8)
 8000908:	20000020 	.word	0x20000020

0800090c <HAL_Delay>:
  *       implementations in user file.
  * @param Delay specifies the delay time length, in milliseconds.
  * @retval None
  */
__weak void HAL_Delay(uint32_t Delay)
{
 800090c:	b580      	push	{r7, lr}
 800090e:	b084      	sub	sp, #16
 8000910:	af00      	add	r7, sp, #0
 8000912:	6078      	str	r0, [r7, #4]
  uint32_t tickstart = HAL_GetTick();
 8000914:	f7ff fff0 	bl	80008f8 <HAL_GetTick>
 8000918:	0003      	movs	r3, r0
 800091a:	60bb      	str	r3, [r7, #8]
  uint32_t wait = Delay;
 800091c:	687b      	ldr	r3, [r7, #4]
 800091e:	60fb      	str	r3, [r7, #12]

  /* Add a period to guaranty minimum wait */
  if (wait < HAL_MAX_DELAY)
 8000920:	68fb      	ldr	r3, [r7, #12]
 8000922:	3301      	adds	r3, #1
 8000924:	d002      	beq.n	800092c <HAL_Delay+0x20>
  {
    wait++;
 8000926:	68fb      	ldr	r3, [r7, #12]
 8000928:	3301      	adds	r3, #1
 800092a:	60fb      	str	r3, [r7, #12]
  }

  while((HAL_GetTick() - tickstart) < wait)
 800092c:	46c0      	nop			; (mov r8, r8)
 800092e:	f7ff ffe3 	bl	80008f8 <HAL_GetTick>
 8000932:	0002      	movs	r2, r0
 8000934:	68bb      	ldr	r3, [r7, #8]
 8000936:	1ad3      	subs	r3, r2, r3
 8000938:	68fa      	ldr	r2, [r7, #12]
 800093a:	429a      	cmp	r2, r3
 800093c:	d8f7      	bhi.n	800092e <HAL_Delay+0x22>
  {
  }
}
 800093e:	46c0      	nop			; (mov r8, r8)
 8000940:	46bd      	mov	sp, r7
 8000942:	b004      	add	sp, #16
 8000944:	bd80      	pop	{r7, pc}
	...

08000948 <NVIC_SetPriority>:
  \note    The priority cannot be set for every core interrupt.
  \param [in]      IRQn  Interrupt number.
  \param [in]  priority  Priority to set.
 */
__STATIC_INLINE void NVIC_SetPriority(IRQn_Type IRQn, uint32_t priority)
{
 8000948:	b590      	push	{r4, r7, lr}
 800094a:	b083      	sub	sp, #12
 800094c:	af00      	add	r7, sp, #0
 800094e:	0002      	movs	r2, r0
 8000950:	6039      	str	r1, [r7, #0]
 8000952:	1dfb      	adds	r3, r7, #7
 8000954:	701a      	strb	r2, [r3, #0]
  if ((int32_t)(IRQn) < 0)
 8000956:	1dfb      	adds	r3, r7, #7
 8000958:	781b      	ldrb	r3, [r3, #0]
 800095a:	2b7f      	cmp	r3, #127	; 0x7f
 800095c:	d932      	bls.n	80009c4 <NVIC_SetPriority+0x7c>
  {
    SCB->SHP[_SHP_IDX(IRQn)] = ((uint32_t)(SCB->SHP[_SHP_IDX(IRQn)] & ~(0xFFUL << _BIT_SHIFT(IRQn))) |
 800095e:	4a2f      	ldr	r2, [pc, #188]	; (8000a1c <NVIC_SetPriority+0xd4>)
 8000960:	1dfb      	adds	r3, r7, #7
 8000962:	781b      	ldrb	r3, [r3, #0]
 8000964:	0019      	movs	r1, r3
 8000966:	230f      	movs	r3, #15
 8000968:	400b      	ands	r3, r1
 800096a:	3b08      	subs	r3, #8
 800096c:	089b      	lsrs	r3, r3, #2
 800096e:	3306      	adds	r3, #6
 8000970:	009b      	lsls	r3, r3, #2
 8000972:	18d3      	adds	r3, r2, r3
 8000974:	3304      	adds	r3, #4
 8000976:	681b      	ldr	r3, [r3, #0]
 8000978:	1dfa      	adds	r2, r7, #7
 800097a:	7812      	ldrb	r2, [r2, #0]
 800097c:	0011      	movs	r1, r2
 800097e:	2203      	movs	r2, #3
 8000980:	400a      	ands	r2, r1
 8000982:	00d2      	lsls	r2, r2, #3
 8000984:	21ff      	movs	r1, #255	; 0xff
 8000986:	4091      	lsls	r1, r2
 8000988:	000a      	movs	r2, r1
 800098a:	43d2      	mvns	r2, r2
 800098c:	401a      	ands	r2, r3
 800098e:	0011      	movs	r1, r2
       (((priority << (8U - __NVIC_PRIO_BITS)) & (uint32_t)0xFFUL) << _BIT_SHIFT(IRQn)));
 8000990:	683b      	ldr	r3, [r7, #0]
 8000992:	019b      	lsls	r3, r3, #6
 8000994:	22ff      	movs	r2, #255	; 0xff
 8000996:	401a      	ands	r2, r3
 8000998:	1dfb      	adds	r3, r7, #7
 800099a:	781b      	ldrb	r3, [r3, #0]
 800099c:	0018      	movs	r0, r3
 800099e:	2303      	movs	r3, #3
 80009a0:	4003      	ands	r3, r0
 80009a2:	00db      	lsls	r3, r3, #3
 80009a4:	409a      	lsls	r2, r3
    SCB->SHP[_SHP_IDX(IRQn)] = ((uint32_t)(SCB->SHP[_SHP_IDX(IRQn)] & ~(0xFFUL << _BIT_SHIFT(IRQn))) |
 80009a6:	481d      	ldr	r0, [pc, #116]	; (8000a1c <NVIC_SetPriority+0xd4>)
 80009a8:	1dfb      	adds	r3, r7, #7
 80009aa:	781b      	ldrb	r3, [r3, #0]
 80009ac:	001c      	movs	r4, r3
 80009ae:	230f      	movs	r3, #15
 80009b0:	4023      	ands	r3, r4
 80009b2:	3b08      	subs	r3, #8
 80009b4:	089b      	lsrs	r3, r3, #2
 80009b6:	430a      	orrs	r2, r1
 80009b8:	3306      	adds	r3, #6
 80009ba:	009b      	lsls	r3, r3, #2
 80009bc:	18c3      	adds	r3, r0, r3
 80009be:	3304      	adds	r3, #4
 80009c0:	601a      	str	r2, [r3, #0]
  else
  {
    NVIC->IP[_IP_IDX(IRQn)]  = ((uint32_t)(NVIC->IP[_IP_IDX(IRQn)]  & ~(0xFFUL << _BIT_SHIFT(IRQn))) |
       (((priority << (8U - __NVIC_PRIO_BITS)) & (uint32_t)0xFFUL) << _BIT_SHIFT(IRQn)));
  }
}
 80009c2:	e027      	b.n	8000a14 <NVIC_SetPriority+0xcc>
    NVIC->IP[_IP_IDX(IRQn)]  = ((uint32_t)(NVIC->IP[_IP_IDX(IRQn)]  & ~(0xFFUL << _BIT_SHIFT(IRQn))) |
 80009c4:	4a16      	ldr	r2, [pc, #88]	; (8000a20 <NVIC_SetPriority+0xd8>)
 80009c6:	1dfb      	adds	r3, r7, #7
 80009c8:	781b      	ldrb	r3, [r3, #0]
 80009ca:	b25b      	sxtb	r3, r3
 80009cc:	089b      	lsrs	r3, r3, #2
 80009ce:	33c0      	adds	r3, #192	; 0xc0
 80009d0:	009b      	lsls	r3, r3, #2
 80009d2:	589b      	ldr	r3, [r3, r2]
 80009d4:	1dfa      	adds	r2, r7, #7
 80009d6:	7812      	ldrb	r2, [r2, #0]
 80009d8:	0011      	movs	r1, r2
 80009da:	2203      	movs	r2, #3
 80009dc:	400a      	ands	r2, r1
 80009de:	00d2      	lsls	r2, r2, #3
 80009e0:	21ff      	movs	r1, #255	; 0xff
 80009e2:	4091      	lsls	r1, r2
 80009e4:	000a      	movs	r2, r1
 80009e6:	43d2      	mvns	r2, r2
 80009e8:	401a      	ands	r2, r3
 80009ea:	0011      	movs	r1, r2
       (((priority << (8U - __NVIC_PRIO_BITS)) & (uint32_t)0xFFUL) << _BIT_SHIFT(IRQn)));
 80009ec:	683b      	ldr	r3, [r7, #0]
 80009ee:	019b      	lsls	r3, r3, #6
 80009f0:	22ff      	movs	r2, #255	; 0xff
 80009f2:	401a      	ands	r2, r3
 80009f4:	1dfb      	adds	r3, r7, #7
 80009f6:	781b      	ldrb	r3, [r3, #0]
 80009f8:	0018      	movs	r0, r3
 80009fa:	2303      	movs	r3, #3
 80009fc:	4003      	ands	r3, r0
 80009fe:	00db      	lsls	r3, r3, #3
 8000a00:	409a      	lsls	r2, r3
    NVIC->IP[_IP_IDX(IRQn)]  = ((uint32_t)(NVIC->IP[_IP_IDX(IRQn)]  & ~(0xFFUL << _BIT_SHIFT(IRQn))) |
 8000a02:	4807      	ldr	r0, [pc, #28]	; (8000a20 <NVIC_SetPriority+0xd8>)
 8000a04:	1dfb      	adds	r3, r7, #7
 8000a06:	781b      	ldrb	r3, [r3, #0]
 8000a08:	b25b      	sxtb	r3, r3
 8000a0a:	089b      	lsrs	r3, r3, #2
 8000a0c:	430a      	orrs	r2, r1
 8000a0e:	33c0      	adds	r3, #192	; 0xc0
 8000a10:	009b      	lsls	r3, r3, #2
 8000a12:	501a      	str	r2, [r3, r0]
}
 8000a14:	46c0      	nop			; (mov r8, r8)
 8000a16:	46bd      	mov	sp, r7
 8000a18:	b003      	add	sp, #12
 8000a1a:	bd90      	pop	{r4, r7, pc}
 8000a1c:	e000ed00 	.word	0xe000ed00
 8000a20:	e000e100 	.word	0xe000e100

08000a24 <SysTick_Config>:
  \note    When the variable <b>__Vendor_SysTickConfig</b> is set to 1, then the
           function <b>SysTick_Config</b> is not included. In this case, the file <b><i>device</i>.h</b>
           must contain a vendor-specific implementation of this function.
 */
__STATIC_INLINE uint32_t SysTick_Config(uint32_t ticks)
{
 8000a24:	b580      	push	{r7, lr}
 8000a26:	b082      	sub	sp, #8
 8000a28:	af00      	add	r7, sp, #0
 8000a2a:	6078      	str	r0, [r7, #4]
  if ((ticks - 1UL) > SysTick_LOAD_RELOAD_Msk)
 8000a2c:	687b      	ldr	r3, [r7, #4]
 8000a2e:	3b01      	subs	r3, #1
 8000a30:	4a0c      	ldr	r2, [pc, #48]	; (8000a64 <SysTick_Config+0x40>)
 8000a32:	4293      	cmp	r3, r2
 8000a34:	d901      	bls.n	8000a3a <SysTick_Config+0x16>
  {
    return (1UL);                                                   /* Reload value impossible */
 8000a36:	2301      	movs	r3, #1
 8000a38:	e010      	b.n	8000a5c <SysTick_Config+0x38>
  }

  SysTick->LOAD  = (uint32_t)(ticks - 1UL);                         /* set reload register */
 8000a3a:	4b0b      	ldr	r3, [pc, #44]	; (8000a68 <SysTick_Config+0x44>)
 8000a3c:	687a      	ldr	r2, [r7, #4]
 8000a3e:	3a01      	subs	r2, #1
 8000a40:	605a      	str	r2, [r3, #4]
  NVIC_SetPriority (SysTick_IRQn, (1UL << __NVIC_PRIO_BITS) - 1UL); /* set Priority for Systick Interrupt */
 8000a42:	2301      	movs	r3, #1
 8000a44:	425b      	negs	r3, r3
 8000a46:	2103      	movs	r1, #3
 8000a48:	0018      	movs	r0, r3
 8000a4a:	f7ff ff7d 	bl	8000948 <NVIC_SetPriority>
  SysTick->VAL   = 0UL;                                             /* Load the SysTick Counter Value */
 8000a4e:	4b06      	ldr	r3, [pc, #24]	; (8000a68 <SysTick_Config+0x44>)
 8000a50:	2200      	movs	r2, #0
 8000a52:	609a      	str	r2, [r3, #8]
  SysTick->CTRL  = SysTick_CTRL_CLKSOURCE_Msk |
 8000a54:	4b04      	ldr	r3, [pc, #16]	; (8000a68 <SysTick_Config+0x44>)
 8000a56:	2207      	movs	r2, #7
 8000a58:	601a      	str	r2, [r3, #0]
                   SysTick_CTRL_TICKINT_Msk   |
                   SysTick_CTRL_ENABLE_Msk;                         /* Enable SysTick IRQ and SysTick Timer */
  return (0UL);                                                     /* Function successful */
 8000a5a:	2300      	movs	r3, #0
}
 8000a5c:	0018      	movs	r0, r3
 8000a5e:	46bd      	mov	sp, r7
 8000a60:	b002      	add	sp, #8
 8000a62:	bd80      	pop	{r7, pc}
 8000a64:	00ffffff 	.word	0x00ffffff
 8000a68:	e000e010 	.word	0xe000e010

08000a6c <HAL_NVIC_SetPriority>:
  *         with stm32l0xx devices, this parameter is a dummy value and it is ignored, because 
  *         no subpriority supported in Cortex M0+ based products.   
  * @retval None
  */
void HAL_NVIC_SetPriority(IRQn_Type IRQn, uint32_t PreemptPriority, uint32_t SubPriority)
{ 
 8000a6c:	b580      	push	{r7, lr}
 8000a6e:	b084      	sub	sp, #16
 8000a70:	af00      	add	r7, sp, #0
 8000a72:	60b9      	str	r1, [r7, #8]
 8000a74:	607a      	str	r2, [r7, #4]
 8000a76:	210f      	movs	r1, #15
 8000a78:	187b      	adds	r3, r7, r1
 8000a7a:	1c02      	adds	r2, r0, #0
 8000a7c:	701a      	strb	r2, [r3, #0]
    /* Check the parameters */
  assert_param(IS_NVIC_PREEMPTION_PRIORITY(PreemptPriority));
  NVIC_SetPriority(IRQn,PreemptPriority);
 8000a7e:	68ba      	ldr	r2, [r7, #8]
 8000a80:	187b      	adds	r3, r7, r1
 8000a82:	781b      	ldrb	r3, [r3, #0]
 8000a84:	b25b      	sxtb	r3, r3
 8000a86:	0011      	movs	r1, r2
 8000a88:	0018      	movs	r0, r3
 8000a8a:	f7ff ff5d 	bl	8000948 <NVIC_SetPriority>
}
 8000a8e:	46c0      	nop			; (mov r8, r8)
 8000a90:	46bd      	mov	sp, r7
 8000a92:	b004      	add	sp, #16
 8000a94:	bd80      	pop	{r7, pc}

08000a96 <HAL_SYSTICK_Config>:
  * @param  TicksNumb Specifies the ticks Number of ticks between two interrupts.
  * @retval status:  - 0  Function succeeded.
  *                  - 1  Function failed.
  */
uint32_t HAL_SYSTICK_Config(uint32_t TicksNumb)
{
 8000a96:	b580      	push	{r7, lr}
 8000a98:	b082      	sub	sp, #8
 8000a9a:	af00      	add	r7, sp, #0
 8000a9c:	6078      	str	r0, [r7, #4]
   return SysTick_Config(TicksNumb);
 8000a9e:	687b      	ldr	r3, [r7, #4]
 8000aa0:	0018      	movs	r0, r3
 8000aa2:	f7ff ffbf 	bl	8000a24 <SysTick_Config>
 8000aa6:	0003      	movs	r3, r0
}
 8000aa8:	0018      	movs	r0, r3
 8000aaa:	46bd      	mov	sp, r7
 8000aac:	b002      	add	sp, #8
 8000aae:	bd80      	pop	{r7, pc}

08000ab0 <HAL_GPIO_Init>:
  * @param  GPIO_Init pointer to a GPIO_InitTypeDef structure that contains
  *                    the configuration information for the specified GPIO peripheral.
  * @retval None
  */
void HAL_GPIO_Init(GPIO_TypeDef  *GPIOx, GPIO_InitTypeDef *GPIO_Init)
{
 8000ab0:	b580      	push	{r7, lr}
 8000ab2:	b086      	sub	sp, #24
 8000ab4:	af00      	add	r7, sp, #0
 8000ab6:	6078      	str	r0, [r7, #4]
 8000ab8:	6039      	str	r1, [r7, #0]
  uint32_t position = 0x00U;
 8000aba:	2300      	movs	r3, #0
 8000abc:	617b      	str	r3, [r7, #20]
  uint32_t iocurrent = 0x00U;
 8000abe:	2300      	movs	r3, #0
 8000ac0:	60fb      	str	r3, [r7, #12]
  uint32_t temp = 0x00U;
 8000ac2:	2300      	movs	r3, #0
 8000ac4:	613b      	str	r3, [r7, #16]
  assert_param(IS_GPIO_MODE(GPIO_Init->Mode));
  assert_param(IS_GPIO_PULL(GPIO_Init->Pull));
  assert_param(IS_GPIO_PIN_AVAILABLE(GPIOx,(GPIO_Init->Pin)));

  /* Configure the port pins */
  while (((GPIO_Init->Pin) >> position) != 0)
 8000ac6:	e143      	b.n	8000d50 <HAL_GPIO_Init+0x2a0>
  {
    /* Get the IO position */
    iocurrent = (GPIO_Init->Pin) & (1U << position);
 8000ac8:	683b      	ldr	r3, [r7, #0]
 8000aca:	681b      	ldr	r3, [r3, #0]
 8000acc:	2101      	movs	r1, #1
 8000ace:	697a      	ldr	r2, [r7, #20]
 8000ad0:	4091      	lsls	r1, r2
 8000ad2:	000a      	movs	r2, r1
 8000ad4:	4013      	ands	r3, r2
 8000ad6:	60fb      	str	r3, [r7, #12]
    
    if(iocurrent)
 8000ad8:	68fb      	ldr	r3, [r7, #12]
 8000ada:	2b00      	cmp	r3, #0
 8000adc:	d100      	bne.n	8000ae0 <HAL_GPIO_Init+0x30>
 8000ade:	e134      	b.n	8000d4a <HAL_GPIO_Init+0x29a>
    {
      /*--------------------- GPIO Mode Configuration ------------------------*/
      /* In case of Alternate function mode selection */
      if((GPIO_Init->Mode == GPIO_MODE_AF_PP) || (GPIO_Init->Mode == GPIO_MODE_AF_OD)) 
 8000ae0:	683b      	ldr	r3, [r7, #0]
 8000ae2:	685b      	ldr	r3, [r3, #4]
 8000ae4:	2b02      	cmp	r3, #2
 8000ae6:	d003      	beq.n	8000af0 <HAL_GPIO_Init+0x40>
 8000ae8:	683b      	ldr	r3, [r7, #0]
 8000aea:	685b      	ldr	r3, [r3, #4]
 8000aec:	2b12      	cmp	r3, #18
 8000aee:	d123      	bne.n	8000b38 <HAL_GPIO_Init+0x88>
        /* Check the Alternate function parameters */
        assert_param(IS_GPIO_AF_INSTANCE(GPIOx));
        assert_param(IS_GPIO_AF(GPIO_Init->Alternate));

        /* Configure Alternate function mapped with the current IO */ 
        temp = GPIOx->AFR[position >> 3U];
 8000af0:	697b      	ldr	r3, [r7, #20]
 8000af2:	08da      	lsrs	r2, r3, #3
 8000af4:	687b      	ldr	r3, [r7, #4]
 8000af6:	3208      	adds	r2, #8
 8000af8:	0092      	lsls	r2, r2, #2
 8000afa:	58d3      	ldr	r3, [r2, r3]
 8000afc:	613b      	str	r3, [r7, #16]
        temp &= ~((uint32_t)0xFU << ((uint32_t)(position & (uint32_t)0x07U) * 4U)) ;
 8000afe:	697b      	ldr	r3, [r7, #20]
 8000b00:	2207      	movs	r2, #7
 8000b02:	4013      	ands	r3, r2
 8000b04:	009b      	lsls	r3, r3, #2
 8000b06:	220f      	movs	r2, #15
 8000b08:	409a      	lsls	r2, r3
 8000b0a:	0013      	movs	r3, r2
 8000b0c:	43da      	mvns	r2, r3
 8000b0e:	693b      	ldr	r3, [r7, #16]
 8000b10:	4013      	ands	r3, r2
 8000b12:	613b      	str	r3, [r7, #16]
        temp |= ((uint32_t)(GPIO_Init->Alternate) << (((uint32_t)position & (uint32_t)0x07U) * 4U)) ;
 8000b14:	683b      	ldr	r3, [r7, #0]
 8000b16:	691a      	ldr	r2, [r3, #16]
 8000b18:	697b      	ldr	r3, [r7, #20]
 8000b1a:	2107      	movs	r1, #7
 8000b1c:	400b      	ands	r3, r1
 8000b1e:	009b      	lsls	r3, r3, #2
 8000b20:	409a      	lsls	r2, r3
 8000b22:	0013      	movs	r3, r2
 8000b24:	693a      	ldr	r2, [r7, #16]
 8000b26:	4313      	orrs	r3, r2
 8000b28:	613b      	str	r3, [r7, #16]
        GPIOx->AFR[position >> 3U] = temp;
 8000b2a:	697b      	ldr	r3, [r7, #20]
 8000b2c:	08da      	lsrs	r2, r3, #3
 8000b2e:	687b      	ldr	r3, [r7, #4]
 8000b30:	3208      	adds	r2, #8
 8000b32:	0092      	lsls	r2, r2, #2
 8000b34:	6939      	ldr	r1, [r7, #16]
 8000b36:	50d1      	str	r1, [r2, r3]
      } 

      /* In case of Output or Alternate function mode selection */
      if((GPIO_Init->Mode == GPIO_MODE_OUTPUT_PP) || (GPIO_Init->Mode == GPIO_MODE_AF_PP) ||
 8000b38:	683b      	ldr	r3, [r7, #0]
 8000b3a:	685b      	ldr	r3, [r3, #4]
 8000b3c:	2b01      	cmp	r3, #1
 8000b3e:	d00b      	beq.n	8000b58 <HAL_GPIO_Init+0xa8>
 8000b40:	683b      	ldr	r3, [r7, #0]
 8000b42:	685b      	ldr	r3, [r3, #4]
 8000b44:	2b02      	cmp	r3, #2
 8000b46:	d007      	beq.n	8000b58 <HAL_GPIO_Init+0xa8>
         (GPIO_Init->Mode == GPIO_MODE_OUTPUT_OD) || (GPIO_Init->Mode == GPIO_MODE_AF_OD))
 8000b48:	683b      	ldr	r3, [r7, #0]
 8000b4a:	685b      	ldr	r3, [r3, #4]
      if((GPIO_Init->Mode == GPIO_MODE_OUTPUT_PP) || (GPIO_Init->Mode == GPIO_MODE_AF_PP) ||
 8000b4c:	2b11      	cmp	r3, #17
 8000b4e:	d003      	beq.n	8000b58 <HAL_GPIO_Init+0xa8>
         (GPIO_Init->Mode == GPIO_MODE_OUTPUT_OD) || (GPIO_Init->Mode == GPIO_MODE_AF_OD))
 8000b50:	683b      	ldr	r3, [r7, #0]
 8000b52:	685b      	ldr	r3, [r3, #4]
 8000b54:	2b12      	cmp	r3, #18
 8000b56:	d130      	bne.n	8000bba <HAL_GPIO_Init+0x10a>
      {
        /* Check the Speed parameter */
        assert_param(IS_GPIO_SPEED(GPIO_Init->Speed));
        /* Configure the IO Speed */
        temp = GPIOx->OSPEEDR;
 8000b58:	687b      	ldr	r3, [r7, #4]
 8000b5a:	689b      	ldr	r3, [r3, #8]
 8000b5c:	613b      	str	r3, [r7, #16]
        temp &= ~(GPIO_OSPEEDER_OSPEED0 << (position * 2U));
 8000b5e:	697b      	ldr	r3, [r7, #20]
 8000b60:	005b      	lsls	r3, r3, #1
 8000b62:	2203      	movs	r2, #3
 8000b64:	409a      	lsls	r2, r3
 8000b66:	0013      	movs	r3, r2
 8000b68:	43da      	mvns	r2, r3
 8000b6a:	693b      	ldr	r3, [r7, #16]
 8000b6c:	4013      	ands	r3, r2
 8000b6e:	613b      	str	r3, [r7, #16]
        temp |= (GPIO_Init->Speed << (position * 2U));
 8000b70:	683b      	ldr	r3, [r7, #0]
 8000b72:	68da      	ldr	r2, [r3, #12]
 8000b74:	697b      	ldr	r3, [r7, #20]
 8000b76:	005b      	lsls	r3, r3, #1
 8000b78:	409a      	lsls	r2, r3
 8000b7a:	0013      	movs	r3, r2
 8000b7c:	693a      	ldr	r2, [r7, #16]
 8000b7e:	4313      	orrs	r3, r2
 8000b80:	613b      	str	r3, [r7, #16]
        GPIOx->OSPEEDR = temp;
 8000b82:	687b      	ldr	r3, [r7, #4]
 8000b84:	693a      	ldr	r2, [r7, #16]
 8000b86:	609a      	str	r2, [r3, #8]

        /* Configure the IO Output Type */
        temp= GPIOx->OTYPER;
 8000b88:	687b      	ldr	r3, [r7, #4]
 8000b8a:	685b      	ldr	r3, [r3, #4]
 8000b8c:	613b      	str	r3, [r7, #16]
        temp &= ~(GPIO_OTYPER_OT_0 << position) ;
 8000b8e:	2201      	movs	r2, #1
 8000b90:	697b      	ldr	r3, [r7, #20]
 8000b92:	409a      	lsls	r2, r3
 8000b94:	0013      	movs	r3, r2
 8000b96:	43da      	mvns	r2, r3
 8000b98:	693b      	ldr	r3, [r7, #16]
 8000b9a:	4013      	ands	r3, r2
 8000b9c:	613b      	str	r3, [r7, #16]
        temp |= (((GPIO_Init->Mode & GPIO_OUTPUT_TYPE) >> 4U) << position);
 8000b9e:	683b      	ldr	r3, [r7, #0]
 8000ba0:	685b      	ldr	r3, [r3, #4]
 8000ba2:	091b      	lsrs	r3, r3, #4
 8000ba4:	2201      	movs	r2, #1
 8000ba6:	401a      	ands	r2, r3
 8000ba8:	697b      	ldr	r3, [r7, #20]
 8000baa:	409a      	lsls	r2, r3
 8000bac:	0013      	movs	r3, r2
 8000bae:	693a      	ldr	r2, [r7, #16]
 8000bb0:	4313      	orrs	r3, r2
 8000bb2:	613b      	str	r3, [r7, #16]
        GPIOx->OTYPER = temp;
 8000bb4:	687b      	ldr	r3, [r7, #4]
 8000bb6:	693a      	ldr	r2, [r7, #16]
 8000bb8:	605a      	str	r2, [r3, #4]
      }

      /* Configure IO Direction mode (Input, Output, Alternate or Analog) */
      temp = GPIOx->MODER;
 8000bba:	687b      	ldr	r3, [r7, #4]
 8000bbc:	681b      	ldr	r3, [r3, #0]
 8000bbe:	613b      	str	r3, [r7, #16]
      temp &= ~(GPIO_MODER_MODE0 << (position * 2U));
 8000bc0:	697b      	ldr	r3, [r7, #20]
 8000bc2:	005b      	lsls	r3, r3, #1
 8000bc4:	2203      	movs	r2, #3
 8000bc6:	409a      	lsls	r2, r3
 8000bc8:	0013      	movs	r3, r2
 8000bca:	43da      	mvns	r2, r3
 8000bcc:	693b      	ldr	r3, [r7, #16]
 8000bce:	4013      	ands	r3, r2
 8000bd0:	613b      	str	r3, [r7, #16]
      temp |= ((GPIO_Init->Mode & GPIO_MODE) << (position * 2U));
 8000bd2:	683b      	ldr	r3, [r7, #0]
 8000bd4:	685b      	ldr	r3, [r3, #4]
 8000bd6:	2203      	movs	r2, #3
 8000bd8:	401a      	ands	r2, r3
 8000bda:	697b      	ldr	r3, [r7, #20]
 8000bdc:	005b      	lsls	r3, r3, #1
 8000bde:	409a      	lsls	r2, r3
 8000be0:	0013      	movs	r3, r2
 8000be2:	693a      	ldr	r2, [r7, #16]
 8000be4:	4313      	orrs	r3, r2
 8000be6:	613b      	str	r3, [r7, #16]
      GPIOx->MODER = temp;
 8000be8:	687b      	ldr	r3, [r7, #4]
 8000bea:	693a      	ldr	r2, [r7, #16]
 8000bec:	601a      	str	r2, [r3, #0]

      /* Activate the Pull-up or Pull down resistor for the current IO */
      temp = GPIOx->PUPDR;
 8000bee:	687b      	ldr	r3, [r7, #4]
 8000bf0:	68db      	ldr	r3, [r3, #12]
 8000bf2:	613b      	str	r3, [r7, #16]
      temp &= ~(GPIO_PUPDR_PUPD0 << (position * 2U));
 8000bf4:	697b      	ldr	r3, [r7, #20]
 8000bf6:	005b      	lsls	r3, r3, #1
 8000bf8:	2203      	movs	r2, #3
 8000bfa:	409a      	lsls	r2, r3
 8000bfc:	0013      	movs	r3, r2
 8000bfe:	43da      	mvns	r2, r3
 8000c00:	693b      	ldr	r3, [r7, #16]
 8000c02:	4013      	ands	r3, r2
 8000c04:	613b      	str	r3, [r7, #16]
      temp |= ((GPIO_Init->Pull) << (position * 2U)); 
 8000c06:	683b      	ldr	r3, [r7, #0]
 8000c08:	689a      	ldr	r2, [r3, #8]
 8000c0a:	697b      	ldr	r3, [r7, #20]
 8000c0c:	005b      	lsls	r3, r3, #1
 8000c0e:	409a      	lsls	r2, r3
 8000c10:	0013      	movs	r3, r2
 8000c12:	693a      	ldr	r2, [r7, #16]
 8000c14:	4313      	orrs	r3, r2
 8000c16:	613b      	str	r3, [r7, #16]
      GPIOx->PUPDR = temp;
 8000c18:	687b      	ldr	r3, [r7, #4]
 8000c1a:	693a      	ldr	r2, [r7, #16]
 8000c1c:	60da      	str	r2, [r3, #12]

      /*--------------------- EXTI Mode Configuration ------------------------*/
      /* Configure the External Interrupt or event for the current IO */
      if((GPIO_Init->Mode & EXTI_MODE) == EXTI_MODE) 
 8000c1e:	683b      	ldr	r3, [r7, #0]
 8000c20:	685a      	ldr	r2, [r3, #4]
 8000c22:	2380      	movs	r3, #128	; 0x80
 8000c24:	055b      	lsls	r3, r3, #21
 8000c26:	4013      	ands	r3, r2
 8000c28:	d100      	bne.n	8000c2c <HAL_GPIO_Init+0x17c>
 8000c2a:	e08e      	b.n	8000d4a <HAL_GPIO_Init+0x29a>
      {
        /* Enable SYSCFG Clock */
        __HAL_RCC_SYSCFG_CLK_ENABLE();
 8000c2c:	4b4e      	ldr	r3, [pc, #312]	; (8000d68 <HAL_GPIO_Init+0x2b8>)
 8000c2e:	6b5a      	ldr	r2, [r3, #52]	; 0x34
 8000c30:	4b4d      	ldr	r3, [pc, #308]	; (8000d68 <HAL_GPIO_Init+0x2b8>)
 8000c32:	2101      	movs	r1, #1
 8000c34:	430a      	orrs	r2, r1
 8000c36:	635a      	str	r2, [r3, #52]	; 0x34
        
        temp = SYSCFG->EXTICR[position >> 2U];
 8000c38:	4a4c      	ldr	r2, [pc, #304]	; (8000d6c <HAL_GPIO_Init+0x2bc>)
 8000c3a:	697b      	ldr	r3, [r7, #20]
 8000c3c:	089b      	lsrs	r3, r3, #2
 8000c3e:	3302      	adds	r3, #2
 8000c40:	009b      	lsls	r3, r3, #2
 8000c42:	589b      	ldr	r3, [r3, r2]
 8000c44:	613b      	str	r3, [r7, #16]
        CLEAR_BIT(temp, ((uint32_t)0x0FU) << (4U * (position & 0x03U)));
 8000c46:	697b      	ldr	r3, [r7, #20]
 8000c48:	2203      	movs	r2, #3
 8000c4a:	4013      	ands	r3, r2
 8000c4c:	009b      	lsls	r3, r3, #2
 8000c4e:	220f      	movs	r2, #15
 8000c50:	409a      	lsls	r2, r3
 8000c52:	0013      	movs	r3, r2
 8000c54:	43da      	mvns	r2, r3
 8000c56:	693b      	ldr	r3, [r7, #16]
 8000c58:	4013      	ands	r3, r2
 8000c5a:	613b      	str	r3, [r7, #16]
        SET_BIT(temp, (GPIO_GET_INDEX(GPIOx)) << (4 * (position & 0x03U)));
 8000c5c:	687a      	ldr	r2, [r7, #4]
 8000c5e:	23a0      	movs	r3, #160	; 0xa0
 8000c60:	05db      	lsls	r3, r3, #23
 8000c62:	429a      	cmp	r2, r3
 8000c64:	d00d      	beq.n	8000c82 <HAL_GPIO_Init+0x1d2>
 8000c66:	687b      	ldr	r3, [r7, #4]
 8000c68:	4a41      	ldr	r2, [pc, #260]	; (8000d70 <HAL_GPIO_Init+0x2c0>)
 8000c6a:	4293      	cmp	r3, r2
 8000c6c:	d007      	beq.n	8000c7e <HAL_GPIO_Init+0x1ce>
 8000c6e:	687b      	ldr	r3, [r7, #4]
 8000c70:	4a40      	ldr	r2, [pc, #256]	; (8000d74 <HAL_GPIO_Init+0x2c4>)
 8000c72:	4293      	cmp	r3, r2
 8000c74:	d101      	bne.n	8000c7a <HAL_GPIO_Init+0x1ca>
 8000c76:	2302      	movs	r3, #2
 8000c78:	e004      	b.n	8000c84 <HAL_GPIO_Init+0x1d4>
 8000c7a:	2306      	movs	r3, #6
 8000c7c:	e002      	b.n	8000c84 <HAL_GPIO_Init+0x1d4>
 8000c7e:	2301      	movs	r3, #1
 8000c80:	e000      	b.n	8000c84 <HAL_GPIO_Init+0x1d4>
 8000c82:	2300      	movs	r3, #0
 8000c84:	697a      	ldr	r2, [r7, #20]
 8000c86:	2103      	movs	r1, #3
 8000c88:	400a      	ands	r2, r1
 8000c8a:	0092      	lsls	r2, r2, #2
 8000c8c:	4093      	lsls	r3, r2
 8000c8e:	693a      	ldr	r2, [r7, #16]
 8000c90:	4313      	orrs	r3, r2
 8000c92:	613b      	str	r3, [r7, #16]
        SYSCFG->EXTICR[position >> 2U] = temp;
 8000c94:	4935      	ldr	r1, [pc, #212]	; (8000d6c <HAL_GPIO_Init+0x2bc>)
 8000c96:	697b      	ldr	r3, [r7, #20]
 8000c98:	089b      	lsrs	r3, r3, #2
 8000c9a:	3302      	adds	r3, #2
 8000c9c:	009b      	lsls	r3, r3, #2
 8000c9e:	693a      	ldr	r2, [r7, #16]
 8000ca0:	505a      	str	r2, [r3, r1]
                  
        /* Clear EXTI line configuration */
        temp = EXTI->IMR;
 8000ca2:	4b35      	ldr	r3, [pc, #212]	; (8000d78 <HAL_GPIO_Init+0x2c8>)
 8000ca4:	681b      	ldr	r3, [r3, #0]
 8000ca6:	613b      	str	r3, [r7, #16]
        temp &= ~((uint32_t)iocurrent);
 8000ca8:	68fb      	ldr	r3, [r7, #12]
 8000caa:	43da      	mvns	r2, r3
 8000cac:	693b      	ldr	r3, [r7, #16]
 8000cae:	4013      	ands	r3, r2
 8000cb0:	613b      	str	r3, [r7, #16]
        if((GPIO_Init->Mode & GPIO_MODE_IT) == GPIO_MODE_IT)
 8000cb2:	683b      	ldr	r3, [r7, #0]
 8000cb4:	685a      	ldr	r2, [r3, #4]
 8000cb6:	2380      	movs	r3, #128	; 0x80
 8000cb8:	025b      	lsls	r3, r3, #9
 8000cba:	4013      	ands	r3, r2
 8000cbc:	d003      	beq.n	8000cc6 <HAL_GPIO_Init+0x216>
        {
          temp |= iocurrent;
 8000cbe:	693a      	ldr	r2, [r7, #16]
 8000cc0:	68fb      	ldr	r3, [r7, #12]
 8000cc2:	4313      	orrs	r3, r2
 8000cc4:	613b      	str	r3, [r7, #16]
        }
        EXTI->IMR = temp;
 8000cc6:	4b2c      	ldr	r3, [pc, #176]	; (8000d78 <HAL_GPIO_Init+0x2c8>)
 8000cc8:	693a      	ldr	r2, [r7, #16]
 8000cca:	601a      	str	r2, [r3, #0]

        temp = EXTI->EMR;
 8000ccc:	4b2a      	ldr	r3, [pc, #168]	; (8000d78 <HAL_GPIO_Init+0x2c8>)
 8000cce:	685b      	ldr	r3, [r3, #4]
 8000cd0:	613b      	str	r3, [r7, #16]
        temp &= ~((uint32_t)iocurrent);
 8000cd2:	68fb      	ldr	r3, [r7, #12]
 8000cd4:	43da      	mvns	r2, r3
 8000cd6:	693b      	ldr	r3, [r7, #16]
 8000cd8:	4013      	ands	r3, r2
 8000cda:	613b      	str	r3, [r7, #16]
        if((GPIO_Init->Mode & GPIO_MODE_EVT) == GPIO_MODE_EVT)
 8000cdc:	683b      	ldr	r3, [r7, #0]
 8000cde:	685a      	ldr	r2, [r3, #4]
 8000ce0:	2380      	movs	r3, #128	; 0x80
 8000ce2:	029b      	lsls	r3, r3, #10
 8000ce4:	4013      	ands	r3, r2
 8000ce6:	d003      	beq.n	8000cf0 <HAL_GPIO_Init+0x240>
        {
          temp |= iocurrent;
 8000ce8:	693a      	ldr	r2, [r7, #16]
 8000cea:	68fb      	ldr	r3, [r7, #12]
 8000cec:	4313      	orrs	r3, r2
 8000cee:	613b      	str	r3, [r7, #16]
        }
        EXTI->EMR = temp;
 8000cf0:	4b21      	ldr	r3, [pc, #132]	; (8000d78 <HAL_GPIO_Init+0x2c8>)
 8000cf2:	693a      	ldr	r2, [r7, #16]
 8000cf4:	605a      	str	r2, [r3, #4]

        /* Clear Rising Falling edge configuration */
        temp = EXTI->RTSR;
 8000cf6:	4b20      	ldr	r3, [pc, #128]	; (8000d78 <HAL_GPIO_Init+0x2c8>)
 8000cf8:	689b      	ldr	r3, [r3, #8]
 8000cfa:	613b      	str	r3, [r7, #16]
        temp &= ~((uint32_t)iocurrent);
 8000cfc:	68fb      	ldr	r3, [r7, #12]
 8000cfe:	43da      	mvns	r2, r3
 8000d00:	693b      	ldr	r3, [r7, #16]
 8000d02:	4013      	ands	r3, r2
 8000d04:	613b      	str	r3, [r7, #16]
        if((GPIO_Init->Mode & RISING_EDGE) == RISING_EDGE)
 8000d06:	683b      	ldr	r3, [r7, #0]
 8000d08:	685a      	ldr	r2, [r3, #4]
 8000d0a:	2380      	movs	r3, #128	; 0x80
 8000d0c:	035b      	lsls	r3, r3, #13
 8000d0e:	4013      	ands	r3, r2
 8000d10:	d003      	beq.n	8000d1a <HAL_GPIO_Init+0x26a>
        {
          temp |= iocurrent;
 8000d12:	693a      	ldr	r2, [r7, #16]
 8000d14:	68fb      	ldr	r3, [r7, #12]
 8000d16:	4313      	orrs	r3, r2
 8000d18:	613b      	str	r3, [r7, #16]
        }
        EXTI->RTSR = temp;
 8000d1a:	4b17      	ldr	r3, [pc, #92]	; (8000d78 <HAL_GPIO_Init+0x2c8>)
 8000d1c:	693a      	ldr	r2, [r7, #16]
 8000d1e:	609a      	str	r2, [r3, #8]

        temp = EXTI->FTSR;
 8000d20:	4b15      	ldr	r3, [pc, #84]	; (8000d78 <HAL_GPIO_Init+0x2c8>)
 8000d22:	68db      	ldr	r3, [r3, #12]
 8000d24:	613b      	str	r3, [r7, #16]
        temp &= ~((uint32_t)iocurrent);
 8000d26:	68fb      	ldr	r3, [r7, #12]
 8000d28:	43da      	mvns	r2, r3
 8000d2a:	693b      	ldr	r3, [r7, #16]
 8000d2c:	4013      	ands	r3, r2
 8000d2e:	613b      	str	r3, [r7, #16]
        if((GPIO_Init->Mode & FALLING_EDGE) == FALLING_EDGE)
 8000d30:	683b      	ldr	r3, [r7, #0]
 8000d32:	685a      	ldr	r2, [r3, #4]
 8000d34:	2380      	movs	r3, #128	; 0x80
 8000d36:	039b      	lsls	r3, r3, #14
 8000d38:	4013      	ands	r3, r2
 8000d3a:	d003      	beq.n	8000d44 <HAL_GPIO_Init+0x294>
        {
          temp |= iocurrent;
 8000d3c:	693a      	ldr	r2, [r7, #16]
 8000d3e:	68fb      	ldr	r3, [r7, #12]
 8000d40:	4313      	orrs	r3, r2
 8000d42:	613b      	str	r3, [r7, #16]
        }
        EXTI->FTSR = temp;
 8000d44:	4b0c      	ldr	r3, [pc, #48]	; (8000d78 <HAL_GPIO_Init+0x2c8>)
 8000d46:	693a      	ldr	r2, [r7, #16]
 8000d48:	60da      	str	r2, [r3, #12]
      }
    }
    position++;
 8000d4a:	697b      	ldr	r3, [r7, #20]
 8000d4c:	3301      	adds	r3, #1
 8000d4e:	617b      	str	r3, [r7, #20]
  while (((GPIO_Init->Pin) >> position) != 0)
 8000d50:	683b      	ldr	r3, [r7, #0]
 8000d52:	681a      	ldr	r2, [r3, #0]
 8000d54:	697b      	ldr	r3, [r7, #20]
 8000d56:	40da      	lsrs	r2, r3
 8000d58:	1e13      	subs	r3, r2, #0
 8000d5a:	d000      	beq.n	8000d5e <HAL_GPIO_Init+0x2ae>
 8000d5c:	e6b4      	b.n	8000ac8 <HAL_GPIO_Init+0x18>
  }
}
 8000d5e:	46c0      	nop			; (mov r8, r8)
 8000d60:	46bd      	mov	sp, r7
 8000d62:	b006      	add	sp, #24
 8000d64:	bd80      	pop	{r7, pc}
 8000d66:	46c0      	nop			; (mov r8, r8)
 8000d68:	40021000 	.word	0x40021000
 8000d6c:	40010000 	.word	0x40010000
 8000d70:	50000400 	.word	0x50000400
 8000d74:	50000800 	.word	0x50000800
 8000d78:	40010400 	.word	0x40010400

08000d7c <HAL_GPIO_WritePin>:
  *                        GPIO_PIN_RESET: to clear the port pin
  *                        GPIO_PIN_SET: to set the port pin
  * @retval None
  */
void HAL_GPIO_WritePin(GPIO_TypeDef* GPIOx, uint16_t GPIO_Pin, GPIO_PinState PinState)
{
 8000d7c:	b580      	push	{r7, lr}
 8000d7e:	b082      	sub	sp, #8
 8000d80:	af00      	add	r7, sp, #0
 8000d82:	6078      	str	r0, [r7, #4]
 8000d84:	0008      	movs	r0, r1
 8000d86:	0011      	movs	r1, r2
 8000d88:	1cbb      	adds	r3, r7, #2
 8000d8a:	1c02      	adds	r2, r0, #0
 8000d8c:	801a      	strh	r2, [r3, #0]
 8000d8e:	1c7b      	adds	r3, r7, #1
 8000d90:	1c0a      	adds	r2, r1, #0
 8000d92:	701a      	strb	r2, [r3, #0]
  /* Check the parameters */
  assert_param(IS_GPIO_PIN_AVAILABLE(GPIOx,GPIO_Pin));
  assert_param(IS_GPIO_PIN_ACTION(PinState));
  
  if(PinState != GPIO_PIN_RESET)
 8000d94:	1c7b      	adds	r3, r7, #1
 8000d96:	781b      	ldrb	r3, [r3, #0]
 8000d98:	2b00      	cmp	r3, #0
 8000d9a:	d004      	beq.n	8000da6 <HAL_GPIO_WritePin+0x2a>
  {
    GPIOx->BSRR = GPIO_Pin;
 8000d9c:	1cbb      	adds	r3, r7, #2
 8000d9e:	881a      	ldrh	r2, [r3, #0]
 8000da0:	687b      	ldr	r3, [r7, #4]
 8000da2:	619a      	str	r2, [r3, #24]
  }
  else
  {
    GPIOx->BRR = GPIO_Pin ;
  }
}
 8000da4:	e003      	b.n	8000dae <HAL_GPIO_WritePin+0x32>
    GPIOx->BRR = GPIO_Pin ;
 8000da6:	1cbb      	adds	r3, r7, #2
 8000da8:	881a      	ldrh	r2, [r3, #0]
 8000daa:	687b      	ldr	r3, [r7, #4]
 8000dac:	629a      	str	r2, [r3, #40]	; 0x28
}
 8000dae:	46c0      	nop			; (mov r8, r8)
 8000db0:	46bd      	mov	sp, r7
 8000db2:	b002      	add	sp, #8
 8000db4:	bd80      	pop	{r7, pc}
	...

08000db8 <HAL_PWR_EnableWakeUpPin>:
  *           @arg PWR_WAKEUP_PIN2
  *           @arg PWR_WAKEUP_PIN3 for stm32l07xxx and stm32l08xxx devices only.
  * @retval None
  */
void HAL_PWR_EnableWakeUpPin(uint32_t WakeUpPinx)
{
 8000db8:	b580      	push	{r7, lr}
 8000dba:	b082      	sub	sp, #8
 8000dbc:	af00      	add	r7, sp, #0
 8000dbe:	6078      	str	r0, [r7, #4]
  /* Check the parameter */
  assert_param(IS_PWR_WAKEUP_PIN(WakeUpPinx));
  /* Enable the EWUPx pin */
  SET_BIT(PWR->CSR, WakeUpPinx);
 8000dc0:	4b04      	ldr	r3, [pc, #16]	; (8000dd4 <HAL_PWR_EnableWakeUpPin+0x1c>)
 8000dc2:	6859      	ldr	r1, [r3, #4]
 8000dc4:	4b03      	ldr	r3, [pc, #12]	; (8000dd4 <HAL_PWR_EnableWakeUpPin+0x1c>)
 8000dc6:	687a      	ldr	r2, [r7, #4]
 8000dc8:	430a      	orrs	r2, r1
 8000dca:	605a      	str	r2, [r3, #4]
}
 8000dcc:	46c0      	nop			; (mov r8, r8)
 8000dce:	46bd      	mov	sp, r7
 8000dd0:	b002      	add	sp, #8
 8000dd2:	bd80      	pop	{r7, pc}
 8000dd4:	40007000 	.word	0x40007000

08000dd8 <HAL_PWR_DisableWakeUpPin>:
  *           @arg PWR_WAKEUP_PIN2  
  *           @arg PWR_WAKEUP_PIN3  for stm32l07xxx and stm32l08xxx devices only.
  * @retval None
  */
void HAL_PWR_DisableWakeUpPin(uint32_t WakeUpPinx)
{
 8000dd8:	b580      	push	{r7, lr}
 8000dda:	b082      	sub	sp, #8
 8000ddc:	af00      	add	r7, sp, #0
 8000dde:	6078      	str	r0, [r7, #4]
  /* Check the parameter */
  assert_param(IS_PWR_WAKEUP_PIN(WakeUpPinx));
  /* Disable the EWUPx pin */
  CLEAR_BIT(PWR->CSR, WakeUpPinx);
 8000de0:	4b05      	ldr	r3, [pc, #20]	; (8000df8 <HAL_PWR_DisableWakeUpPin+0x20>)
 8000de2:	685a      	ldr	r2, [r3, #4]
 8000de4:	687b      	ldr	r3, [r7, #4]
 8000de6:	43d9      	mvns	r1, r3
 8000de8:	4b03      	ldr	r3, [pc, #12]	; (8000df8 <HAL_PWR_DisableWakeUpPin+0x20>)
 8000dea:	400a      	ands	r2, r1
 8000dec:	605a      	str	r2, [r3, #4]
}
 8000dee:	46c0      	nop			; (mov r8, r8)
 8000df0:	46bd      	mov	sp, r7
 8000df2:	b002      	add	sp, #8
 8000df4:	bd80      	pop	{r7, pc}
 8000df6:	46c0      	nop			; (mov r8, r8)
 8000df8:	40007000 	.word	0x40007000

08000dfc <HAL_PWR_EnterSTANDBYMode>:
  *          - WKUP pin 3 (PE06) if enabled, for stm32l07xxx and stm32l08xxx devices only.
  *          - WKUP pin 3 (PA02) if enabled, for stm32l031xx devices only.
  * @retval None
  */
void HAL_PWR_EnterSTANDBYMode(void)
{
 8000dfc:	b580      	push	{r7, lr}
 8000dfe:	af00      	add	r7, sp, #0
  /* Select Standby mode */
  SET_BIT(PWR->CR, PWR_CR_PDDS);
 8000e00:	4b07      	ldr	r3, [pc, #28]	; (8000e20 <HAL_PWR_EnterSTANDBYMode+0x24>)
 8000e02:	681a      	ldr	r2, [r3, #0]
 8000e04:	4b06      	ldr	r3, [pc, #24]	; (8000e20 <HAL_PWR_EnterSTANDBYMode+0x24>)
 8000e06:	2102      	movs	r1, #2
 8000e08:	430a      	orrs	r2, r1
 8000e0a:	601a      	str	r2, [r3, #0]

  /* Set SLEEPDEEP bit of Cortex System Control Register */
  SET_BIT(SCB->SCR, SCB_SCR_SLEEPDEEP_Msk);
 8000e0c:	4b05      	ldr	r3, [pc, #20]	; (8000e24 <HAL_PWR_EnterSTANDBYMode+0x28>)
 8000e0e:	691a      	ldr	r2, [r3, #16]
 8000e10:	4b04      	ldr	r3, [pc, #16]	; (8000e24 <HAL_PWR_EnterSTANDBYMode+0x28>)
 8000e12:	2104      	movs	r1, #4
 8000e14:	430a      	orrs	r2, r1
 8000e16:	611a      	str	r2, [r3, #16]
  \brief   Wait For Interrupt
  \details Wait For Interrupt is a hint instruction that suspends execution until one of a number of events occurs.
 */
__attribute__((always_inline)) __STATIC_INLINE void __WFI(void)
{
  __ASM volatile ("wfi");
 8000e18:	bf30      	wfi
#if defined ( __CC_ARM)
  __force_stores();
#endif
  /* Request Wait For Interrupt */
  __WFI();
}
 8000e1a:	46c0      	nop			; (mov r8, r8)
 8000e1c:	46bd      	mov	sp, r7
 8000e1e:	bd80      	pop	{r7, pc}
 8000e20:	40007000 	.word	0x40007000
 8000e24:	e000ed00 	.word	0xe000ed00

08000e28 <HAL_PWREx_EnableFastWakeUp>:
  *        Means, when ULP = 1 and FWU = 1 :VREFINT startup time is ignored when 
  *        exiting from low power mode.
  * @retval None
  */
void HAL_PWREx_EnableFastWakeUp(void)
{
 8000e28:	b580      	push	{r7, lr}
 8000e2a:	af00      	add	r7, sp, #0
  /* Enable the fast wake up */
  SET_BIT(PWR->CR, PWR_CR_FWU);
 8000e2c:	4b04      	ldr	r3, [pc, #16]	; (8000e40 <HAL_PWREx_EnableFastWakeUp+0x18>)
 8000e2e:	681a      	ldr	r2, [r3, #0]
 8000e30:	4b03      	ldr	r3, [pc, #12]	; (8000e40 <HAL_PWREx_EnableFastWakeUp+0x18>)
 8000e32:	2180      	movs	r1, #128	; 0x80
 8000e34:	00c9      	lsls	r1, r1, #3
 8000e36:	430a      	orrs	r2, r1
 8000e38:	601a      	str	r2, [r3, #0]
}
 8000e3a:	46c0      	nop			; (mov r8, r8)
 8000e3c:	46bd      	mov	sp, r7
 8000e3e:	bd80      	pop	{r7, pc}
 8000e40:	40007000 	.word	0x40007000

08000e44 <HAL_PWREx_EnableUltraLowPower>:
/**
  * @brief  Enables the Ultra Low Power mode
  * @retval None
  */
void HAL_PWREx_EnableUltraLowPower(void)
{
 8000e44:	b580      	push	{r7, lr}
 8000e46:	af00      	add	r7, sp, #0
  /* Enable the Ultra Low Power mode */
  SET_BIT(PWR->CR, PWR_CR_ULP);
 8000e48:	4b04      	ldr	r3, [pc, #16]	; (8000e5c <HAL_PWREx_EnableUltraLowPower+0x18>)
 8000e4a:	681a      	ldr	r2, [r3, #0]
 8000e4c:	4b03      	ldr	r3, [pc, #12]	; (8000e5c <HAL_PWREx_EnableUltraLowPower+0x18>)
 8000e4e:	2180      	movs	r1, #128	; 0x80
 8000e50:	0089      	lsls	r1, r1, #2
 8000e52:	430a      	orrs	r2, r1
 8000e54:	601a      	str	r2, [r3, #0]
}
 8000e56:	46c0      	nop			; (mov r8, r8)
 8000e58:	46bd      	mov	sp, r7
 8000e5a:	bd80      	pop	{r7, pc}
 8000e5c:	40007000 	.word	0x40007000

08000e60 <HAL_RCC_OscConfig>:
  *         supported by this macro. User should request a transition to HSE Off
  *         first and then HSE On or HSE Bypass.
  * @retval HAL status
  */
HAL_StatusTypeDef HAL_RCC_OscConfig(RCC_OscInitTypeDef  *RCC_OscInitStruct)
{
 8000e60:	b5b0      	push	{r4, r5, r7, lr}
 8000e62:	b08a      	sub	sp, #40	; 0x28
 8000e64:	af00      	add	r7, sp, #0
 8000e66:	6078      	str	r0, [r7, #4]
  uint32_t hsi_state;
  HAL_StatusTypeDef status;
  uint32_t sysclk_source, pll_config;

  /* Check the parameters */
  if(RCC_OscInitStruct == NULL)
 8000e68:	687b      	ldr	r3, [r7, #4]
 8000e6a:	2b00      	cmp	r3, #0
 8000e6c:	d102      	bne.n	8000e74 <HAL_RCC_OscConfig+0x14>
  {
    return HAL_ERROR;
 8000e6e:	2301      	movs	r3, #1
 8000e70:	f000 fb6a 	bl	8001548 <HAL_RCC_OscConfig+0x6e8>
  }

  assert_param(IS_RCC_OSCILLATORTYPE(RCC_OscInitStruct->OscillatorType));

  sysclk_source = __HAL_RCC_GET_SYSCLK_SOURCE();
 8000e74:	4bc7      	ldr	r3, [pc, #796]	; (8001194 <HAL_RCC_OscConfig+0x334>)
 8000e76:	68db      	ldr	r3, [r3, #12]
 8000e78:	220c      	movs	r2, #12
 8000e7a:	4013      	ands	r3, r2
 8000e7c:	61fb      	str	r3, [r7, #28]
  pll_config = __HAL_RCC_GET_PLL_OSCSOURCE();
 8000e7e:	4bc5      	ldr	r3, [pc, #788]	; (8001194 <HAL_RCC_OscConfig+0x334>)
 8000e80:	68da      	ldr	r2, [r3, #12]
 8000e82:	2380      	movs	r3, #128	; 0x80
 8000e84:	025b      	lsls	r3, r3, #9
 8000e86:	4013      	ands	r3, r2
 8000e88:	61bb      	str	r3, [r7, #24]

  /*------------------------------- HSE Configuration ------------------------*/
  if(((RCC_OscInitStruct->OscillatorType) & RCC_OSCILLATORTYPE_HSE) == RCC_OSCILLATORTYPE_HSE)
 8000e8a:	687b      	ldr	r3, [r7, #4]
 8000e8c:	681b      	ldr	r3, [r3, #0]
 8000e8e:	2201      	movs	r2, #1
 8000e90:	4013      	ands	r3, r2
 8000e92:	d100      	bne.n	8000e96 <HAL_RCC_OscConfig+0x36>
 8000e94:	e07d      	b.n	8000f92 <HAL_RCC_OscConfig+0x132>
  {
    /* Check the parameters */
    assert_param(IS_RCC_HSE(RCC_OscInitStruct->HSEState));

    /* When the HSE is used as system clock or clock source for PLL in these cases it is not allowed to be disabled */
    if((sysclk_source == RCC_SYSCLKSOURCE_STATUS_HSE)
 8000e96:	69fb      	ldr	r3, [r7, #28]
 8000e98:	2b08      	cmp	r3, #8
 8000e9a:	d007      	beq.n	8000eac <HAL_RCC_OscConfig+0x4c>
       || ((sysclk_source == RCC_SYSCLKSOURCE_STATUS_PLLCLK) && (pll_config == RCC_PLLSOURCE_HSE)))
 8000e9c:	69fb      	ldr	r3, [r7, #28]
 8000e9e:	2b0c      	cmp	r3, #12
 8000ea0:	d112      	bne.n	8000ec8 <HAL_RCC_OscConfig+0x68>
 8000ea2:	69ba      	ldr	r2, [r7, #24]
 8000ea4:	2380      	movs	r3, #128	; 0x80
 8000ea6:	025b      	lsls	r3, r3, #9
 8000ea8:	429a      	cmp	r2, r3
 8000eaa:	d10d      	bne.n	8000ec8 <HAL_RCC_OscConfig+0x68>
    {
      if((__HAL_RCC_GET_FLAG(RCC_FLAG_HSERDY) != 0U) && (RCC_OscInitStruct->HSEState == RCC_HSE_OFF))
 8000eac:	4bb9      	ldr	r3, [pc, #740]	; (8001194 <HAL_RCC_OscConfig+0x334>)
 8000eae:	681a      	ldr	r2, [r3, #0]
 8000eb0:	2380      	movs	r3, #128	; 0x80
 8000eb2:	029b      	lsls	r3, r3, #10
 8000eb4:	4013      	ands	r3, r2
 8000eb6:	d100      	bne.n	8000eba <HAL_RCC_OscConfig+0x5a>
 8000eb8:	e06a      	b.n	8000f90 <HAL_RCC_OscConfig+0x130>
 8000eba:	687b      	ldr	r3, [r7, #4]
 8000ebc:	685b      	ldr	r3, [r3, #4]
 8000ebe:	2b00      	cmp	r3, #0
 8000ec0:	d166      	bne.n	8000f90 <HAL_RCC_OscConfig+0x130>
      {
        return HAL_ERROR;
 8000ec2:	2301      	movs	r3, #1
 8000ec4:	f000 fb40 	bl	8001548 <HAL_RCC_OscConfig+0x6e8>
      }
    }
    else
    {
      /* Set the new HSE configuration ---------------------------------------*/
      __HAL_RCC_HSE_CONFIG(RCC_OscInitStruct->HSEState);
 8000ec8:	687b      	ldr	r3, [r7, #4]
 8000eca:	685a      	ldr	r2, [r3, #4]
 8000ecc:	2380      	movs	r3, #128	; 0x80
 8000ece:	025b      	lsls	r3, r3, #9
 8000ed0:	429a      	cmp	r2, r3
 8000ed2:	d107      	bne.n	8000ee4 <HAL_RCC_OscConfig+0x84>
 8000ed4:	4baf      	ldr	r3, [pc, #700]	; (8001194 <HAL_RCC_OscConfig+0x334>)
 8000ed6:	681a      	ldr	r2, [r3, #0]
 8000ed8:	4bae      	ldr	r3, [pc, #696]	; (8001194 <HAL_RCC_OscConfig+0x334>)
 8000eda:	2180      	movs	r1, #128	; 0x80
 8000edc:	0249      	lsls	r1, r1, #9
 8000ede:	430a      	orrs	r2, r1
 8000ee0:	601a      	str	r2, [r3, #0]
 8000ee2:	e027      	b.n	8000f34 <HAL_RCC_OscConfig+0xd4>
 8000ee4:	687b      	ldr	r3, [r7, #4]
 8000ee6:	685a      	ldr	r2, [r3, #4]
 8000ee8:	23a0      	movs	r3, #160	; 0xa0
 8000eea:	02db      	lsls	r3, r3, #11
 8000eec:	429a      	cmp	r2, r3
 8000eee:	d10e      	bne.n	8000f0e <HAL_RCC_OscConfig+0xae>
 8000ef0:	4ba8      	ldr	r3, [pc, #672]	; (8001194 <HAL_RCC_OscConfig+0x334>)
 8000ef2:	681a      	ldr	r2, [r3, #0]
 8000ef4:	4ba7      	ldr	r3, [pc, #668]	; (8001194 <HAL_RCC_OscConfig+0x334>)
 8000ef6:	2180      	movs	r1, #128	; 0x80
 8000ef8:	02c9      	lsls	r1, r1, #11
 8000efa:	430a      	orrs	r2, r1
 8000efc:	601a      	str	r2, [r3, #0]
 8000efe:	4ba5      	ldr	r3, [pc, #660]	; (8001194 <HAL_RCC_OscConfig+0x334>)
 8000f00:	681a      	ldr	r2, [r3, #0]
 8000f02:	4ba4      	ldr	r3, [pc, #656]	; (8001194 <HAL_RCC_OscConfig+0x334>)
 8000f04:	2180      	movs	r1, #128	; 0x80
 8000f06:	0249      	lsls	r1, r1, #9
 8000f08:	430a      	orrs	r2, r1
 8000f0a:	601a      	str	r2, [r3, #0]
 8000f0c:	e012      	b.n	8000f34 <HAL_RCC_OscConfig+0xd4>
 8000f0e:	4ba1      	ldr	r3, [pc, #644]	; (8001194 <HAL_RCC_OscConfig+0x334>)
 8000f10:	681a      	ldr	r2, [r3, #0]
 8000f12:	4ba0      	ldr	r3, [pc, #640]	; (8001194 <HAL_RCC_OscConfig+0x334>)
 8000f14:	49a0      	ldr	r1, [pc, #640]	; (8001198 <HAL_RCC_OscConfig+0x338>)
 8000f16:	400a      	ands	r2, r1
 8000f18:	601a      	str	r2, [r3, #0]
 8000f1a:	4b9e      	ldr	r3, [pc, #632]	; (8001194 <HAL_RCC_OscConfig+0x334>)
 8000f1c:	681a      	ldr	r2, [r3, #0]
 8000f1e:	2380      	movs	r3, #128	; 0x80
 8000f20:	025b      	lsls	r3, r3, #9
 8000f22:	4013      	ands	r3, r2
 8000f24:	60fb      	str	r3, [r7, #12]
 8000f26:	68fb      	ldr	r3, [r7, #12]
 8000f28:	4b9a      	ldr	r3, [pc, #616]	; (8001194 <HAL_RCC_OscConfig+0x334>)
 8000f2a:	681a      	ldr	r2, [r3, #0]
 8000f2c:	4b99      	ldr	r3, [pc, #612]	; (8001194 <HAL_RCC_OscConfig+0x334>)
 8000f2e:	499b      	ldr	r1, [pc, #620]	; (800119c <HAL_RCC_OscConfig+0x33c>)
 8000f30:	400a      	ands	r2, r1
 8000f32:	601a      	str	r2, [r3, #0]

      /* Check the HSE State */
      if(RCC_OscInitStruct->HSEState != RCC_HSE_OFF)
 8000f34:	687b      	ldr	r3, [r7, #4]
 8000f36:	685b      	ldr	r3, [r3, #4]
 8000f38:	2b00      	cmp	r3, #0
 8000f3a:	d014      	beq.n	8000f66 <HAL_RCC_OscConfig+0x106>
      {
        /* Get Start Tick */
        tickstart = HAL_GetTick();
 8000f3c:	f7ff fcdc 	bl	80008f8 <HAL_GetTick>
 8000f40:	0003      	movs	r3, r0
 8000f42:	617b      	str	r3, [r7, #20]

        /* Wait till HSE is ready */
        while(__HAL_RCC_GET_FLAG(RCC_FLAG_HSERDY) == 0U)
 8000f44:	e008      	b.n	8000f58 <HAL_RCC_OscConfig+0xf8>
        {
          if((HAL_GetTick() - tickstart ) > HSE_TIMEOUT_VALUE)
 8000f46:	f7ff fcd7 	bl	80008f8 <HAL_GetTick>
 8000f4a:	0002      	movs	r2, r0
 8000f4c:	697b      	ldr	r3, [r7, #20]
 8000f4e:	1ad3      	subs	r3, r2, r3
 8000f50:	2b64      	cmp	r3, #100	; 0x64
 8000f52:	d901      	bls.n	8000f58 <HAL_RCC_OscConfig+0xf8>
          {
            return HAL_TIMEOUT;
 8000f54:	2303      	movs	r3, #3
 8000f56:	e2f7      	b.n	8001548 <HAL_RCC_OscConfig+0x6e8>
        while(__HAL_RCC_GET_FLAG(RCC_FLAG_HSERDY) == 0U)
 8000f58:	4b8e      	ldr	r3, [pc, #568]	; (8001194 <HAL_RCC_OscConfig+0x334>)
 8000f5a:	681a      	ldr	r2, [r3, #0]
 8000f5c:	2380      	movs	r3, #128	; 0x80
 8000f5e:	029b      	lsls	r3, r3, #10
 8000f60:	4013      	ands	r3, r2
 8000f62:	d0f0      	beq.n	8000f46 <HAL_RCC_OscConfig+0xe6>
 8000f64:	e015      	b.n	8000f92 <HAL_RCC_OscConfig+0x132>
        }
      }
      else
      {
        /* Get Start Tick */
        tickstart = HAL_GetTick();
 8000f66:	f7ff fcc7 	bl	80008f8 <HAL_GetTick>
 8000f6a:	0003      	movs	r3, r0
 8000f6c:	617b      	str	r3, [r7, #20]

        /* Wait till HSE is disabled */
        while(__HAL_RCC_GET_FLAG(RCC_FLAG_HSERDY) != 0U)
 8000f6e:	e008      	b.n	8000f82 <HAL_RCC_OscConfig+0x122>
        {
           if((HAL_GetTick() - tickstart ) > HSE_TIMEOUT_VALUE)
 8000f70:	f7ff fcc2 	bl	80008f8 <HAL_GetTick>
 8000f74:	0002      	movs	r2, r0
 8000f76:	697b      	ldr	r3, [r7, #20]
 8000f78:	1ad3      	subs	r3, r2, r3
 8000f7a:	2b64      	cmp	r3, #100	; 0x64
 8000f7c:	d901      	bls.n	8000f82 <HAL_RCC_OscConfig+0x122>
          {
            return HAL_TIMEOUT;
 8000f7e:	2303      	movs	r3, #3
 8000f80:	e2e2      	b.n	8001548 <HAL_RCC_OscConfig+0x6e8>
        while(__HAL_RCC_GET_FLAG(RCC_FLAG_HSERDY) != 0U)
 8000f82:	4b84      	ldr	r3, [pc, #528]	; (8001194 <HAL_RCC_OscConfig+0x334>)
 8000f84:	681a      	ldr	r2, [r3, #0]
 8000f86:	2380      	movs	r3, #128	; 0x80
 8000f88:	029b      	lsls	r3, r3, #10
 8000f8a:	4013      	ands	r3, r2
 8000f8c:	d1f0      	bne.n	8000f70 <HAL_RCC_OscConfig+0x110>
 8000f8e:	e000      	b.n	8000f92 <HAL_RCC_OscConfig+0x132>
      if((__HAL_RCC_GET_FLAG(RCC_FLAG_HSERDY) != 0U) && (RCC_OscInitStruct->HSEState == RCC_HSE_OFF))
 8000f90:	46c0      	nop			; (mov r8, r8)
        }
      }
    }
  }
  /*----------------------------- HSI Configuration --------------------------*/
  if(((RCC_OscInitStruct->OscillatorType) & RCC_OSCILLATORTYPE_HSI) == RCC_OSCILLATORTYPE_HSI)
 8000f92:	687b      	ldr	r3, [r7, #4]
 8000f94:	681b      	ldr	r3, [r3, #0]
 8000f96:	2202      	movs	r2, #2
 8000f98:	4013      	ands	r3, r2
 8000f9a:	d100      	bne.n	8000f9e <HAL_RCC_OscConfig+0x13e>
 8000f9c:	e098      	b.n	80010d0 <HAL_RCC_OscConfig+0x270>
  {
    /* Check the parameters */
    assert_param(IS_RCC_HSI(RCC_OscInitStruct->HSIState));
    assert_param(IS_RCC_CALIBRATION_VALUE(RCC_OscInitStruct->HSICalibrationValue));

    hsi_state = RCC_OscInitStruct->HSIState;
 8000f9e:	687b      	ldr	r3, [r7, #4]
 8000fa0:	68db      	ldr	r3, [r3, #12]
 8000fa2:	627b      	str	r3, [r7, #36]	; 0x24

#if defined(RCC_CR_HSIOUTEN)
    if((hsi_state & RCC_HSI_OUTEN) != 0U)
 8000fa4:	6a7b      	ldr	r3, [r7, #36]	; 0x24
 8000fa6:	2220      	movs	r2, #32
 8000fa8:	4013      	ands	r3, r2
 8000faa:	d009      	beq.n	8000fc0 <HAL_RCC_OscConfig+0x160>
    {
      /* HSI Output enable for timer requested */
      SET_BIT(RCC->CR, RCC_CR_HSIOUTEN);
 8000fac:	4b79      	ldr	r3, [pc, #484]	; (8001194 <HAL_RCC_OscConfig+0x334>)
 8000fae:	681a      	ldr	r2, [r3, #0]
 8000fb0:	4b78      	ldr	r3, [pc, #480]	; (8001194 <HAL_RCC_OscConfig+0x334>)
 8000fb2:	2120      	movs	r1, #32
 8000fb4:	430a      	orrs	r2, r1
 8000fb6:	601a      	str	r2, [r3, #0]

      hsi_state &= ~RCC_CR_HSIOUTEN;
 8000fb8:	6a7b      	ldr	r3, [r7, #36]	; 0x24
 8000fba:	2220      	movs	r2, #32
 8000fbc:	4393      	bics	r3, r2
 8000fbe:	627b      	str	r3, [r7, #36]	; 0x24
    }
#endif

    /* Check if HSI is used as system clock or as PLL source when PLL is selected as system clock */
    if((sysclk_source == RCC_SYSCLKSOURCE_STATUS_HSI)
 8000fc0:	69fb      	ldr	r3, [r7, #28]
 8000fc2:	2b04      	cmp	r3, #4
 8000fc4:	d005      	beq.n	8000fd2 <HAL_RCC_OscConfig+0x172>
       || ((sysclk_source == RCC_SYSCLKSOURCE_STATUS_PLLCLK) && (pll_config == RCC_PLLSOURCE_HSI)))
 8000fc6:	69fb      	ldr	r3, [r7, #28]
 8000fc8:	2b0c      	cmp	r3, #12
 8000fca:	d13d      	bne.n	8001048 <HAL_RCC_OscConfig+0x1e8>
 8000fcc:	69bb      	ldr	r3, [r7, #24]
 8000fce:	2b00      	cmp	r3, #0
 8000fd0:	d13a      	bne.n	8001048 <HAL_RCC_OscConfig+0x1e8>
    {
      /* When HSI is used as system clock it will not disabled */
      if((__HAL_RCC_GET_FLAG(RCC_FLAG_HSIRDY) != 0U) && (hsi_state == RCC_HSI_OFF))
 8000fd2:	4b70      	ldr	r3, [pc, #448]	; (8001194 <HAL_RCC_OscConfig+0x334>)
 8000fd4:	681b      	ldr	r3, [r3, #0]
 8000fd6:	2204      	movs	r2, #4
 8000fd8:	4013      	ands	r3, r2
 8000fda:	d004      	beq.n	8000fe6 <HAL_RCC_OscConfig+0x186>
 8000fdc:	6a7b      	ldr	r3, [r7, #36]	; 0x24
 8000fde:	2b00      	cmp	r3, #0
 8000fe0:	d101      	bne.n	8000fe6 <HAL_RCC_OscConfig+0x186>
      {
        return HAL_ERROR;
 8000fe2:	2301      	movs	r3, #1
 8000fe4:	e2b0      	b.n	8001548 <HAL_RCC_OscConfig+0x6e8>
      }
      /* Otherwise, just the calibration and HSI or HSIdiv4 are allowed */
      else
      {
        /* Adjusts the Internal High Speed oscillator (HSI) calibration value.*/
        __HAL_RCC_HSI_CALIBRATIONVALUE_ADJUST(RCC_OscInitStruct->HSICalibrationValue);
 8000fe6:	4b6b      	ldr	r3, [pc, #428]	; (8001194 <HAL_RCC_OscConfig+0x334>)
 8000fe8:	685b      	ldr	r3, [r3, #4]
 8000fea:	4a6d      	ldr	r2, [pc, #436]	; (80011a0 <HAL_RCC_OscConfig+0x340>)
 8000fec:	4013      	ands	r3, r2
 8000fee:	0019      	movs	r1, r3
 8000ff0:	687b      	ldr	r3, [r7, #4]
 8000ff2:	691b      	ldr	r3, [r3, #16]
 8000ff4:	021a      	lsls	r2, r3, #8
 8000ff6:	4b67      	ldr	r3, [pc, #412]	; (8001194 <HAL_RCC_OscConfig+0x334>)
 8000ff8:	430a      	orrs	r2, r1
 8000ffa:	605a      	str	r2, [r3, #4]

        /* Enable the Internal High Speed oscillator (HSI or HSIdiv4) */
        __HAL_RCC_HSI_CONFIG(hsi_state);
 8000ffc:	4b65      	ldr	r3, [pc, #404]	; (8001194 <HAL_RCC_OscConfig+0x334>)
 8000ffe:	681b      	ldr	r3, [r3, #0]
 8001000:	2209      	movs	r2, #9
 8001002:	4393      	bics	r3, r2
 8001004:	0019      	movs	r1, r3
 8001006:	4b63      	ldr	r3, [pc, #396]	; (8001194 <HAL_RCC_OscConfig+0x334>)
 8001008:	6a7a      	ldr	r2, [r7, #36]	; 0x24
 800100a:	430a      	orrs	r2, r1
 800100c:	601a      	str	r2, [r3, #0]
      }

      /* Update the SystemCoreClock global variable */
      SystemCoreClock = HAL_RCC_GetSysClockFreq() >> AHBPrescTable[(RCC->CFGR & RCC_CFGR_HPRE)>> RCC_CFGR_HPRE_Pos];
 800100e:	f000 fbcb 	bl	80017a8 <HAL_RCC_GetSysClockFreq>
 8001012:	0001      	movs	r1, r0
 8001014:	4b5f      	ldr	r3, [pc, #380]	; (8001194 <HAL_RCC_OscConfig+0x334>)
 8001016:	68db      	ldr	r3, [r3, #12]
 8001018:	091b      	lsrs	r3, r3, #4
 800101a:	220f      	movs	r2, #15
 800101c:	4013      	ands	r3, r2
 800101e:	4a61      	ldr	r2, [pc, #388]	; (80011a4 <HAL_RCC_OscConfig+0x344>)
 8001020:	5cd3      	ldrb	r3, [r2, r3]
 8001022:	000a      	movs	r2, r1
 8001024:	40da      	lsrs	r2, r3
 8001026:	4b60      	ldr	r3, [pc, #384]	; (80011a8 <HAL_RCC_OscConfig+0x348>)
 8001028:	601a      	str	r2, [r3, #0]

      /* Configure the source of time base considering new system clocks settings*/
      status = HAL_InitTick (TICK_INT_PRIORITY);
 800102a:	2513      	movs	r5, #19
 800102c:	197c      	adds	r4, r7, r5
 800102e:	2000      	movs	r0, #0
 8001030:	f7ff fc2c 	bl	800088c <HAL_InitTick>
 8001034:	0003      	movs	r3, r0
 8001036:	7023      	strb	r3, [r4, #0]
      if(status != HAL_OK)
 8001038:	197b      	adds	r3, r7, r5
 800103a:	781b      	ldrb	r3, [r3, #0]
 800103c:	2b00      	cmp	r3, #0
 800103e:	d047      	beq.n	80010d0 <HAL_RCC_OscConfig+0x270>
      {
        return status;
 8001040:	2313      	movs	r3, #19
 8001042:	18fb      	adds	r3, r7, r3
 8001044:	781b      	ldrb	r3, [r3, #0]
 8001046:	e27f      	b.n	8001548 <HAL_RCC_OscConfig+0x6e8>
      }
    }
    else
    {
      /* Check the HSI State */
      if(hsi_state != RCC_HSI_OFF)
 8001048:	6a7b      	ldr	r3, [r7, #36]	; 0x24
 800104a:	2b00      	cmp	r3, #0
 800104c:	d027      	beq.n	800109e <HAL_RCC_OscConfig+0x23e>
      {
        /* Enable the Internal High Speed oscillator (HSI or HSIdiv4) */
        __HAL_RCC_HSI_CONFIG(hsi_state);
 800104e:	4b51      	ldr	r3, [pc, #324]	; (8001194 <HAL_RCC_OscConfig+0x334>)
 8001050:	681b      	ldr	r3, [r3, #0]
 8001052:	2209      	movs	r2, #9
 8001054:	4393      	bics	r3, r2
 8001056:	0019      	movs	r1, r3
 8001058:	4b4e      	ldr	r3, [pc, #312]	; (8001194 <HAL_RCC_OscConfig+0x334>)
 800105a:	6a7a      	ldr	r2, [r7, #36]	; 0x24
 800105c:	430a      	orrs	r2, r1
 800105e:	601a      	str	r2, [r3, #0]

        /* Get Start Tick */
        tickstart = HAL_GetTick();
 8001060:	f7ff fc4a 	bl	80008f8 <HAL_GetTick>
 8001064:	0003      	movs	r3, r0
 8001066:	617b      	str	r3, [r7, #20]

        /* Wait till HSI is ready */
        while(__HAL_RCC_GET_FLAG(RCC_FLAG_HSIRDY) == 0U)
 8001068:	e008      	b.n	800107c <HAL_RCC_OscConfig+0x21c>
        {
          if((HAL_GetTick() - tickstart ) > HSI_TIMEOUT_VALUE)
 800106a:	f7ff fc45 	bl	80008f8 <HAL_GetTick>
 800106e:	0002      	movs	r2, r0
 8001070:	697b      	ldr	r3, [r7, #20]
 8001072:	1ad3      	subs	r3, r2, r3
 8001074:	2b02      	cmp	r3, #2
 8001076:	d901      	bls.n	800107c <HAL_RCC_OscConfig+0x21c>
          {
            return HAL_TIMEOUT;
 8001078:	2303      	movs	r3, #3
 800107a:	e265      	b.n	8001548 <HAL_RCC_OscConfig+0x6e8>
        while(__HAL_RCC_GET_FLAG(RCC_FLAG_HSIRDY) == 0U)
 800107c:	4b45      	ldr	r3, [pc, #276]	; (8001194 <HAL_RCC_OscConfig+0x334>)
 800107e:	681b      	ldr	r3, [r3, #0]
 8001080:	2204      	movs	r2, #4
 8001082:	4013      	ands	r3, r2
 8001084:	d0f1      	beq.n	800106a <HAL_RCC_OscConfig+0x20a>
          }
        }

        /* Adjusts the Internal High Speed oscillator (HSI) calibration value.*/
        __HAL_RCC_HSI_CALIBRATIONVALUE_ADJUST(RCC_OscInitStruct->HSICalibrationValue);
 8001086:	4b43      	ldr	r3, [pc, #268]	; (8001194 <HAL_RCC_OscConfig+0x334>)
 8001088:	685b      	ldr	r3, [r3, #4]
 800108a:	4a45      	ldr	r2, [pc, #276]	; (80011a0 <HAL_RCC_OscConfig+0x340>)
 800108c:	4013      	ands	r3, r2
 800108e:	0019      	movs	r1, r3
 8001090:	687b      	ldr	r3, [r7, #4]
 8001092:	691b      	ldr	r3, [r3, #16]
 8001094:	021a      	lsls	r2, r3, #8
 8001096:	4b3f      	ldr	r3, [pc, #252]	; (8001194 <HAL_RCC_OscConfig+0x334>)
 8001098:	430a      	orrs	r2, r1
 800109a:	605a      	str	r2, [r3, #4]
 800109c:	e018      	b.n	80010d0 <HAL_RCC_OscConfig+0x270>
      }
      else
      {
        /* Disable the Internal High Speed oscillator (HSI). */
        __HAL_RCC_HSI_DISABLE();
 800109e:	4b3d      	ldr	r3, [pc, #244]	; (8001194 <HAL_RCC_OscConfig+0x334>)
 80010a0:	681a      	ldr	r2, [r3, #0]
 80010a2:	4b3c      	ldr	r3, [pc, #240]	; (8001194 <HAL_RCC_OscConfig+0x334>)
 80010a4:	2101      	movs	r1, #1
 80010a6:	438a      	bics	r2, r1
 80010a8:	601a      	str	r2, [r3, #0]

        /* Get Start Tick */
        tickstart = HAL_GetTick();
 80010aa:	f7ff fc25 	bl	80008f8 <HAL_GetTick>
 80010ae:	0003      	movs	r3, r0
 80010b0:	617b      	str	r3, [r7, #20]

        /* Wait till HSI is disabled */
        while(__HAL_RCC_GET_FLAG(RCC_FLAG_HSIRDY) != 0U)
 80010b2:	e008      	b.n	80010c6 <HAL_RCC_OscConfig+0x266>
        {
          if((HAL_GetTick() - tickstart ) > HSI_TIMEOUT_VALUE)
 80010b4:	f7ff fc20 	bl	80008f8 <HAL_GetTick>
 80010b8:	0002      	movs	r2, r0
 80010ba:	697b      	ldr	r3, [r7, #20]
 80010bc:	1ad3      	subs	r3, r2, r3
 80010be:	2b02      	cmp	r3, #2
 80010c0:	d901      	bls.n	80010c6 <HAL_RCC_OscConfig+0x266>
          {
            return HAL_TIMEOUT;
 80010c2:	2303      	movs	r3, #3
 80010c4:	e240      	b.n	8001548 <HAL_RCC_OscConfig+0x6e8>
        while(__HAL_RCC_GET_FLAG(RCC_FLAG_HSIRDY) != 0U)
 80010c6:	4b33      	ldr	r3, [pc, #204]	; (8001194 <HAL_RCC_OscConfig+0x334>)
 80010c8:	681b      	ldr	r3, [r3, #0]
 80010ca:	2204      	movs	r2, #4
 80010cc:	4013      	ands	r3, r2
 80010ce:	d1f1      	bne.n	80010b4 <HAL_RCC_OscConfig+0x254>
        }
      }
    }
  }
  /*----------------------------- MSI Configuration --------------------------*/
  if(((RCC_OscInitStruct->OscillatorType) & RCC_OSCILLATORTYPE_MSI) == RCC_OSCILLATORTYPE_MSI)
 80010d0:	687b      	ldr	r3, [r7, #4]
 80010d2:	681b      	ldr	r3, [r3, #0]
 80010d4:	2210      	movs	r2, #16
 80010d6:	4013      	ands	r3, r2
 80010d8:	d100      	bne.n	80010dc <HAL_RCC_OscConfig+0x27c>
 80010da:	e09e      	b.n	800121a <HAL_RCC_OscConfig+0x3ba>
  {
    /* When the MSI is used as system clock it will not be disabled */
    if((sysclk_source == RCC_CFGR_SWS_MSI) )
 80010dc:	69fb      	ldr	r3, [r7, #28]
 80010de:	2b00      	cmp	r3, #0
 80010e0:	d13f      	bne.n	8001162 <HAL_RCC_OscConfig+0x302>
    {
      if((__HAL_RCC_GET_FLAG(RCC_FLAG_MSIRDY) != 0U) && (RCC_OscInitStruct->MSIState == RCC_MSI_OFF))
 80010e2:	4b2c      	ldr	r3, [pc, #176]	; (8001194 <HAL_RCC_OscConfig+0x334>)
 80010e4:	681a      	ldr	r2, [r3, #0]
 80010e6:	2380      	movs	r3, #128	; 0x80
 80010e8:	009b      	lsls	r3, r3, #2
 80010ea:	4013      	ands	r3, r2
 80010ec:	d005      	beq.n	80010fa <HAL_RCC_OscConfig+0x29a>
 80010ee:	687b      	ldr	r3, [r7, #4]
 80010f0:	699b      	ldr	r3, [r3, #24]
 80010f2:	2b00      	cmp	r3, #0
 80010f4:	d101      	bne.n	80010fa <HAL_RCC_OscConfig+0x29a>
      {
        return HAL_ERROR;
 80010f6:	2301      	movs	r3, #1
 80010f8:	e226      	b.n	8001548 <HAL_RCC_OscConfig+0x6e8>
        /* Check MSICalibrationValue and MSIClockRange input parameters */
        assert_param(IS_RCC_MSICALIBRATION_VALUE(RCC_OscInitStruct->MSICalibrationValue));
        assert_param(IS_RCC_MSI_CLOCK_RANGE(RCC_OscInitStruct->MSIClockRange));

        /* Selects the Multiple Speed oscillator (MSI) clock range .*/
        __HAL_RCC_MSI_RANGE_CONFIG(RCC_OscInitStruct->MSIClockRange);
 80010fa:	4b26      	ldr	r3, [pc, #152]	; (8001194 <HAL_RCC_OscConfig+0x334>)
 80010fc:	685b      	ldr	r3, [r3, #4]
 80010fe:	4a2b      	ldr	r2, [pc, #172]	; (80011ac <HAL_RCC_OscConfig+0x34c>)
 8001100:	4013      	ands	r3, r2
 8001102:	0019      	movs	r1, r3
 8001104:	687b      	ldr	r3, [r7, #4]
 8001106:	6a1a      	ldr	r2, [r3, #32]
 8001108:	4b22      	ldr	r3, [pc, #136]	; (8001194 <HAL_RCC_OscConfig+0x334>)
 800110a:	430a      	orrs	r2, r1
 800110c:	605a      	str	r2, [r3, #4]
        /* Adjusts the Multiple Speed oscillator (MSI) calibration value.*/
        __HAL_RCC_MSI_CALIBRATIONVALUE_ADJUST(RCC_OscInitStruct->MSICalibrationValue);
 800110e:	4b21      	ldr	r3, [pc, #132]	; (8001194 <HAL_RCC_OscConfig+0x334>)
 8001110:	685b      	ldr	r3, [r3, #4]
 8001112:	021b      	lsls	r3, r3, #8
 8001114:	0a19      	lsrs	r1, r3, #8
 8001116:	687b      	ldr	r3, [r7, #4]
 8001118:	69db      	ldr	r3, [r3, #28]
 800111a:	061a      	lsls	r2, r3, #24
 800111c:	4b1d      	ldr	r3, [pc, #116]	; (8001194 <HAL_RCC_OscConfig+0x334>)
 800111e:	430a      	orrs	r2, r1
 8001120:	605a      	str	r2, [r3, #4]


        /* Update the SystemCoreClock global variable */
        SystemCoreClock =  (32768U * (1UL << ((RCC_OscInitStruct->MSIClockRange >> RCC_ICSCR_MSIRANGE_Pos) + 1U)))
 8001122:	687b      	ldr	r3, [r7, #4]
 8001124:	6a1b      	ldr	r3, [r3, #32]
 8001126:	0b5b      	lsrs	r3, r3, #13
 8001128:	3301      	adds	r3, #1
 800112a:	2280      	movs	r2, #128	; 0x80
 800112c:	0212      	lsls	r2, r2, #8
 800112e:	409a      	lsls	r2, r3
                           >> AHBPrescTable[((RCC->CFGR & RCC_CFGR_HPRE) >> RCC_CFGR_HPRE_Pos)];
 8001130:	4b18      	ldr	r3, [pc, #96]	; (8001194 <HAL_RCC_OscConfig+0x334>)
 8001132:	68db      	ldr	r3, [r3, #12]
 8001134:	091b      	lsrs	r3, r3, #4
 8001136:	210f      	movs	r1, #15
 8001138:	400b      	ands	r3, r1
 800113a:	491a      	ldr	r1, [pc, #104]	; (80011a4 <HAL_RCC_OscConfig+0x344>)
 800113c:	5ccb      	ldrb	r3, [r1, r3]
 800113e:	40da      	lsrs	r2, r3
        SystemCoreClock =  (32768U * (1UL << ((RCC_OscInitStruct->MSIClockRange >> RCC_ICSCR_MSIRANGE_Pos) + 1U)))
 8001140:	4b19      	ldr	r3, [pc, #100]	; (80011a8 <HAL_RCC_OscConfig+0x348>)
 8001142:	601a      	str	r2, [r3, #0]

        /* Configure the source of time base considering new system clocks settings*/
        status = HAL_InitTick (TICK_INT_PRIORITY);
 8001144:	2513      	movs	r5, #19
 8001146:	197c      	adds	r4, r7, r5
 8001148:	2000      	movs	r0, #0
 800114a:	f7ff fb9f 	bl	800088c <HAL_InitTick>
 800114e:	0003      	movs	r3, r0
 8001150:	7023      	strb	r3, [r4, #0]
        if(status != HAL_OK)
 8001152:	197b      	adds	r3, r7, r5
 8001154:	781b      	ldrb	r3, [r3, #0]
 8001156:	2b00      	cmp	r3, #0
 8001158:	d05f      	beq.n	800121a <HAL_RCC_OscConfig+0x3ba>
        {
          return status;
 800115a:	2313      	movs	r3, #19
 800115c:	18fb      	adds	r3, r7, r3
 800115e:	781b      	ldrb	r3, [r3, #0]
 8001160:	e1f2      	b.n	8001548 <HAL_RCC_OscConfig+0x6e8>
    {
      /* Check MSI State */
      assert_param(IS_RCC_MSI(RCC_OscInitStruct->MSIState));

      /* Check the MSI State */
      if(RCC_OscInitStruct->MSIState != RCC_MSI_OFF)
 8001162:	687b      	ldr	r3, [r7, #4]
 8001164:	699b      	ldr	r3, [r3, #24]
 8001166:	2b00      	cmp	r3, #0
 8001168:	d03d      	beq.n	80011e6 <HAL_RCC_OscConfig+0x386>
      {
        /* Enable the Multi Speed oscillator (MSI). */
        __HAL_RCC_MSI_ENABLE();
 800116a:	4b0a      	ldr	r3, [pc, #40]	; (8001194 <HAL_RCC_OscConfig+0x334>)
 800116c:	681a      	ldr	r2, [r3, #0]
 800116e:	4b09      	ldr	r3, [pc, #36]	; (8001194 <HAL_RCC_OscConfig+0x334>)
 8001170:	2180      	movs	r1, #128	; 0x80
 8001172:	0049      	lsls	r1, r1, #1
 8001174:	430a      	orrs	r2, r1
 8001176:	601a      	str	r2, [r3, #0]

        /* Get Start Tick */
        tickstart = HAL_GetTick();
 8001178:	f7ff fbbe 	bl	80008f8 <HAL_GetTick>
 800117c:	0003      	movs	r3, r0
 800117e:	617b      	str	r3, [r7, #20]

        /* Wait till MSI is ready */
        while(__HAL_RCC_GET_FLAG(RCC_FLAG_MSIRDY) == 0U)
 8001180:	e016      	b.n	80011b0 <HAL_RCC_OscConfig+0x350>
        {
          if((HAL_GetTick() - tickstart) > MSI_TIMEOUT_VALUE)
 8001182:	f7ff fbb9 	bl	80008f8 <HAL_GetTick>
 8001186:	0002      	movs	r2, r0
 8001188:	697b      	ldr	r3, [r7, #20]
 800118a:	1ad3      	subs	r3, r2, r3
 800118c:	2b02      	cmp	r3, #2
 800118e:	d90f      	bls.n	80011b0 <HAL_RCC_OscConfig+0x350>
          {
            return HAL_TIMEOUT;
 8001190:	2303      	movs	r3, #3
 8001192:	e1d9      	b.n	8001548 <HAL_RCC_OscConfig+0x6e8>
 8001194:	40021000 	.word	0x40021000
 8001198:	fffeffff 	.word	0xfffeffff
 800119c:	fffbffff 	.word	0xfffbffff
 80011a0:	ffffe0ff 	.word	0xffffe0ff
 80011a4:	08001920 	.word	0x08001920
 80011a8:	20000000 	.word	0x20000000
 80011ac:	ffff1fff 	.word	0xffff1fff
        while(__HAL_RCC_GET_FLAG(RCC_FLAG_MSIRDY) == 0U)
 80011b0:	4bca      	ldr	r3, [pc, #808]	; (80014dc <HAL_RCC_OscConfig+0x67c>)
 80011b2:	681a      	ldr	r2, [r3, #0]
 80011b4:	2380      	movs	r3, #128	; 0x80
 80011b6:	009b      	lsls	r3, r3, #2
 80011b8:	4013      	ands	r3, r2
 80011ba:	d0e2      	beq.n	8001182 <HAL_RCC_OscConfig+0x322>
        /* Check MSICalibrationValue and MSIClockRange input parameters */
        assert_param(IS_RCC_MSICALIBRATION_VALUE(RCC_OscInitStruct->MSICalibrationValue));
        assert_param(IS_RCC_MSI_CLOCK_RANGE(RCC_OscInitStruct->MSIClockRange));

        /* Selects the Multiple Speed oscillator (MSI) clock range .*/
        __HAL_RCC_MSI_RANGE_CONFIG(RCC_OscInitStruct->MSIClockRange);
 80011bc:	4bc7      	ldr	r3, [pc, #796]	; (80014dc <HAL_RCC_OscConfig+0x67c>)
 80011be:	685b      	ldr	r3, [r3, #4]
 80011c0:	4ac7      	ldr	r2, [pc, #796]	; (80014e0 <HAL_RCC_OscConfig+0x680>)
 80011c2:	4013      	ands	r3, r2
 80011c4:	0019      	movs	r1, r3
 80011c6:	687b      	ldr	r3, [r7, #4]
 80011c8:	6a1a      	ldr	r2, [r3, #32]
 80011ca:	4bc4      	ldr	r3, [pc, #784]	; (80014dc <HAL_RCC_OscConfig+0x67c>)
 80011cc:	430a      	orrs	r2, r1
 80011ce:	605a      	str	r2, [r3, #4]
         /* Adjusts the Multiple Speed oscillator (MSI) calibration value.*/
        __HAL_RCC_MSI_CALIBRATIONVALUE_ADJUST(RCC_OscInitStruct->MSICalibrationValue);
 80011d0:	4bc2      	ldr	r3, [pc, #776]	; (80014dc <HAL_RCC_OscConfig+0x67c>)
 80011d2:	685b      	ldr	r3, [r3, #4]
 80011d4:	021b      	lsls	r3, r3, #8
 80011d6:	0a19      	lsrs	r1, r3, #8
 80011d8:	687b      	ldr	r3, [r7, #4]
 80011da:	69db      	ldr	r3, [r3, #28]
 80011dc:	061a      	lsls	r2, r3, #24
 80011de:	4bbf      	ldr	r3, [pc, #764]	; (80014dc <HAL_RCC_OscConfig+0x67c>)
 80011e0:	430a      	orrs	r2, r1
 80011e2:	605a      	str	r2, [r3, #4]
 80011e4:	e019      	b.n	800121a <HAL_RCC_OscConfig+0x3ba>
      }
      else
      {
        /* Disable the Multi Speed oscillator (MSI). */
        __HAL_RCC_MSI_DISABLE();
 80011e6:	4bbd      	ldr	r3, [pc, #756]	; (80014dc <HAL_RCC_OscConfig+0x67c>)
 80011e8:	681a      	ldr	r2, [r3, #0]
 80011ea:	4bbc      	ldr	r3, [pc, #752]	; (80014dc <HAL_RCC_OscConfig+0x67c>)
 80011ec:	49bd      	ldr	r1, [pc, #756]	; (80014e4 <HAL_RCC_OscConfig+0x684>)
 80011ee:	400a      	ands	r2, r1
 80011f0:	601a      	str	r2, [r3, #0]

        /* Get Start Tick */
        tickstart = HAL_GetTick();
 80011f2:	f7ff fb81 	bl	80008f8 <HAL_GetTick>
 80011f6:	0003      	movs	r3, r0
 80011f8:	617b      	str	r3, [r7, #20]

        /* Wait till MSI is ready */
        while(__HAL_RCC_GET_FLAG(RCC_FLAG_MSIRDY) != 0U)
 80011fa:	e008      	b.n	800120e <HAL_RCC_OscConfig+0x3ae>
        {
          if((HAL_GetTick() - tickstart) > MSI_TIMEOUT_VALUE)
 80011fc:	f7ff fb7c 	bl	80008f8 <HAL_GetTick>
 8001200:	0002      	movs	r2, r0
 8001202:	697b      	ldr	r3, [r7, #20]
 8001204:	1ad3      	subs	r3, r2, r3
 8001206:	2b02      	cmp	r3, #2
 8001208:	d901      	bls.n	800120e <HAL_RCC_OscConfig+0x3ae>
          {
            return HAL_TIMEOUT;
 800120a:	2303      	movs	r3, #3
 800120c:	e19c      	b.n	8001548 <HAL_RCC_OscConfig+0x6e8>
        while(__HAL_RCC_GET_FLAG(RCC_FLAG_MSIRDY) != 0U)
 800120e:	4bb3      	ldr	r3, [pc, #716]	; (80014dc <HAL_RCC_OscConfig+0x67c>)
 8001210:	681a      	ldr	r2, [r3, #0]
 8001212:	2380      	movs	r3, #128	; 0x80
 8001214:	009b      	lsls	r3, r3, #2
 8001216:	4013      	ands	r3, r2
 8001218:	d1f0      	bne.n	80011fc <HAL_RCC_OscConfig+0x39c>
        }
      }
    }
  }
  /*------------------------------ LSI Configuration -------------------------*/
  if(((RCC_OscInitStruct->OscillatorType) & RCC_OSCILLATORTYPE_LSI) == RCC_OSCILLATORTYPE_LSI)
 800121a:	687b      	ldr	r3, [r7, #4]
 800121c:	681b      	ldr	r3, [r3, #0]
 800121e:	2208      	movs	r2, #8
 8001220:	4013      	ands	r3, r2
 8001222:	d036      	beq.n	8001292 <HAL_RCC_OscConfig+0x432>
  {
    /* Check the parameters */
    assert_param(IS_RCC_LSI(RCC_OscInitStruct->LSIState));

    /* Check the LSI State */
    if(RCC_OscInitStruct->LSIState != RCC_LSI_OFF)
 8001224:	687b      	ldr	r3, [r7, #4]
 8001226:	695b      	ldr	r3, [r3, #20]
 8001228:	2b00      	cmp	r3, #0
 800122a:	d019      	beq.n	8001260 <HAL_RCC_OscConfig+0x400>
    {
      /* Enable the Internal Low Speed oscillator (LSI). */
      __HAL_RCC_LSI_ENABLE();
 800122c:	4bab      	ldr	r3, [pc, #684]	; (80014dc <HAL_RCC_OscConfig+0x67c>)
 800122e:	6d1a      	ldr	r2, [r3, #80]	; 0x50
 8001230:	4baa      	ldr	r3, [pc, #680]	; (80014dc <HAL_RCC_OscConfig+0x67c>)
 8001232:	2101      	movs	r1, #1
 8001234:	430a      	orrs	r2, r1
 8001236:	651a      	str	r2, [r3, #80]	; 0x50

      /* Get Start Tick */
      tickstart = HAL_GetTick();
 8001238:	f7ff fb5e 	bl	80008f8 <HAL_GetTick>
 800123c:	0003      	movs	r3, r0
 800123e:	617b      	str	r3, [r7, #20]

      /* Wait till LSI is ready */
      while(__HAL_RCC_GET_FLAG(RCC_FLAG_LSIRDY) == 0U)
 8001240:	e008      	b.n	8001254 <HAL_RCC_OscConfig+0x3f4>
      {
        if((HAL_GetTick() - tickstart ) > LSI_TIMEOUT_VALUE)
 8001242:	f7ff fb59 	bl	80008f8 <HAL_GetTick>
 8001246:	0002      	movs	r2, r0
 8001248:	697b      	ldr	r3, [r7, #20]
 800124a:	1ad3      	subs	r3, r2, r3
 800124c:	2b02      	cmp	r3, #2
 800124e:	d901      	bls.n	8001254 <HAL_RCC_OscConfig+0x3f4>
        {
          return HAL_TIMEOUT;
 8001250:	2303      	movs	r3, #3
 8001252:	e179      	b.n	8001548 <HAL_RCC_OscConfig+0x6e8>
      while(__HAL_RCC_GET_FLAG(RCC_FLAG_LSIRDY) == 0U)
 8001254:	4ba1      	ldr	r3, [pc, #644]	; (80014dc <HAL_RCC_OscConfig+0x67c>)
 8001256:	6d1b      	ldr	r3, [r3, #80]	; 0x50
 8001258:	2202      	movs	r2, #2
 800125a:	4013      	ands	r3, r2
 800125c:	d0f1      	beq.n	8001242 <HAL_RCC_OscConfig+0x3e2>
 800125e:	e018      	b.n	8001292 <HAL_RCC_OscConfig+0x432>
      }
    }
    else
    {
      /* Disable the Internal Low Speed oscillator (LSI). */
      __HAL_RCC_LSI_DISABLE();
 8001260:	4b9e      	ldr	r3, [pc, #632]	; (80014dc <HAL_RCC_OscConfig+0x67c>)
 8001262:	6d1a      	ldr	r2, [r3, #80]	; 0x50
 8001264:	4b9d      	ldr	r3, [pc, #628]	; (80014dc <HAL_RCC_OscConfig+0x67c>)
 8001266:	2101      	movs	r1, #1
 8001268:	438a      	bics	r2, r1
 800126a:	651a      	str	r2, [r3, #80]	; 0x50

      /* Get Start Tick */
      tickstart = HAL_GetTick();
 800126c:	f7ff fb44 	bl	80008f8 <HAL_GetTick>
 8001270:	0003      	movs	r3, r0
 8001272:	617b      	str	r3, [r7, #20]

      /* Wait till LSI is disabled */
      while(__HAL_RCC_GET_FLAG(RCC_FLAG_LSIRDY) != 0U)
 8001274:	e008      	b.n	8001288 <HAL_RCC_OscConfig+0x428>
      {
        if((HAL_GetTick() - tickstart ) > LSI_TIMEOUT_VALUE)
 8001276:	f7ff fb3f 	bl	80008f8 <HAL_GetTick>
 800127a:	0002      	movs	r2, r0
 800127c:	697b      	ldr	r3, [r7, #20]
 800127e:	1ad3      	subs	r3, r2, r3
 8001280:	2b02      	cmp	r3, #2
 8001282:	d901      	bls.n	8001288 <HAL_RCC_OscConfig+0x428>
        {
          return HAL_TIMEOUT;
 8001284:	2303      	movs	r3, #3
 8001286:	e15f      	b.n	8001548 <HAL_RCC_OscConfig+0x6e8>
      while(__HAL_RCC_GET_FLAG(RCC_FLAG_LSIRDY) != 0U)
 8001288:	4b94      	ldr	r3, [pc, #592]	; (80014dc <HAL_RCC_OscConfig+0x67c>)
 800128a:	6d1b      	ldr	r3, [r3, #80]	; 0x50
 800128c:	2202      	movs	r2, #2
 800128e:	4013      	ands	r3, r2
 8001290:	d1f1      	bne.n	8001276 <HAL_RCC_OscConfig+0x416>
        }
      }
    }
  }
  /*------------------------------ LSE Configuration -------------------------*/
  if(((RCC_OscInitStruct->OscillatorType) & RCC_OSCILLATORTYPE_LSE) == RCC_OSCILLATORTYPE_LSE)
 8001292:	687b      	ldr	r3, [r7, #4]
 8001294:	681b      	ldr	r3, [r3, #0]
 8001296:	2204      	movs	r2, #4
 8001298:	4013      	ands	r3, r2
 800129a:	d100      	bne.n	800129e <HAL_RCC_OscConfig+0x43e>
 800129c:	e0af      	b.n	80013fe <HAL_RCC_OscConfig+0x59e>
  {
    FlagStatus       pwrclkchanged = RESET;
 800129e:	2323      	movs	r3, #35	; 0x23
 80012a0:	18fb      	adds	r3, r7, r3
 80012a2:	2200      	movs	r2, #0
 80012a4:	701a      	strb	r2, [r3, #0]
    /* Check the parameters */
    assert_param(IS_RCC_LSE(RCC_OscInitStruct->LSEState));

    /* Update LSE configuration in Backup Domain control register    */
    /* Requires to enable write access to Backup Domain of necessary */
    if(__HAL_RCC_PWR_IS_CLK_DISABLED())
 80012a6:	4b8d      	ldr	r3, [pc, #564]	; (80014dc <HAL_RCC_OscConfig+0x67c>)
 80012a8:	6b9a      	ldr	r2, [r3, #56]	; 0x38
 80012aa:	2380      	movs	r3, #128	; 0x80
 80012ac:	055b      	lsls	r3, r3, #21
 80012ae:	4013      	ands	r3, r2
 80012b0:	d10a      	bne.n	80012c8 <HAL_RCC_OscConfig+0x468>
    {
      __HAL_RCC_PWR_CLK_ENABLE();
 80012b2:	4b8a      	ldr	r3, [pc, #552]	; (80014dc <HAL_RCC_OscConfig+0x67c>)
 80012b4:	6b9a      	ldr	r2, [r3, #56]	; 0x38
 80012b6:	4b89      	ldr	r3, [pc, #548]	; (80014dc <HAL_RCC_OscConfig+0x67c>)
 80012b8:	2180      	movs	r1, #128	; 0x80
 80012ba:	0549      	lsls	r1, r1, #21
 80012bc:	430a      	orrs	r2, r1
 80012be:	639a      	str	r2, [r3, #56]	; 0x38
      pwrclkchanged = SET;
 80012c0:	2323      	movs	r3, #35	; 0x23
 80012c2:	18fb      	adds	r3, r7, r3
 80012c4:	2201      	movs	r2, #1
 80012c6:	701a      	strb	r2, [r3, #0]
    }

    if(HAL_IS_BIT_CLR(PWR->CR, PWR_CR_DBP))
 80012c8:	4b87      	ldr	r3, [pc, #540]	; (80014e8 <HAL_RCC_OscConfig+0x688>)
 80012ca:	681a      	ldr	r2, [r3, #0]
 80012cc:	2380      	movs	r3, #128	; 0x80
 80012ce:	005b      	lsls	r3, r3, #1
 80012d0:	4013      	ands	r3, r2
 80012d2:	d11a      	bne.n	800130a <HAL_RCC_OscConfig+0x4aa>
    {
      /* Enable write access to Backup domain */
      SET_BIT(PWR->CR, PWR_CR_DBP);
 80012d4:	4b84      	ldr	r3, [pc, #528]	; (80014e8 <HAL_RCC_OscConfig+0x688>)
 80012d6:	681a      	ldr	r2, [r3, #0]
 80012d8:	4b83      	ldr	r3, [pc, #524]	; (80014e8 <HAL_RCC_OscConfig+0x688>)
 80012da:	2180      	movs	r1, #128	; 0x80
 80012dc:	0049      	lsls	r1, r1, #1
 80012de:	430a      	orrs	r2, r1
 80012e0:	601a      	str	r2, [r3, #0]

      /* Wait for Backup domain Write protection disable */
      tickstart = HAL_GetTick();
 80012e2:	f7ff fb09 	bl	80008f8 <HAL_GetTick>
 80012e6:	0003      	movs	r3, r0
 80012e8:	617b      	str	r3, [r7, #20]

      while(HAL_IS_BIT_CLR(PWR->CR, PWR_CR_DBP))
 80012ea:	e008      	b.n	80012fe <HAL_RCC_OscConfig+0x49e>
      {
        if((HAL_GetTick() - tickstart) > RCC_DBP_TIMEOUT_VALUE)
 80012ec:	f7ff fb04 	bl	80008f8 <HAL_GetTick>
 80012f0:	0002      	movs	r2, r0
 80012f2:	697b      	ldr	r3, [r7, #20]
 80012f4:	1ad3      	subs	r3, r2, r3
 80012f6:	2b64      	cmp	r3, #100	; 0x64
 80012f8:	d901      	bls.n	80012fe <HAL_RCC_OscConfig+0x49e>
        {
          return HAL_TIMEOUT;
 80012fa:	2303      	movs	r3, #3
 80012fc:	e124      	b.n	8001548 <HAL_RCC_OscConfig+0x6e8>
      while(HAL_IS_BIT_CLR(PWR->CR, PWR_CR_DBP))
 80012fe:	4b7a      	ldr	r3, [pc, #488]	; (80014e8 <HAL_RCC_OscConfig+0x688>)
 8001300:	681a      	ldr	r2, [r3, #0]
 8001302:	2380      	movs	r3, #128	; 0x80
 8001304:	005b      	lsls	r3, r3, #1
 8001306:	4013      	ands	r3, r2
 8001308:	d0f0      	beq.n	80012ec <HAL_RCC_OscConfig+0x48c>
        }
      }
    }

    /* Set the new LSE configuration -----------------------------------------*/
    __HAL_RCC_LSE_CONFIG(RCC_OscInitStruct->LSEState);
 800130a:	687b      	ldr	r3, [r7, #4]
 800130c:	689a      	ldr	r2, [r3, #8]
 800130e:	2380      	movs	r3, #128	; 0x80
 8001310:	005b      	lsls	r3, r3, #1
 8001312:	429a      	cmp	r2, r3
 8001314:	d107      	bne.n	8001326 <HAL_RCC_OscConfig+0x4c6>
 8001316:	4b71      	ldr	r3, [pc, #452]	; (80014dc <HAL_RCC_OscConfig+0x67c>)
 8001318:	6d1a      	ldr	r2, [r3, #80]	; 0x50
 800131a:	4b70      	ldr	r3, [pc, #448]	; (80014dc <HAL_RCC_OscConfig+0x67c>)
 800131c:	2180      	movs	r1, #128	; 0x80
 800131e:	0049      	lsls	r1, r1, #1
 8001320:	430a      	orrs	r2, r1
 8001322:	651a      	str	r2, [r3, #80]	; 0x50
 8001324:	e031      	b.n	800138a <HAL_RCC_OscConfig+0x52a>
 8001326:	687b      	ldr	r3, [r7, #4]
 8001328:	689b      	ldr	r3, [r3, #8]
 800132a:	2b00      	cmp	r3, #0
 800132c:	d10c      	bne.n	8001348 <HAL_RCC_OscConfig+0x4e8>
 800132e:	4b6b      	ldr	r3, [pc, #428]	; (80014dc <HAL_RCC_OscConfig+0x67c>)
 8001330:	6d1a      	ldr	r2, [r3, #80]	; 0x50
 8001332:	4b6a      	ldr	r3, [pc, #424]	; (80014dc <HAL_RCC_OscConfig+0x67c>)
 8001334:	496b      	ldr	r1, [pc, #428]	; (80014e4 <HAL_RCC_OscConfig+0x684>)
 8001336:	400a      	ands	r2, r1
 8001338:	651a      	str	r2, [r3, #80]	; 0x50
 800133a:	4b68      	ldr	r3, [pc, #416]	; (80014dc <HAL_RCC_OscConfig+0x67c>)
 800133c:	6d1a      	ldr	r2, [r3, #80]	; 0x50
 800133e:	4b67      	ldr	r3, [pc, #412]	; (80014dc <HAL_RCC_OscConfig+0x67c>)
 8001340:	496a      	ldr	r1, [pc, #424]	; (80014ec <HAL_RCC_OscConfig+0x68c>)
 8001342:	400a      	ands	r2, r1
 8001344:	651a      	str	r2, [r3, #80]	; 0x50
 8001346:	e020      	b.n	800138a <HAL_RCC_OscConfig+0x52a>
 8001348:	687b      	ldr	r3, [r7, #4]
 800134a:	689a      	ldr	r2, [r3, #8]
 800134c:	23a0      	movs	r3, #160	; 0xa0
 800134e:	00db      	lsls	r3, r3, #3
 8001350:	429a      	cmp	r2, r3
 8001352:	d10e      	bne.n	8001372 <HAL_RCC_OscConfig+0x512>
 8001354:	4b61      	ldr	r3, [pc, #388]	; (80014dc <HAL_RCC_OscConfig+0x67c>)
 8001356:	6d1a      	ldr	r2, [r3, #80]	; 0x50
 8001358:	4b60      	ldr	r3, [pc, #384]	; (80014dc <HAL_RCC_OscConfig+0x67c>)
 800135a:	2180      	movs	r1, #128	; 0x80
 800135c:	00c9      	lsls	r1, r1, #3
 800135e:	430a      	orrs	r2, r1
 8001360:	651a      	str	r2, [r3, #80]	; 0x50
 8001362:	4b5e      	ldr	r3, [pc, #376]	; (80014dc <HAL_RCC_OscConfig+0x67c>)
 8001364:	6d1a      	ldr	r2, [r3, #80]	; 0x50
 8001366:	4b5d      	ldr	r3, [pc, #372]	; (80014dc <HAL_RCC_OscConfig+0x67c>)
 8001368:	2180      	movs	r1, #128	; 0x80
 800136a:	0049      	lsls	r1, r1, #1
 800136c:	430a      	orrs	r2, r1
 800136e:	651a      	str	r2, [r3, #80]	; 0x50
 8001370:	e00b      	b.n	800138a <HAL_RCC_OscConfig+0x52a>
 8001372:	4b5a      	ldr	r3, [pc, #360]	; (80014dc <HAL_RCC_OscConfig+0x67c>)
 8001374:	6d1a      	ldr	r2, [r3, #80]	; 0x50
 8001376:	4b59      	ldr	r3, [pc, #356]	; (80014dc <HAL_RCC_OscConfig+0x67c>)
 8001378:	495a      	ldr	r1, [pc, #360]	; (80014e4 <HAL_RCC_OscConfig+0x684>)
 800137a:	400a      	ands	r2, r1
 800137c:	651a      	str	r2, [r3, #80]	; 0x50
 800137e:	4b57      	ldr	r3, [pc, #348]	; (80014dc <HAL_RCC_OscConfig+0x67c>)
 8001380:	6d1a      	ldr	r2, [r3, #80]	; 0x50
 8001382:	4b56      	ldr	r3, [pc, #344]	; (80014dc <HAL_RCC_OscConfig+0x67c>)
 8001384:	4959      	ldr	r1, [pc, #356]	; (80014ec <HAL_RCC_OscConfig+0x68c>)
 8001386:	400a      	ands	r2, r1
 8001388:	651a      	str	r2, [r3, #80]	; 0x50
    /* Check the LSE State */
    if(RCC_OscInitStruct->LSEState != RCC_LSE_OFF)
 800138a:	687b      	ldr	r3, [r7, #4]
 800138c:	689b      	ldr	r3, [r3, #8]
 800138e:	2b00      	cmp	r3, #0
 8001390:	d015      	beq.n	80013be <HAL_RCC_OscConfig+0x55e>
    {
      /* Get Start Tick */
      tickstart = HAL_GetTick();
 8001392:	f7ff fab1 	bl	80008f8 <HAL_GetTick>
 8001396:	0003      	movs	r3, r0
 8001398:	617b      	str	r3, [r7, #20]

      /* Wait till LSE is ready */
      while(__HAL_RCC_GET_FLAG(RCC_FLAG_LSERDY) == 0U)
 800139a:	e009      	b.n	80013b0 <HAL_RCC_OscConfig+0x550>
      {
        if((HAL_GetTick() - tickstart ) > RCC_LSE_TIMEOUT_VALUE)
 800139c:	f7ff faac 	bl	80008f8 <HAL_GetTick>
 80013a0:	0002      	movs	r2, r0
 80013a2:	697b      	ldr	r3, [r7, #20]
 80013a4:	1ad3      	subs	r3, r2, r3
 80013a6:	4a52      	ldr	r2, [pc, #328]	; (80014f0 <HAL_RCC_OscConfig+0x690>)
 80013a8:	4293      	cmp	r3, r2
 80013aa:	d901      	bls.n	80013b0 <HAL_RCC_OscConfig+0x550>
        {
          return HAL_TIMEOUT;
 80013ac:	2303      	movs	r3, #3
 80013ae:	e0cb      	b.n	8001548 <HAL_RCC_OscConfig+0x6e8>
      while(__HAL_RCC_GET_FLAG(RCC_FLAG_LSERDY) == 0U)
 80013b0:	4b4a      	ldr	r3, [pc, #296]	; (80014dc <HAL_RCC_OscConfig+0x67c>)
 80013b2:	6d1a      	ldr	r2, [r3, #80]	; 0x50
 80013b4:	2380      	movs	r3, #128	; 0x80
 80013b6:	009b      	lsls	r3, r3, #2
 80013b8:	4013      	ands	r3, r2
 80013ba:	d0ef      	beq.n	800139c <HAL_RCC_OscConfig+0x53c>
 80013bc:	e014      	b.n	80013e8 <HAL_RCC_OscConfig+0x588>
      }
    }
    else
    {
      /* Get Start Tick */
      tickstart = HAL_GetTick();
 80013be:	f7ff fa9b 	bl	80008f8 <HAL_GetTick>
 80013c2:	0003      	movs	r3, r0
 80013c4:	617b      	str	r3, [r7, #20]

      /* Wait till LSE is disabled */
      while(__HAL_RCC_GET_FLAG(RCC_FLAG_LSERDY) != 0U)
 80013c6:	e009      	b.n	80013dc <HAL_RCC_OscConfig+0x57c>
      {
        if((HAL_GetTick() - tickstart ) > RCC_LSE_TIMEOUT_VALUE)
 80013c8:	f7ff fa96 	bl	80008f8 <HAL_GetTick>
 80013cc:	0002      	movs	r2, r0
 80013ce:	697b      	ldr	r3, [r7, #20]
 80013d0:	1ad3      	subs	r3, r2, r3
 80013d2:	4a47      	ldr	r2, [pc, #284]	; (80014f0 <HAL_RCC_OscConfig+0x690>)
 80013d4:	4293      	cmp	r3, r2
 80013d6:	d901      	bls.n	80013dc <HAL_RCC_OscConfig+0x57c>
        {
          return HAL_TIMEOUT;
 80013d8:	2303      	movs	r3, #3
 80013da:	e0b5      	b.n	8001548 <HAL_RCC_OscConfig+0x6e8>
      while(__HAL_RCC_GET_FLAG(RCC_FLAG_LSERDY) != 0U)
 80013dc:	4b3f      	ldr	r3, [pc, #252]	; (80014dc <HAL_RCC_OscConfig+0x67c>)
 80013de:	6d1a      	ldr	r2, [r3, #80]	; 0x50
 80013e0:	2380      	movs	r3, #128	; 0x80
 80013e2:	009b      	lsls	r3, r3, #2
 80013e4:	4013      	ands	r3, r2
 80013e6:	d1ef      	bne.n	80013c8 <HAL_RCC_OscConfig+0x568>
        }
      }
    }

    /* Require to disable power clock if necessary */
    if(pwrclkchanged == SET)
 80013e8:	2323      	movs	r3, #35	; 0x23
 80013ea:	18fb      	adds	r3, r7, r3
 80013ec:	781b      	ldrb	r3, [r3, #0]
 80013ee:	2b01      	cmp	r3, #1
 80013f0:	d105      	bne.n	80013fe <HAL_RCC_OscConfig+0x59e>
    {
      __HAL_RCC_PWR_CLK_DISABLE();
 80013f2:	4b3a      	ldr	r3, [pc, #232]	; (80014dc <HAL_RCC_OscConfig+0x67c>)
 80013f4:	6b9a      	ldr	r2, [r3, #56]	; 0x38
 80013f6:	4b39      	ldr	r3, [pc, #228]	; (80014dc <HAL_RCC_OscConfig+0x67c>)
 80013f8:	493e      	ldr	r1, [pc, #248]	; (80014f4 <HAL_RCC_OscConfig+0x694>)
 80013fa:	400a      	ands	r2, r1
 80013fc:	639a      	str	r2, [r3, #56]	; 0x38
#endif /* RCC_HSI48_SUPPORT */

  /*-------------------------------- PLL Configuration -----------------------*/
  /* Check the parameters */
  assert_param(IS_RCC_PLL(RCC_OscInitStruct->PLL.PLLState));
  if ((RCC_OscInitStruct->PLL.PLLState) != RCC_PLL_NONE)
 80013fe:	687b      	ldr	r3, [r7, #4]
 8001400:	6a5b      	ldr	r3, [r3, #36]	; 0x24
 8001402:	2b00      	cmp	r3, #0
 8001404:	d100      	bne.n	8001408 <HAL_RCC_OscConfig+0x5a8>
 8001406:	e09e      	b.n	8001546 <HAL_RCC_OscConfig+0x6e6>
  {
    /* Check if the PLL is used as system clock or not */
    if(sysclk_source != RCC_SYSCLKSOURCE_STATUS_PLLCLK)
 8001408:	69fb      	ldr	r3, [r7, #28]
 800140a:	2b0c      	cmp	r3, #12
 800140c:	d100      	bne.n	8001410 <HAL_RCC_OscConfig+0x5b0>
 800140e:	e077      	b.n	8001500 <HAL_RCC_OscConfig+0x6a0>
    {
      if((RCC_OscInitStruct->PLL.PLLState) == RCC_PLL_ON)
 8001410:	687b      	ldr	r3, [r7, #4]
 8001412:	6a5b      	ldr	r3, [r3, #36]	; 0x24
 8001414:	2b02      	cmp	r3, #2
 8001416:	d145      	bne.n	80014a4 <HAL_RCC_OscConfig+0x644>
        assert_param(IS_RCC_PLLSOURCE(RCC_OscInitStruct->PLL.PLLSource));
        assert_param(IS_RCC_PLL_MUL(RCC_OscInitStruct->PLL.PLLMUL));
        assert_param(IS_RCC_PLL_DIV(RCC_OscInitStruct->PLL.PLLDIV));

        /* Disable the main PLL. */
        __HAL_RCC_PLL_DISABLE();
 8001418:	4b30      	ldr	r3, [pc, #192]	; (80014dc <HAL_RCC_OscConfig+0x67c>)
 800141a:	681a      	ldr	r2, [r3, #0]
 800141c:	4b2f      	ldr	r3, [pc, #188]	; (80014dc <HAL_RCC_OscConfig+0x67c>)
 800141e:	4936      	ldr	r1, [pc, #216]	; (80014f8 <HAL_RCC_OscConfig+0x698>)
 8001420:	400a      	ands	r2, r1
 8001422:	601a      	str	r2, [r3, #0]

        /* Get Start Tick */
        tickstart = HAL_GetTick();
 8001424:	f7ff fa68 	bl	80008f8 <HAL_GetTick>
 8001428:	0003      	movs	r3, r0
 800142a:	617b      	str	r3, [r7, #20]

        /* Wait till PLL is disabled */
        while(__HAL_RCC_GET_FLAG(RCC_FLAG_PLLRDY)  != 0U)
 800142c:	e008      	b.n	8001440 <HAL_RCC_OscConfig+0x5e0>
        {
          if((HAL_GetTick() - tickstart ) > PLL_TIMEOUT_VALUE)
 800142e:	f7ff fa63 	bl	80008f8 <HAL_GetTick>
 8001432:	0002      	movs	r2, r0
 8001434:	697b      	ldr	r3, [r7, #20]
 8001436:	1ad3      	subs	r3, r2, r3
 8001438:	2b02      	cmp	r3, #2
 800143a:	d901      	bls.n	8001440 <HAL_RCC_OscConfig+0x5e0>
          {
            return HAL_TIMEOUT;
 800143c:	2303      	movs	r3, #3
 800143e:	e083      	b.n	8001548 <HAL_RCC_OscConfig+0x6e8>
        while(__HAL_RCC_GET_FLAG(RCC_FLAG_PLLRDY)  != 0U)
 8001440:	4b26      	ldr	r3, [pc, #152]	; (80014dc <HAL_RCC_OscConfig+0x67c>)
 8001442:	681a      	ldr	r2, [r3, #0]
 8001444:	2380      	movs	r3, #128	; 0x80
 8001446:	049b      	lsls	r3, r3, #18
 8001448:	4013      	ands	r3, r2
 800144a:	d1f0      	bne.n	800142e <HAL_RCC_OscConfig+0x5ce>
          }
        }

        /* Configure the main PLL clock source, multiplication and division factors. */
        __HAL_RCC_PLL_CONFIG(RCC_OscInitStruct->PLL.PLLSource,
 800144c:	4b23      	ldr	r3, [pc, #140]	; (80014dc <HAL_RCC_OscConfig+0x67c>)
 800144e:	68db      	ldr	r3, [r3, #12]
 8001450:	4a2a      	ldr	r2, [pc, #168]	; (80014fc <HAL_RCC_OscConfig+0x69c>)
 8001452:	4013      	ands	r3, r2
 8001454:	0019      	movs	r1, r3
 8001456:	687b      	ldr	r3, [r7, #4]
 8001458:	6a9a      	ldr	r2, [r3, #40]	; 0x28
 800145a:	687b      	ldr	r3, [r7, #4]
 800145c:	6adb      	ldr	r3, [r3, #44]	; 0x2c
 800145e:	431a      	orrs	r2, r3
 8001460:	687b      	ldr	r3, [r7, #4]
 8001462:	6b1b      	ldr	r3, [r3, #48]	; 0x30
 8001464:	431a      	orrs	r2, r3
 8001466:	4b1d      	ldr	r3, [pc, #116]	; (80014dc <HAL_RCC_OscConfig+0x67c>)
 8001468:	430a      	orrs	r2, r1
 800146a:	60da      	str	r2, [r3, #12]
                             RCC_OscInitStruct->PLL.PLLMUL,
                             RCC_OscInitStruct->PLL.PLLDIV);
        /* Enable the main PLL. */
        __HAL_RCC_PLL_ENABLE();
 800146c:	4b1b      	ldr	r3, [pc, #108]	; (80014dc <HAL_RCC_OscConfig+0x67c>)
 800146e:	681a      	ldr	r2, [r3, #0]
 8001470:	4b1a      	ldr	r3, [pc, #104]	; (80014dc <HAL_RCC_OscConfig+0x67c>)
 8001472:	2180      	movs	r1, #128	; 0x80
 8001474:	0449      	lsls	r1, r1, #17
 8001476:	430a      	orrs	r2, r1
 8001478:	601a      	str	r2, [r3, #0]

        /* Get Start Tick */
        tickstart = HAL_GetTick();
 800147a:	f7ff fa3d 	bl	80008f8 <HAL_GetTick>
 800147e:	0003      	movs	r3, r0
 8001480:	617b      	str	r3, [r7, #20]

        /* Wait till PLL is ready */
        while(__HAL_RCC_GET_FLAG(RCC_FLAG_PLLRDY)  == 0U)
 8001482:	e008      	b.n	8001496 <HAL_RCC_OscConfig+0x636>
        {
          if((HAL_GetTick() - tickstart ) > PLL_TIMEOUT_VALUE)
 8001484:	f7ff fa38 	bl	80008f8 <HAL_GetTick>
 8001488:	0002      	movs	r2, r0
 800148a:	697b      	ldr	r3, [r7, #20]
 800148c:	1ad3      	subs	r3, r2, r3
 800148e:	2b02      	cmp	r3, #2
 8001490:	d901      	bls.n	8001496 <HAL_RCC_OscConfig+0x636>
          {
            return HAL_TIMEOUT;
 8001492:	2303      	movs	r3, #3
 8001494:	e058      	b.n	8001548 <HAL_RCC_OscConfig+0x6e8>
        while(__HAL_RCC_GET_FLAG(RCC_FLAG_PLLRDY)  == 0U)
 8001496:	4b11      	ldr	r3, [pc, #68]	; (80014dc <HAL_RCC_OscConfig+0x67c>)
 8001498:	681a      	ldr	r2, [r3, #0]
 800149a:	2380      	movs	r3, #128	; 0x80
 800149c:	049b      	lsls	r3, r3, #18
 800149e:	4013      	ands	r3, r2
 80014a0:	d0f0      	beq.n	8001484 <HAL_RCC_OscConfig+0x624>
 80014a2:	e050      	b.n	8001546 <HAL_RCC_OscConfig+0x6e6>
        }
      }
      else
      {
        /* Disable the main PLL. */
        __HAL_RCC_PLL_DISABLE();
 80014a4:	4b0d      	ldr	r3, [pc, #52]	; (80014dc <HAL_RCC_OscConfig+0x67c>)
 80014a6:	681a      	ldr	r2, [r3, #0]
 80014a8:	4b0c      	ldr	r3, [pc, #48]	; (80014dc <HAL_RCC_OscConfig+0x67c>)
 80014aa:	4913      	ldr	r1, [pc, #76]	; (80014f8 <HAL_RCC_OscConfig+0x698>)
 80014ac:	400a      	ands	r2, r1
 80014ae:	601a      	str	r2, [r3, #0]

        /* Get Start Tick */
        tickstart = HAL_GetTick();
 80014b0:	f7ff fa22 	bl	80008f8 <HAL_GetTick>
 80014b4:	0003      	movs	r3, r0
 80014b6:	617b      	str	r3, [r7, #20]

        /* Wait till PLL is disabled */
        while(__HAL_RCC_GET_FLAG(RCC_FLAG_PLLRDY)  != 0U)
 80014b8:	e008      	b.n	80014cc <HAL_RCC_OscConfig+0x66c>
        {
          if((HAL_GetTick() - tickstart ) > PLL_TIMEOUT_VALUE)
 80014ba:	f7ff fa1d 	bl	80008f8 <HAL_GetTick>
 80014be:	0002      	movs	r2, r0
 80014c0:	697b      	ldr	r3, [r7, #20]
 80014c2:	1ad3      	subs	r3, r2, r3
 80014c4:	2b02      	cmp	r3, #2
 80014c6:	d901      	bls.n	80014cc <HAL_RCC_OscConfig+0x66c>
          {
            return HAL_TIMEOUT;
 80014c8:	2303      	movs	r3, #3
 80014ca:	e03d      	b.n	8001548 <HAL_RCC_OscConfig+0x6e8>
        while(__HAL_RCC_GET_FLAG(RCC_FLAG_PLLRDY)  != 0U)
 80014cc:	4b03      	ldr	r3, [pc, #12]	; (80014dc <HAL_RCC_OscConfig+0x67c>)
 80014ce:	681a      	ldr	r2, [r3, #0]
 80014d0:	2380      	movs	r3, #128	; 0x80
 80014d2:	049b      	lsls	r3, r3, #18
 80014d4:	4013      	ands	r3, r2
 80014d6:	d1f0      	bne.n	80014ba <HAL_RCC_OscConfig+0x65a>
 80014d8:	e035      	b.n	8001546 <HAL_RCC_OscConfig+0x6e6>
 80014da:	46c0      	nop			; (mov r8, r8)
 80014dc:	40021000 	.word	0x40021000
 80014e0:	ffff1fff 	.word	0xffff1fff
 80014e4:	fffffeff 	.word	0xfffffeff
 80014e8:	40007000 	.word	0x40007000
 80014ec:	fffffbff 	.word	0xfffffbff
 80014f0:	00001388 	.word	0x00001388
 80014f4:	efffffff 	.word	0xefffffff
 80014f8:	feffffff 	.word	0xfeffffff
 80014fc:	ff02ffff 	.word	0xff02ffff
      }
    }
    else
    {
      /* Check if there is a request to disable the PLL used as System clock source */
      if((RCC_OscInitStruct->PLL.PLLState) == RCC_PLL_OFF)
 8001500:	687b      	ldr	r3, [r7, #4]
 8001502:	6a5b      	ldr	r3, [r3, #36]	; 0x24
 8001504:	2b01      	cmp	r3, #1
 8001506:	d101      	bne.n	800150c <HAL_RCC_OscConfig+0x6ac>
      {
        return HAL_ERROR;
 8001508:	2301      	movs	r3, #1
 800150a:	e01d      	b.n	8001548 <HAL_RCC_OscConfig+0x6e8>
      }
      else
      {
        /* Do not return HAL_ERROR if request repeats the current configuration */
        pll_config = RCC->CFGR;
 800150c:	4b10      	ldr	r3, [pc, #64]	; (8001550 <HAL_RCC_OscConfig+0x6f0>)
 800150e:	68db      	ldr	r3, [r3, #12]
 8001510:	61bb      	str	r3, [r7, #24]
        if((READ_BIT(pll_config, RCC_CFGR_PLLSRC) != RCC_OscInitStruct->PLL.PLLSource) ||
 8001512:	69ba      	ldr	r2, [r7, #24]
 8001514:	2380      	movs	r3, #128	; 0x80
 8001516:	025b      	lsls	r3, r3, #9
 8001518:	401a      	ands	r2, r3
 800151a:	687b      	ldr	r3, [r7, #4]
 800151c:	6a9b      	ldr	r3, [r3, #40]	; 0x28
 800151e:	429a      	cmp	r2, r3
 8001520:	d10f      	bne.n	8001542 <HAL_RCC_OscConfig+0x6e2>
           (READ_BIT(pll_config, RCC_CFGR_PLLMUL) != RCC_OscInitStruct->PLL.PLLMUL) ||
 8001522:	69ba      	ldr	r2, [r7, #24]
 8001524:	23f0      	movs	r3, #240	; 0xf0
 8001526:	039b      	lsls	r3, r3, #14
 8001528:	401a      	ands	r2, r3
 800152a:	687b      	ldr	r3, [r7, #4]
 800152c:	6adb      	ldr	r3, [r3, #44]	; 0x2c
        if((READ_BIT(pll_config, RCC_CFGR_PLLSRC) != RCC_OscInitStruct->PLL.PLLSource) ||
 800152e:	429a      	cmp	r2, r3
 8001530:	d107      	bne.n	8001542 <HAL_RCC_OscConfig+0x6e2>
           (READ_BIT(pll_config, RCC_CFGR_PLLDIV) != RCC_OscInitStruct->PLL.PLLDIV))
 8001532:	69ba      	ldr	r2, [r7, #24]
 8001534:	23c0      	movs	r3, #192	; 0xc0
 8001536:	041b      	lsls	r3, r3, #16
 8001538:	401a      	ands	r2, r3
 800153a:	687b      	ldr	r3, [r7, #4]
 800153c:	6b1b      	ldr	r3, [r3, #48]	; 0x30
           (READ_BIT(pll_config, RCC_CFGR_PLLMUL) != RCC_OscInitStruct->PLL.PLLMUL) ||
 800153e:	429a      	cmp	r2, r3
 8001540:	d001      	beq.n	8001546 <HAL_RCC_OscConfig+0x6e6>
        {
          return HAL_ERROR;
 8001542:	2301      	movs	r3, #1
 8001544:	e000      	b.n	8001548 <HAL_RCC_OscConfig+0x6e8>
        }
      }
    }
  }

  return HAL_OK;
 8001546:	2300      	movs	r3, #0
}
 8001548:	0018      	movs	r0, r3
 800154a:	46bd      	mov	sp, r7
 800154c:	b00a      	add	sp, #40	; 0x28
 800154e:	bdb0      	pop	{r4, r5, r7, pc}
 8001550:	40021000 	.word	0x40021000

08001554 <HAL_RCC_ClockConfig>:
  *         HPRE[3:0] bits to ensure that HCLK not exceed the maximum allowed frequency
  *         (for more details refer to section above "Initialization/de-initialization functions")
  * @retval HAL status
  */
HAL_StatusTypeDef HAL_RCC_ClockConfig(RCC_ClkInitTypeDef  *RCC_ClkInitStruct, uint32_t FLatency)
{
 8001554:	b5b0      	push	{r4, r5, r7, lr}
 8001556:	b084      	sub	sp, #16
 8001558:	af00      	add	r7, sp, #0
 800155a:	6078      	str	r0, [r7, #4]
 800155c:	6039      	str	r1, [r7, #0]
  uint32_t tickstart;
  HAL_StatusTypeDef status;

  /* Check the parameters */
  if(RCC_ClkInitStruct == NULL)
 800155e:	687b      	ldr	r3, [r7, #4]
 8001560:	2b00      	cmp	r3, #0
 8001562:	d101      	bne.n	8001568 <HAL_RCC_ClockConfig+0x14>
  {
    return HAL_ERROR;
 8001564:	2301      	movs	r3, #1
 8001566:	e10d      	b.n	8001784 <HAL_RCC_ClockConfig+0x230>
  /* To correctly read data from FLASH memory, the number of wait states (LATENCY)
  must be correctly programmed according to the frequency of the CPU clock
  (HCLK) and the supply voltage of the device. */

  /* Increasing the number of wait states because of higher CPU frequency */
  if(FLatency > __HAL_FLASH_GET_LATENCY())
 8001568:	4b88      	ldr	r3, [pc, #544]	; (800178c <HAL_RCC_ClockConfig+0x238>)
 800156a:	681b      	ldr	r3, [r3, #0]
 800156c:	2201      	movs	r2, #1
 800156e:	4013      	ands	r3, r2
 8001570:	683a      	ldr	r2, [r7, #0]
 8001572:	429a      	cmp	r2, r3
 8001574:	d911      	bls.n	800159a <HAL_RCC_ClockConfig+0x46>
  {
    /* Program the new number of wait states to the LATENCY bits in the FLASH_ACR register */
    __HAL_FLASH_SET_LATENCY(FLatency);
 8001576:	4b85      	ldr	r3, [pc, #532]	; (800178c <HAL_RCC_ClockConfig+0x238>)
 8001578:	681b      	ldr	r3, [r3, #0]
 800157a:	2201      	movs	r2, #1
 800157c:	4393      	bics	r3, r2
 800157e:	0019      	movs	r1, r3
 8001580:	4b82      	ldr	r3, [pc, #520]	; (800178c <HAL_RCC_ClockConfig+0x238>)
 8001582:	683a      	ldr	r2, [r7, #0]
 8001584:	430a      	orrs	r2, r1
 8001586:	601a      	str	r2, [r3, #0]

    /* Check that the new number of wait states is taken into account to access the Flash
    memory by reading the FLASH_ACR register */
    if(__HAL_FLASH_GET_LATENCY() != FLatency)
 8001588:	4b80      	ldr	r3, [pc, #512]	; (800178c <HAL_RCC_ClockConfig+0x238>)
 800158a:	681b      	ldr	r3, [r3, #0]
 800158c:	2201      	movs	r2, #1
 800158e:	4013      	ands	r3, r2
 8001590:	683a      	ldr	r2, [r7, #0]
 8001592:	429a      	cmp	r2, r3
 8001594:	d001      	beq.n	800159a <HAL_RCC_ClockConfig+0x46>
    {
      return HAL_ERROR;
 8001596:	2301      	movs	r3, #1
 8001598:	e0f4      	b.n	8001784 <HAL_RCC_ClockConfig+0x230>
    }
  }

  /*-------------------------- HCLK Configuration --------------------------*/
  if(((RCC_ClkInitStruct->ClockType) & RCC_CLOCKTYPE_HCLK) == RCC_CLOCKTYPE_HCLK)
 800159a:	687b      	ldr	r3, [r7, #4]
 800159c:	681b      	ldr	r3, [r3, #0]
 800159e:	2202      	movs	r2, #2
 80015a0:	4013      	ands	r3, r2
 80015a2:	d009      	beq.n	80015b8 <HAL_RCC_ClockConfig+0x64>
  {
    assert_param(IS_RCC_HCLK(RCC_ClkInitStruct->AHBCLKDivider));
    MODIFY_REG(RCC->CFGR, RCC_CFGR_HPRE, RCC_ClkInitStruct->AHBCLKDivider);
 80015a4:	4b7a      	ldr	r3, [pc, #488]	; (8001790 <HAL_RCC_ClockConfig+0x23c>)
 80015a6:	68db      	ldr	r3, [r3, #12]
 80015a8:	22f0      	movs	r2, #240	; 0xf0
 80015aa:	4393      	bics	r3, r2
 80015ac:	0019      	movs	r1, r3
 80015ae:	687b      	ldr	r3, [r7, #4]
 80015b0:	689a      	ldr	r2, [r3, #8]
 80015b2:	4b77      	ldr	r3, [pc, #476]	; (8001790 <HAL_RCC_ClockConfig+0x23c>)
 80015b4:	430a      	orrs	r2, r1
 80015b6:	60da      	str	r2, [r3, #12]
  }

  /*------------------------- SYSCLK Configuration ---------------------------*/
  if(((RCC_ClkInitStruct->ClockType) & RCC_CLOCKTYPE_SYSCLK) == RCC_CLOCKTYPE_SYSCLK)
 80015b8:	687b      	ldr	r3, [r7, #4]
 80015ba:	681b      	ldr	r3, [r3, #0]
 80015bc:	2201      	movs	r2, #1
 80015be:	4013      	ands	r3, r2
 80015c0:	d100      	bne.n	80015c4 <HAL_RCC_ClockConfig+0x70>
 80015c2:	e089      	b.n	80016d8 <HAL_RCC_ClockConfig+0x184>
  {
    assert_param(IS_RCC_SYSCLKSOURCE(RCC_ClkInitStruct->SYSCLKSource));

    /* HSE is selected as System Clock Source */
    if(RCC_ClkInitStruct->SYSCLKSource == RCC_SYSCLKSOURCE_HSE)
 80015c4:	687b      	ldr	r3, [r7, #4]
 80015c6:	685b      	ldr	r3, [r3, #4]
 80015c8:	2b02      	cmp	r3, #2
 80015ca:	d107      	bne.n	80015dc <HAL_RCC_ClockConfig+0x88>
    {
      /* Check the HSE ready flag */
      if(__HAL_RCC_GET_FLAG(RCC_FLAG_HSERDY) == 0U)
 80015cc:	4b70      	ldr	r3, [pc, #448]	; (8001790 <HAL_RCC_ClockConfig+0x23c>)
 80015ce:	681a      	ldr	r2, [r3, #0]
 80015d0:	2380      	movs	r3, #128	; 0x80
 80015d2:	029b      	lsls	r3, r3, #10
 80015d4:	4013      	ands	r3, r2
 80015d6:	d120      	bne.n	800161a <HAL_RCC_ClockConfig+0xc6>
      {
        return HAL_ERROR;
 80015d8:	2301      	movs	r3, #1
 80015da:	e0d3      	b.n	8001784 <HAL_RCC_ClockConfig+0x230>
      }
    }
    /* PLL is selected as System Clock Source */
    else if(RCC_ClkInitStruct->SYSCLKSource == RCC_SYSCLKSOURCE_PLLCLK)
 80015dc:	687b      	ldr	r3, [r7, #4]
 80015de:	685b      	ldr	r3, [r3, #4]
 80015e0:	2b03      	cmp	r3, #3
 80015e2:	d107      	bne.n	80015f4 <HAL_RCC_ClockConfig+0xa0>
    {
      /* Check the PLL ready flag */
      if(__HAL_RCC_GET_FLAG(RCC_FLAG_PLLRDY) == 0U)
 80015e4:	4b6a      	ldr	r3, [pc, #424]	; (8001790 <HAL_RCC_ClockConfig+0x23c>)
 80015e6:	681a      	ldr	r2, [r3, #0]
 80015e8:	2380      	movs	r3, #128	; 0x80
 80015ea:	049b      	lsls	r3, r3, #18
 80015ec:	4013      	ands	r3, r2
 80015ee:	d114      	bne.n	800161a <HAL_RCC_ClockConfig+0xc6>
      {
        return HAL_ERROR;
 80015f0:	2301      	movs	r3, #1
 80015f2:	e0c7      	b.n	8001784 <HAL_RCC_ClockConfig+0x230>
      }
    }
    /* HSI is selected as System Clock Source */
    else if(RCC_ClkInitStruct->SYSCLKSource == RCC_SYSCLKSOURCE_HSI)
 80015f4:	687b      	ldr	r3, [r7, #4]
 80015f6:	685b      	ldr	r3, [r3, #4]
 80015f8:	2b01      	cmp	r3, #1
 80015fa:	d106      	bne.n	800160a <HAL_RCC_ClockConfig+0xb6>
    {
      /* Check the HSI ready flag */
      if(__HAL_RCC_GET_FLAG(RCC_FLAG_HSIRDY) == 0U)
 80015fc:	4b64      	ldr	r3, [pc, #400]	; (8001790 <HAL_RCC_ClockConfig+0x23c>)
 80015fe:	681b      	ldr	r3, [r3, #0]
 8001600:	2204      	movs	r2, #4
 8001602:	4013      	ands	r3, r2
 8001604:	d109      	bne.n	800161a <HAL_RCC_ClockConfig+0xc6>
      {
        return HAL_ERROR;
 8001606:	2301      	movs	r3, #1
 8001608:	e0bc      	b.n	8001784 <HAL_RCC_ClockConfig+0x230>
    }
    /* MSI is selected as System Clock Source */
    else
    {
      /* Check the MSI ready flag */
      if(__HAL_RCC_GET_FLAG(RCC_FLAG_MSIRDY) == 0U)
 800160a:	4b61      	ldr	r3, [pc, #388]	; (8001790 <HAL_RCC_ClockConfig+0x23c>)
 800160c:	681a      	ldr	r2, [r3, #0]
 800160e:	2380      	movs	r3, #128	; 0x80
 8001610:	009b      	lsls	r3, r3, #2
 8001612:	4013      	ands	r3, r2
 8001614:	d101      	bne.n	800161a <HAL_RCC_ClockConfig+0xc6>
      {
        return HAL_ERROR;
 8001616:	2301      	movs	r3, #1
 8001618:	e0b4      	b.n	8001784 <HAL_RCC_ClockConfig+0x230>
      }
    }
    __HAL_RCC_SYSCLK_CONFIG(RCC_ClkInitStruct->SYSCLKSource);
 800161a:	4b5d      	ldr	r3, [pc, #372]	; (8001790 <HAL_RCC_ClockConfig+0x23c>)
 800161c:	68db      	ldr	r3, [r3, #12]
 800161e:	2203      	movs	r2, #3
 8001620:	4393      	bics	r3, r2
 8001622:	0019      	movs	r1, r3
 8001624:	687b      	ldr	r3, [r7, #4]
 8001626:	685a      	ldr	r2, [r3, #4]
 8001628:	4b59      	ldr	r3, [pc, #356]	; (8001790 <HAL_RCC_ClockConfig+0x23c>)
 800162a:	430a      	orrs	r2, r1
 800162c:	60da      	str	r2, [r3, #12]

    /* Get Start Tick */
    tickstart = HAL_GetTick();
 800162e:	f7ff f963 	bl	80008f8 <HAL_GetTick>
 8001632:	0003      	movs	r3, r0
 8001634:	60fb      	str	r3, [r7, #12]

    if(RCC_ClkInitStruct->SYSCLKSource == RCC_SYSCLKSOURCE_HSE)
 8001636:	687b      	ldr	r3, [r7, #4]
 8001638:	685b      	ldr	r3, [r3, #4]
 800163a:	2b02      	cmp	r3, #2
 800163c:	d111      	bne.n	8001662 <HAL_RCC_ClockConfig+0x10e>
    {
      while (__HAL_RCC_GET_SYSCLK_SOURCE() != RCC_SYSCLKSOURCE_STATUS_HSE)
 800163e:	e009      	b.n	8001654 <HAL_RCC_ClockConfig+0x100>
      {
        if((HAL_GetTick() - tickstart ) > CLOCKSWITCH_TIMEOUT_VALUE)
 8001640:	f7ff f95a 	bl	80008f8 <HAL_GetTick>
 8001644:	0002      	movs	r2, r0
 8001646:	68fb      	ldr	r3, [r7, #12]
 8001648:	1ad3      	subs	r3, r2, r3
 800164a:	4a52      	ldr	r2, [pc, #328]	; (8001794 <HAL_RCC_ClockConfig+0x240>)
 800164c:	4293      	cmp	r3, r2
 800164e:	d901      	bls.n	8001654 <HAL_RCC_ClockConfig+0x100>
        {
          return HAL_TIMEOUT;
 8001650:	2303      	movs	r3, #3
 8001652:	e097      	b.n	8001784 <HAL_RCC_ClockConfig+0x230>
      while (__HAL_RCC_GET_SYSCLK_SOURCE() != RCC_SYSCLKSOURCE_STATUS_HSE)
 8001654:	4b4e      	ldr	r3, [pc, #312]	; (8001790 <HAL_RCC_ClockConfig+0x23c>)
 8001656:	68db      	ldr	r3, [r3, #12]
 8001658:	220c      	movs	r2, #12
 800165a:	4013      	ands	r3, r2
 800165c:	2b08      	cmp	r3, #8
 800165e:	d1ef      	bne.n	8001640 <HAL_RCC_ClockConfig+0xec>
 8001660:	e03a      	b.n	80016d8 <HAL_RCC_ClockConfig+0x184>
        }
      }
    }
    else if(RCC_ClkInitStruct->SYSCLKSource == RCC_SYSCLKSOURCE_PLLCLK)
 8001662:	687b      	ldr	r3, [r7, #4]
 8001664:	685b      	ldr	r3, [r3, #4]
 8001666:	2b03      	cmp	r3, #3
 8001668:	d111      	bne.n	800168e <HAL_RCC_ClockConfig+0x13a>
    {
      while (__HAL_RCC_GET_SYSCLK_SOURCE() != RCC_SYSCLKSOURCE_STATUS_PLLCLK)
 800166a:	e009      	b.n	8001680 <HAL_RCC_ClockConfig+0x12c>
      {
        if((HAL_GetTick() - tickstart ) > CLOCKSWITCH_TIMEOUT_VALUE)
 800166c:	f7ff f944 	bl	80008f8 <HAL_GetTick>
 8001670:	0002      	movs	r2, r0
 8001672:	68fb      	ldr	r3, [r7, #12]
 8001674:	1ad3      	subs	r3, r2, r3
 8001676:	4a47      	ldr	r2, [pc, #284]	; (8001794 <HAL_RCC_ClockConfig+0x240>)
 8001678:	4293      	cmp	r3, r2
 800167a:	d901      	bls.n	8001680 <HAL_RCC_ClockConfig+0x12c>
        {
          return HAL_TIMEOUT;
 800167c:	2303      	movs	r3, #3
 800167e:	e081      	b.n	8001784 <HAL_RCC_ClockConfig+0x230>
      while (__HAL_RCC_GET_SYSCLK_SOURCE() != RCC_SYSCLKSOURCE_STATUS_PLLCLK)
 8001680:	4b43      	ldr	r3, [pc, #268]	; (8001790 <HAL_RCC_ClockConfig+0x23c>)
 8001682:	68db      	ldr	r3, [r3, #12]
 8001684:	220c      	movs	r2, #12
 8001686:	4013      	ands	r3, r2
 8001688:	2b0c      	cmp	r3, #12
 800168a:	d1ef      	bne.n	800166c <HAL_RCC_ClockConfig+0x118>
 800168c:	e024      	b.n	80016d8 <HAL_RCC_ClockConfig+0x184>
        }
      }
    }
    else if(RCC_ClkInitStruct->SYSCLKSource == RCC_SYSCLKSOURCE_HSI)
 800168e:	687b      	ldr	r3, [r7, #4]
 8001690:	685b      	ldr	r3, [r3, #4]
 8001692:	2b01      	cmp	r3, #1
 8001694:	d11b      	bne.n	80016ce <HAL_RCC_ClockConfig+0x17a>
    {
      while (__HAL_RCC_GET_SYSCLK_SOURCE() != RCC_SYSCLKSOURCE_STATUS_HSI)
 8001696:	e009      	b.n	80016ac <HAL_RCC_ClockConfig+0x158>
      {
        if((HAL_GetTick() - tickstart ) > CLOCKSWITCH_TIMEOUT_VALUE)
 8001698:	f7ff f92e 	bl	80008f8 <HAL_GetTick>
 800169c:	0002      	movs	r2, r0
 800169e:	68fb      	ldr	r3, [r7, #12]
 80016a0:	1ad3      	subs	r3, r2, r3
 80016a2:	4a3c      	ldr	r2, [pc, #240]	; (8001794 <HAL_RCC_ClockConfig+0x240>)
 80016a4:	4293      	cmp	r3, r2
 80016a6:	d901      	bls.n	80016ac <HAL_RCC_ClockConfig+0x158>
        {
          return HAL_TIMEOUT;
 80016a8:	2303      	movs	r3, #3
 80016aa:	e06b      	b.n	8001784 <HAL_RCC_ClockConfig+0x230>
      while (__HAL_RCC_GET_SYSCLK_SOURCE() != RCC_SYSCLKSOURCE_STATUS_HSI)
 80016ac:	4b38      	ldr	r3, [pc, #224]	; (8001790 <HAL_RCC_ClockConfig+0x23c>)
 80016ae:	68db      	ldr	r3, [r3, #12]
 80016b0:	220c      	movs	r2, #12
 80016b2:	4013      	ands	r3, r2
 80016b4:	2b04      	cmp	r3, #4
 80016b6:	d1ef      	bne.n	8001698 <HAL_RCC_ClockConfig+0x144>
 80016b8:	e00e      	b.n	80016d8 <HAL_RCC_ClockConfig+0x184>
    }
    else
    {
      while(__HAL_RCC_GET_SYSCLK_SOURCE() != RCC_SYSCLKSOURCE_STATUS_MSI)
      {
        if((HAL_GetTick() - tickstart ) > CLOCKSWITCH_TIMEOUT_VALUE)
 80016ba:	f7ff f91d 	bl	80008f8 <HAL_GetTick>
 80016be:	0002      	movs	r2, r0
 80016c0:	68fb      	ldr	r3, [r7, #12]
 80016c2:	1ad3      	subs	r3, r2, r3
 80016c4:	4a33      	ldr	r2, [pc, #204]	; (8001794 <HAL_RCC_ClockConfig+0x240>)
 80016c6:	4293      	cmp	r3, r2
 80016c8:	d901      	bls.n	80016ce <HAL_RCC_ClockConfig+0x17a>
        {
          return HAL_TIMEOUT;
 80016ca:	2303      	movs	r3, #3
 80016cc:	e05a      	b.n	8001784 <HAL_RCC_ClockConfig+0x230>
      while(__HAL_RCC_GET_SYSCLK_SOURCE() != RCC_SYSCLKSOURCE_STATUS_MSI)
 80016ce:	4b30      	ldr	r3, [pc, #192]	; (8001790 <HAL_RCC_ClockConfig+0x23c>)
 80016d0:	68db      	ldr	r3, [r3, #12]
 80016d2:	220c      	movs	r2, #12
 80016d4:	4013      	ands	r3, r2
 80016d6:	d1f0      	bne.n	80016ba <HAL_RCC_ClockConfig+0x166>
        }
      }
    }
  }
  /* Decreasing the number of wait states because of lower CPU frequency */
  if(FLatency < __HAL_FLASH_GET_LATENCY())
 80016d8:	4b2c      	ldr	r3, [pc, #176]	; (800178c <HAL_RCC_ClockConfig+0x238>)
 80016da:	681b      	ldr	r3, [r3, #0]
 80016dc:	2201      	movs	r2, #1
 80016de:	4013      	ands	r3, r2
 80016e0:	683a      	ldr	r2, [r7, #0]
 80016e2:	429a      	cmp	r2, r3
 80016e4:	d211      	bcs.n	800170a <HAL_RCC_ClockConfig+0x1b6>
  {
    /* Program the new number of wait states to the LATENCY bits in the FLASH_ACR register */
    __HAL_FLASH_SET_LATENCY(FLatency);
 80016e6:	4b29      	ldr	r3, [pc, #164]	; (800178c <HAL_RCC_ClockConfig+0x238>)
 80016e8:	681b      	ldr	r3, [r3, #0]
 80016ea:	2201      	movs	r2, #1
 80016ec:	4393      	bics	r3, r2
 80016ee:	0019      	movs	r1, r3
 80016f0:	4b26      	ldr	r3, [pc, #152]	; (800178c <HAL_RCC_ClockConfig+0x238>)
 80016f2:	683a      	ldr	r2, [r7, #0]
 80016f4:	430a      	orrs	r2, r1
 80016f6:	601a      	str	r2, [r3, #0]

    /* Check that the new number of wait states is taken into account to access the Flash
    memory by reading the FLASH_ACR register */
    if(__HAL_FLASH_GET_LATENCY() != FLatency)
 80016f8:	4b24      	ldr	r3, [pc, #144]	; (800178c <HAL_RCC_ClockConfig+0x238>)
 80016fa:	681b      	ldr	r3, [r3, #0]
 80016fc:	2201      	movs	r2, #1
 80016fe:	4013      	ands	r3, r2
 8001700:	683a      	ldr	r2, [r7, #0]
 8001702:	429a      	cmp	r2, r3
 8001704:	d001      	beq.n	800170a <HAL_RCC_ClockConfig+0x1b6>
    {
      return HAL_ERROR;
 8001706:	2301      	movs	r3, #1
 8001708:	e03c      	b.n	8001784 <HAL_RCC_ClockConfig+0x230>
    }
  }

  /*-------------------------- PCLK1 Configuration ---------------------------*/
  if(((RCC_ClkInitStruct->ClockType) & RCC_CLOCKTYPE_PCLK1) == RCC_CLOCKTYPE_PCLK1)
 800170a:	687b      	ldr	r3, [r7, #4]
 800170c:	681b      	ldr	r3, [r3, #0]
 800170e:	2204      	movs	r2, #4
 8001710:	4013      	ands	r3, r2
 8001712:	d009      	beq.n	8001728 <HAL_RCC_ClockConfig+0x1d4>
  {
    assert_param(IS_RCC_PCLK(RCC_ClkInitStruct->APB1CLKDivider));
    MODIFY_REG(RCC->CFGR, RCC_CFGR_PPRE1, RCC_ClkInitStruct->APB1CLKDivider);
 8001714:	4b1e      	ldr	r3, [pc, #120]	; (8001790 <HAL_RCC_ClockConfig+0x23c>)
 8001716:	68db      	ldr	r3, [r3, #12]
 8001718:	4a1f      	ldr	r2, [pc, #124]	; (8001798 <HAL_RCC_ClockConfig+0x244>)
 800171a:	4013      	ands	r3, r2
 800171c:	0019      	movs	r1, r3
 800171e:	687b      	ldr	r3, [r7, #4]
 8001720:	68da      	ldr	r2, [r3, #12]
 8001722:	4b1b      	ldr	r3, [pc, #108]	; (8001790 <HAL_RCC_ClockConfig+0x23c>)
 8001724:	430a      	orrs	r2, r1
 8001726:	60da      	str	r2, [r3, #12]
  }

  /*-------------------------- PCLK2 Configuration ---------------------------*/
  if(((RCC_ClkInitStruct->ClockType) & RCC_CLOCKTYPE_PCLK2) == RCC_CLOCKTYPE_PCLK2)
 8001728:	687b      	ldr	r3, [r7, #4]
 800172a:	681b      	ldr	r3, [r3, #0]
 800172c:	2208      	movs	r2, #8
 800172e:	4013      	ands	r3, r2
 8001730:	d00a      	beq.n	8001748 <HAL_RCC_ClockConfig+0x1f4>
  {
    assert_param(IS_RCC_PCLK(RCC_ClkInitStruct->APB2CLKDivider));
    MODIFY_REG(RCC->CFGR, RCC_CFGR_PPRE2, ((RCC_ClkInitStruct->APB2CLKDivider) << 3));
 8001732:	4b17      	ldr	r3, [pc, #92]	; (8001790 <HAL_RCC_ClockConfig+0x23c>)
 8001734:	68db      	ldr	r3, [r3, #12]
 8001736:	4a19      	ldr	r2, [pc, #100]	; (800179c <HAL_RCC_ClockConfig+0x248>)
 8001738:	4013      	ands	r3, r2
 800173a:	0019      	movs	r1, r3
 800173c:	687b      	ldr	r3, [r7, #4]
 800173e:	691b      	ldr	r3, [r3, #16]
 8001740:	00da      	lsls	r2, r3, #3
 8001742:	4b13      	ldr	r3, [pc, #76]	; (8001790 <HAL_RCC_ClockConfig+0x23c>)
 8001744:	430a      	orrs	r2, r1
 8001746:	60da      	str	r2, [r3, #12]
  }

  /* Update the SystemCoreClock global variable */
  SystemCoreClock = HAL_RCC_GetSysClockFreq() >> AHBPrescTable[(RCC->CFGR & RCC_CFGR_HPRE)>> RCC_CFGR_HPRE_Pos];
 8001748:	f000 f82e 	bl	80017a8 <HAL_RCC_GetSysClockFreq>
 800174c:	0001      	movs	r1, r0
 800174e:	4b10      	ldr	r3, [pc, #64]	; (8001790 <HAL_RCC_ClockConfig+0x23c>)
 8001750:	68db      	ldr	r3, [r3, #12]
 8001752:	091b      	lsrs	r3, r3, #4
 8001754:	220f      	movs	r2, #15
 8001756:	4013      	ands	r3, r2
 8001758:	4a11      	ldr	r2, [pc, #68]	; (80017a0 <HAL_RCC_ClockConfig+0x24c>)
 800175a:	5cd3      	ldrb	r3, [r2, r3]
 800175c:	000a      	movs	r2, r1
 800175e:	40da      	lsrs	r2, r3
 8001760:	4b10      	ldr	r3, [pc, #64]	; (80017a4 <HAL_RCC_ClockConfig+0x250>)
 8001762:	601a      	str	r2, [r3, #0]

  /* Configure the source of time base considering new system clocks settings*/
  status = HAL_InitTick(TICK_INT_PRIORITY);
 8001764:	250b      	movs	r5, #11
 8001766:	197c      	adds	r4, r7, r5
 8001768:	2000      	movs	r0, #0
 800176a:	f7ff f88f 	bl	800088c <HAL_InitTick>
 800176e:	0003      	movs	r3, r0
 8001770:	7023      	strb	r3, [r4, #0]
  if(status != HAL_OK)
 8001772:	197b      	adds	r3, r7, r5
 8001774:	781b      	ldrb	r3, [r3, #0]
 8001776:	2b00      	cmp	r3, #0
 8001778:	d003      	beq.n	8001782 <HAL_RCC_ClockConfig+0x22e>
  {
    return status;
 800177a:	230b      	movs	r3, #11
 800177c:	18fb      	adds	r3, r7, r3
 800177e:	781b      	ldrb	r3, [r3, #0]
 8001780:	e000      	b.n	8001784 <HAL_RCC_ClockConfig+0x230>
  }

  return HAL_OK;
 8001782:	2300      	movs	r3, #0
}
 8001784:	0018      	movs	r0, r3
 8001786:	46bd      	mov	sp, r7
 8001788:	b004      	add	sp, #16
 800178a:	bdb0      	pop	{r4, r5, r7, pc}
 800178c:	40022000 	.word	0x40022000
 8001790:	40021000 	.word	0x40021000
 8001794:	00001388 	.word	0x00001388
 8001798:	fffff8ff 	.word	0xfffff8ff
 800179c:	ffffc7ff 	.word	0xffffc7ff
 80017a0:	08001920 	.word	0x08001920
 80017a4:	20000000 	.word	0x20000000

080017a8 <HAL_RCC_GetSysClockFreq>:
  *         right SYSCLK value. Otherwise, any configuration based on this function will be incorrect.
  *
  * @retval SYSCLK frequency
  */
uint32_t HAL_RCC_GetSysClockFreq(void)
{
 80017a8:	b580      	push	{r7, lr}
 80017aa:	b086      	sub	sp, #24
 80017ac:	af00      	add	r7, sp, #0
  uint32_t tmpreg, pllm, plld, pllvco, msiclkrange;    /* no init needed */
  uint32_t sysclockfreq;

  tmpreg = RCC->CFGR;
 80017ae:	4b3b      	ldr	r3, [pc, #236]	; (800189c <HAL_RCC_GetSysClockFreq+0xf4>)
 80017b0:	68db      	ldr	r3, [r3, #12]
 80017b2:	60fb      	str	r3, [r7, #12]

  /* Get SYSCLK source -------------------------------------------------------*/
  switch (tmpreg & RCC_CFGR_SWS)
 80017b4:	68fb      	ldr	r3, [r7, #12]
 80017b6:	220c      	movs	r2, #12
 80017b8:	4013      	ands	r3, r2
 80017ba:	2b08      	cmp	r3, #8
 80017bc:	d00e      	beq.n	80017dc <HAL_RCC_GetSysClockFreq+0x34>
 80017be:	2b0c      	cmp	r3, #12
 80017c0:	d00f      	beq.n	80017e2 <HAL_RCC_GetSysClockFreq+0x3a>
 80017c2:	2b04      	cmp	r3, #4
 80017c4:	d157      	bne.n	8001876 <HAL_RCC_GetSysClockFreq+0xce>
  {
    case RCC_SYSCLKSOURCE_STATUS_HSI:  /* HSI used as system clock source */
    {
      if ((RCC->CR & RCC_CR_HSIDIVF) != 0U)
 80017c6:	4b35      	ldr	r3, [pc, #212]	; (800189c <HAL_RCC_GetSysClockFreq+0xf4>)
 80017c8:	681b      	ldr	r3, [r3, #0]
 80017ca:	2210      	movs	r2, #16
 80017cc:	4013      	ands	r3, r2
 80017ce:	d002      	beq.n	80017d6 <HAL_RCC_GetSysClockFreq+0x2e>
      {
        sysclockfreq =  (HSI_VALUE >> 2);
 80017d0:	4b33      	ldr	r3, [pc, #204]	; (80018a0 <HAL_RCC_GetSysClockFreq+0xf8>)
 80017d2:	613b      	str	r3, [r7, #16]
      }
      else
      {
        sysclockfreq =  HSI_VALUE;
      }
      break;
 80017d4:	e05d      	b.n	8001892 <HAL_RCC_GetSysClockFreq+0xea>
        sysclockfreq =  HSI_VALUE;
 80017d6:	4b33      	ldr	r3, [pc, #204]	; (80018a4 <HAL_RCC_GetSysClockFreq+0xfc>)
 80017d8:	613b      	str	r3, [r7, #16]
      break;
 80017da:	e05a      	b.n	8001892 <HAL_RCC_GetSysClockFreq+0xea>
    }
    case RCC_SYSCLKSOURCE_STATUS_HSE:  /* HSE used as system clock */
    {
      sysclockfreq = HSE_VALUE;
 80017dc:	4b32      	ldr	r3, [pc, #200]	; (80018a8 <HAL_RCC_GetSysClockFreq+0x100>)
 80017de:	613b      	str	r3, [r7, #16]
      break;
 80017e0:	e057      	b.n	8001892 <HAL_RCC_GetSysClockFreq+0xea>
    }
    case RCC_SYSCLKSOURCE_STATUS_PLLCLK:  /* PLL used as system clock */
    {
      pllm = PLLMulTable[(uint32_t)(tmpreg & RCC_CFGR_PLLMUL) >> RCC_CFGR_PLLMUL_Pos];
 80017e2:	68fb      	ldr	r3, [r7, #12]
 80017e4:	0c9b      	lsrs	r3, r3, #18
 80017e6:	220f      	movs	r2, #15
 80017e8:	4013      	ands	r3, r2
 80017ea:	4a30      	ldr	r2, [pc, #192]	; (80018ac <HAL_RCC_GetSysClockFreq+0x104>)
 80017ec:	5cd3      	ldrb	r3, [r2, r3]
 80017ee:	60bb      	str	r3, [r7, #8]
      plld = ((uint32_t)(tmpreg & RCC_CFGR_PLLDIV) >> RCC_CFGR_PLLDIV_Pos) + 1U;
 80017f0:	68fb      	ldr	r3, [r7, #12]
 80017f2:	0d9b      	lsrs	r3, r3, #22
 80017f4:	2203      	movs	r2, #3
 80017f6:	4013      	ands	r3, r2
 80017f8:	3301      	adds	r3, #1
 80017fa:	607b      	str	r3, [r7, #4]
      if (__HAL_RCC_GET_PLL_OSCSOURCE() != RCC_PLLSOURCE_HSI)
 80017fc:	4b27      	ldr	r3, [pc, #156]	; (800189c <HAL_RCC_GetSysClockFreq+0xf4>)
 80017fe:	68da      	ldr	r2, [r3, #12]
 8001800:	2380      	movs	r3, #128	; 0x80
 8001802:	025b      	lsls	r3, r3, #9
 8001804:	4013      	ands	r3, r2
 8001806:	d00f      	beq.n	8001828 <HAL_RCC_GetSysClockFreq+0x80>
      {
        /* HSE used as PLL clock source */
        pllvco = (HSE_VALUE * pllm) / plld;
 8001808:	68b9      	ldr	r1, [r7, #8]
 800180a:	000a      	movs	r2, r1
 800180c:	0152      	lsls	r2, r2, #5
 800180e:	1a52      	subs	r2, r2, r1
 8001810:	0193      	lsls	r3, r2, #6
 8001812:	1a9b      	subs	r3, r3, r2
 8001814:	00db      	lsls	r3, r3, #3
 8001816:	185b      	adds	r3, r3, r1
 8001818:	025b      	lsls	r3, r3, #9
 800181a:	6879      	ldr	r1, [r7, #4]
 800181c:	0018      	movs	r0, r3
 800181e:	f7fe fc73 	bl	8000108 <__udivsi3>
 8001822:	0003      	movs	r3, r0
 8001824:	617b      	str	r3, [r7, #20]
 8001826:	e023      	b.n	8001870 <HAL_RCC_GetSysClockFreq+0xc8>
      }
      else
      {
        if ((RCC->CR & RCC_CR_HSIDIVF) != 0U)
 8001828:	4b1c      	ldr	r3, [pc, #112]	; (800189c <HAL_RCC_GetSysClockFreq+0xf4>)
 800182a:	681b      	ldr	r3, [r3, #0]
 800182c:	2210      	movs	r2, #16
 800182e:	4013      	ands	r3, r2
 8001830:	d00f      	beq.n	8001852 <HAL_RCC_GetSysClockFreq+0xaa>
        {
          pllvco = ((HSI_VALUE >> 2) * pllm) / plld;
 8001832:	68b9      	ldr	r1, [r7, #8]
 8001834:	000a      	movs	r2, r1
 8001836:	0152      	lsls	r2, r2, #5
 8001838:	1a52      	subs	r2, r2, r1
 800183a:	0193      	lsls	r3, r2, #6
 800183c:	1a9b      	subs	r3, r3, r2
 800183e:	00db      	lsls	r3, r3, #3
 8001840:	185b      	adds	r3, r3, r1
 8001842:	021b      	lsls	r3, r3, #8
 8001844:	6879      	ldr	r1, [r7, #4]
 8001846:	0018      	movs	r0, r3
 8001848:	f7fe fc5e 	bl	8000108 <__udivsi3>
 800184c:	0003      	movs	r3, r0
 800184e:	617b      	str	r3, [r7, #20]
 8001850:	e00e      	b.n	8001870 <HAL_RCC_GetSysClockFreq+0xc8>
        }
        else
        {
         pllvco = (HSI_VALUE * pllm) / plld;
 8001852:	68b9      	ldr	r1, [r7, #8]
 8001854:	000a      	movs	r2, r1
 8001856:	0152      	lsls	r2, r2, #5
 8001858:	1a52      	subs	r2, r2, r1
 800185a:	0193      	lsls	r3, r2, #6
 800185c:	1a9b      	subs	r3, r3, r2
 800185e:	00db      	lsls	r3, r3, #3
 8001860:	185b      	adds	r3, r3, r1
 8001862:	029b      	lsls	r3, r3, #10
 8001864:	6879      	ldr	r1, [r7, #4]
 8001866:	0018      	movs	r0, r3
 8001868:	f7fe fc4e 	bl	8000108 <__udivsi3>
 800186c:	0003      	movs	r3, r0
 800186e:	617b      	str	r3, [r7, #20]
        }
      }
      sysclockfreq = pllvco;
 8001870:	697b      	ldr	r3, [r7, #20]
 8001872:	613b      	str	r3, [r7, #16]
      break;
 8001874:	e00d      	b.n	8001892 <HAL_RCC_GetSysClockFreq+0xea>
    }
    case RCC_SYSCLKSOURCE_STATUS_MSI:  /* MSI used as system clock source */
    default: /* MSI used as system clock */
    {
      msiclkrange = (RCC->ICSCR & RCC_ICSCR_MSIRANGE ) >> RCC_ICSCR_MSIRANGE_Pos;
 8001876:	4b09      	ldr	r3, [pc, #36]	; (800189c <HAL_RCC_GetSysClockFreq+0xf4>)
 8001878:	685b      	ldr	r3, [r3, #4]
 800187a:	0b5b      	lsrs	r3, r3, #13
 800187c:	2207      	movs	r2, #7
 800187e:	4013      	ands	r3, r2
 8001880:	603b      	str	r3, [r7, #0]
      sysclockfreq = (32768U * (1UL << (msiclkrange + 1U)));
 8001882:	683b      	ldr	r3, [r7, #0]
 8001884:	3301      	adds	r3, #1
 8001886:	2280      	movs	r2, #128	; 0x80
 8001888:	0212      	lsls	r2, r2, #8
 800188a:	409a      	lsls	r2, r3
 800188c:	0013      	movs	r3, r2
 800188e:	613b      	str	r3, [r7, #16]
      break;
 8001890:	46c0      	nop			; (mov r8, r8)
    }
  }
  return sysclockfreq;
 8001892:	693b      	ldr	r3, [r7, #16]
}
 8001894:	0018      	movs	r0, r3
 8001896:	46bd      	mov	sp, r7
 8001898:	b006      	add	sp, #24
 800189a:	bd80      	pop	{r7, pc}
 800189c:	40021000 	.word	0x40021000
 80018a0:	003d0900 	.word	0x003d0900
 80018a4:	00f42400 	.word	0x00f42400
 80018a8:	007a1200 	.word	0x007a1200
 80018ac:	08001930 	.word	0x08001930

080018b0 <__libc_init_array>:
 80018b0:	b570      	push	{r4, r5, r6, lr}
 80018b2:	2600      	movs	r6, #0
 80018b4:	4d0c      	ldr	r5, [pc, #48]	; (80018e8 <__libc_init_array+0x38>)
 80018b6:	4c0d      	ldr	r4, [pc, #52]	; (80018ec <__libc_init_array+0x3c>)
 80018b8:	1b64      	subs	r4, r4, r5
 80018ba:	10a4      	asrs	r4, r4, #2
 80018bc:	42a6      	cmp	r6, r4
 80018be:	d109      	bne.n	80018d4 <__libc_init_array+0x24>
 80018c0:	2600      	movs	r6, #0
 80018c2:	f000 f821 	bl	8001908 <_init>
 80018c6:	4d0a      	ldr	r5, [pc, #40]	; (80018f0 <__libc_init_array+0x40>)
 80018c8:	4c0a      	ldr	r4, [pc, #40]	; (80018f4 <__libc_init_array+0x44>)
 80018ca:	1b64      	subs	r4, r4, r5
 80018cc:	10a4      	asrs	r4, r4, #2
 80018ce:	42a6      	cmp	r6, r4
 80018d0:	d105      	bne.n	80018de <__libc_init_array+0x2e>
 80018d2:	bd70      	pop	{r4, r5, r6, pc}
 80018d4:	00b3      	lsls	r3, r6, #2
 80018d6:	58eb      	ldr	r3, [r5, r3]
 80018d8:	4798      	blx	r3
 80018da:	3601      	adds	r6, #1
 80018dc:	e7ee      	b.n	80018bc <__libc_init_array+0xc>
 80018de:	00b3      	lsls	r3, r6, #2
 80018e0:	58eb      	ldr	r3, [r5, r3]
 80018e2:	4798      	blx	r3
 80018e4:	3601      	adds	r6, #1
 80018e6:	e7f2      	b.n	80018ce <__libc_init_array+0x1e>
 80018e8:	0800193c 	.word	0x0800193c
 80018ec:	0800193c 	.word	0x0800193c
 80018f0:	0800193c 	.word	0x0800193c
 80018f4:	08001940 	.word	0x08001940

080018f8 <memset>:
 80018f8:	0003      	movs	r3, r0
 80018fa:	1812      	adds	r2, r2, r0
 80018fc:	4293      	cmp	r3, r2
 80018fe:	d100      	bne.n	8001902 <memset+0xa>
 8001900:	4770      	bx	lr
 8001902:	7019      	strb	r1, [r3, #0]
 8001904:	3301      	adds	r3, #1
 8001906:	e7f9      	b.n	80018fc <memset+0x4>

08001908 <_init>:
 8001908:	b5f8      	push	{r3, r4, r5, r6, r7, lr}
 800190a:	46c0      	nop			; (mov r8, r8)
 800190c:	bcf8      	pop	{r3, r4, r5, r6, r7}
 800190e:	bc08      	pop	{r3}
 8001910:	469e      	mov	lr, r3
 8001912:	4770      	bx	lr

08001914 <_fini>:
 8001914:	b5f8      	push	{r3, r4, r5, r6, r7, lr}
 8001916:	46c0      	nop			; (mov r8, r8)
 8001918:	bcf8      	pop	{r3, r4, r5, r6, r7}
 800191a:	bc08      	pop	{r3}
 800191c:	469e      	mov	lr, r3
 800191e:	4770      	bx	lr
